   1               		.file	"main.c"
   2               	__SREG__ = 0x3f
   3               	__SP_H__ = 0x3e
   4               	__SP_L__ = 0x3d
   5               	__CCP__  = 0x34
   6               	__tmp_reg__ = 0
   7               	__zero_reg__ = 1
  15               	.Ltext0:
  16               		.data
  19               	Font5x7:
  20 0000 00        		.byte	0
  21 0001 00        		.byte	0
  22 0002 00        		.byte	0
  23 0003 00        		.byte	0
  24 0004 00        		.byte	0
  25 0005 00        		.byte	0
  26 0006 00        		.byte	0
  27 0007 5F        		.byte	95
  28 0008 00        		.byte	0
  29 0009 00        		.byte	0
  30 000a 00        		.byte	0
  31 000b 07        		.byte	7
  32 000c 00        		.byte	0
  33 000d 07        		.byte	7
  34 000e 00        		.byte	0
  35 000f 14        		.byte	20
  36 0010 7F        		.byte	127
  37 0011 14        		.byte	20
  38 0012 7F        		.byte	127
  39 0013 14        		.byte	20
  40 0014 24        		.byte	36
  41 0015 2A        		.byte	42
  42 0016 7F        		.byte	127
  43 0017 2A        		.byte	42
  44 0018 12        		.byte	18
  45 0019 23        		.byte	35
  46 001a 13        		.byte	19
  47 001b 08        		.byte	8
  48 001c 64        		.byte	100
  49 001d 62        		.byte	98
  50 001e 36        		.byte	54
  51 001f 49        		.byte	73
  52 0020 55        		.byte	85
  53 0021 22        		.byte	34
  54 0022 50        		.byte	80
  55 0023 00        		.byte	0
  56 0024 05        		.byte	5
  57 0025 03        		.byte	3
  58 0026 00        		.byte	0
  59 0027 00        		.byte	0
  60 0028 00        		.byte	0
  61 0029 1C        		.byte	28
  62 002a 22        		.byte	34
  63 002b 41        		.byte	65
  64 002c 00        		.byte	0
  65 002d 00        		.byte	0
  66 002e 41        		.byte	65
  67 002f 22        		.byte	34
  68 0030 1C        		.byte	28
  69 0031 00        		.byte	0
  70 0032 08        		.byte	8
  71 0033 2A        		.byte	42
  72 0034 1C        		.byte	28
  73 0035 2A        		.byte	42
  74 0036 08        		.byte	8
  75 0037 08        		.byte	8
  76 0038 08        		.byte	8
  77 0039 3E        		.byte	62
  78 003a 08        		.byte	8
  79 003b 08        		.byte	8
  80 003c 00        		.byte	0
  81 003d 50        		.byte	80
  82 003e 30        		.byte	48
  83 003f 00        		.byte	0
  84 0040 00        		.byte	0
  85 0041 08        		.byte	8
  86 0042 08        		.byte	8
  87 0043 08        		.byte	8
  88 0044 08        		.byte	8
  89 0045 08        		.byte	8
  90 0046 00        		.byte	0
  91 0047 60        		.byte	96
  92 0048 60        		.byte	96
  93 0049 00        		.byte	0
  94 004a 00        		.byte	0
  95 004b 20        		.byte	32
  96 004c 10        		.byte	16
  97 004d 08        		.byte	8
  98 004e 04        		.byte	4
  99 004f 02        		.byte	2
 100 0050 3E        		.byte	62
 101 0051 51        		.byte	81
 102 0052 49        		.byte	73
 103 0053 45        		.byte	69
 104 0054 3E        		.byte	62
 105 0055 00        		.byte	0
 106 0056 42        		.byte	66
 107 0057 7F        		.byte	127
 108 0058 40        		.byte	64
 109 0059 00        		.byte	0
 110 005a 42        		.byte	66
 111 005b 61        		.byte	97
 112 005c 51        		.byte	81
 113 005d 49        		.byte	73
 114 005e 46        		.byte	70
 115 005f 21        		.byte	33
 116 0060 41        		.byte	65
 117 0061 45        		.byte	69
 118 0062 4B        		.byte	75
 119 0063 31        		.byte	49
 120 0064 18        		.byte	24
 121 0065 14        		.byte	20
 122 0066 12        		.byte	18
 123 0067 7F        		.byte	127
 124 0068 10        		.byte	16
 125 0069 27        		.byte	39
 126 006a 45        		.byte	69
 127 006b 45        		.byte	69
 128 006c 45        		.byte	69
 129 006d 39        		.byte	57
 130 006e 3C        		.byte	60
 131 006f 4A        		.byte	74
 132 0070 49        		.byte	73
 133 0071 49        		.byte	73
 134 0072 30        		.byte	48
 135 0073 01        		.byte	1
 136 0074 71        		.byte	113
 137 0075 09        		.byte	9
 138 0076 05        		.byte	5
 139 0077 03        		.byte	3
 140 0078 36        		.byte	54
 141 0079 49        		.byte	73
 142 007a 49        		.byte	73
 143 007b 49        		.byte	73
 144 007c 36        		.byte	54
 145 007d 06        		.byte	6
 146 007e 49        		.byte	73
 147 007f 49        		.byte	73
 148 0080 29        		.byte	41
 149 0081 1E        		.byte	30
 150 0082 00        		.byte	0
 151 0083 36        		.byte	54
 152 0084 36        		.byte	54
 153 0085 00        		.byte	0
 154 0086 00        		.byte	0
 155 0087 00        		.byte	0
 156 0088 56        		.byte	86
 157 0089 36        		.byte	54
 158 008a 00        		.byte	0
 159 008b 00        		.byte	0
 160 008c 00        		.byte	0
 161 008d 08        		.byte	8
 162 008e 14        		.byte	20
 163 008f 22        		.byte	34
 164 0090 41        		.byte	65
 165 0091 14        		.byte	20
 166 0092 14        		.byte	20
 167 0093 14        		.byte	20
 168 0094 14        		.byte	20
 169 0095 14        		.byte	20
 170 0096 41        		.byte	65
 171 0097 22        		.byte	34
 172 0098 14        		.byte	20
 173 0099 08        		.byte	8
 174 009a 00        		.byte	0
 175 009b 02        		.byte	2
 176 009c 01        		.byte	1
 177 009d 51        		.byte	81
 178 009e 09        		.byte	9
 179 009f 06        		.byte	6
 180 00a0 32        		.byte	50
 181 00a1 49        		.byte	73
 182 00a2 79        		.byte	121
 183 00a3 41        		.byte	65
 184 00a4 3E        		.byte	62
 185 00a5 7E        		.byte	126
 186 00a6 11        		.byte	17
 187 00a7 11        		.byte	17
 188 00a8 11        		.byte	17
 189 00a9 7E        		.byte	126
 190 00aa 7F        		.byte	127
 191 00ab 49        		.byte	73
 192 00ac 49        		.byte	73
 193 00ad 49        		.byte	73
 194 00ae 36        		.byte	54
 195 00af 3E        		.byte	62
 196 00b0 41        		.byte	65
 197 00b1 41        		.byte	65
 198 00b2 41        		.byte	65
 199 00b3 22        		.byte	34
 200 00b4 7F        		.byte	127
 201 00b5 41        		.byte	65
 202 00b6 41        		.byte	65
 203 00b7 22        		.byte	34
 204 00b8 1C        		.byte	28
 205 00b9 7F        		.byte	127
 206 00ba 49        		.byte	73
 207 00bb 49        		.byte	73
 208 00bc 49        		.byte	73
 209 00bd 41        		.byte	65
 210 00be 7F        		.byte	127
 211 00bf 09        		.byte	9
 212 00c0 09        		.byte	9
 213 00c1 01        		.byte	1
 214 00c2 01        		.byte	1
 215 00c3 3E        		.byte	62
 216 00c4 41        		.byte	65
 217 00c5 41        		.byte	65
 218 00c6 51        		.byte	81
 219 00c7 32        		.byte	50
 220 00c8 7F        		.byte	127
 221 00c9 08        		.byte	8
 222 00ca 08        		.byte	8
 223 00cb 08        		.byte	8
 224 00cc 7F        		.byte	127
 225 00cd 00        		.byte	0
 226 00ce 41        		.byte	65
 227 00cf 7F        		.byte	127
 228 00d0 41        		.byte	65
 229 00d1 00        		.byte	0
 230 00d2 20        		.byte	32
 231 00d3 40        		.byte	64
 232 00d4 41        		.byte	65
 233 00d5 3F        		.byte	63
 234 00d6 01        		.byte	1
 235 00d7 7F        		.byte	127
 236 00d8 08        		.byte	8
 237 00d9 14        		.byte	20
 238 00da 22        		.byte	34
 239 00db 41        		.byte	65
 240 00dc 7F        		.byte	127
 241 00dd 40        		.byte	64
 242 00de 40        		.byte	64
 243 00df 40        		.byte	64
 244 00e0 40        		.byte	64
 245 00e1 7F        		.byte	127
 246 00e2 02        		.byte	2
 247 00e3 04        		.byte	4
 248 00e4 02        		.byte	2
 249 00e5 7F        		.byte	127
 250 00e6 7F        		.byte	127
 251 00e7 04        		.byte	4
 252 00e8 08        		.byte	8
 253 00e9 10        		.byte	16
 254 00ea 7F        		.byte	127
 255 00eb 3E        		.byte	62
 256 00ec 41        		.byte	65
 257 00ed 41        		.byte	65
 258 00ee 41        		.byte	65
 259 00ef 3E        		.byte	62
 260 00f0 7F        		.byte	127
 261 00f1 09        		.byte	9
 262 00f2 09        		.byte	9
 263 00f3 09        		.byte	9
 264 00f4 06        		.byte	6
 265 00f5 3E        		.byte	62
 266 00f6 41        		.byte	65
 267 00f7 51        		.byte	81
 268 00f8 21        		.byte	33
 269 00f9 5E        		.byte	94
 270 00fa 7F        		.byte	127
 271 00fb 09        		.byte	9
 272 00fc 19        		.byte	25
 273 00fd 29        		.byte	41
 274 00fe 46        		.byte	70
 275 00ff 46        		.byte	70
 276 0100 49        		.byte	73
 277 0101 49        		.byte	73
 278 0102 49        		.byte	73
 279 0103 31        		.byte	49
 280 0104 01        		.byte	1
 281 0105 01        		.byte	1
 282 0106 7F        		.byte	127
 283 0107 01        		.byte	1
 284 0108 01        		.byte	1
 285 0109 3F        		.byte	63
 286 010a 40        		.byte	64
 287 010b 40        		.byte	64
 288 010c 40        		.byte	64
 289 010d 3F        		.byte	63
 290 010e 1F        		.byte	31
 291 010f 20        		.byte	32
 292 0110 40        		.byte	64
 293 0111 20        		.byte	32
 294 0112 1F        		.byte	31
 295 0113 7F        		.byte	127
 296 0114 20        		.byte	32
 297 0115 18        		.byte	24
 298 0116 20        		.byte	32
 299 0117 7F        		.byte	127
 300 0118 63        		.byte	99
 301 0119 14        		.byte	20
 302 011a 08        		.byte	8
 303 011b 14        		.byte	20
 304 011c 63        		.byte	99
 305 011d 03        		.byte	3
 306 011e 04        		.byte	4
 307 011f 78        		.byte	120
 308 0120 04        		.byte	4
 309 0121 03        		.byte	3
 310 0122 61        		.byte	97
 311 0123 51        		.byte	81
 312 0124 49        		.byte	73
 313 0125 45        		.byte	69
 314 0126 43        		.byte	67
 315 0127 00        		.byte	0
 316 0128 00        		.byte	0
 317 0129 7F        		.byte	127
 318 012a 41        		.byte	65
 319 012b 41        		.byte	65
 320 012c 02        		.byte	2
 321 012d 04        		.byte	4
 322 012e 08        		.byte	8
 323 012f 10        		.byte	16
 324 0130 20        		.byte	32
 325 0131 41        		.byte	65
 326 0132 41        		.byte	65
 327 0133 7F        		.byte	127
 328 0134 00        		.byte	0
 329 0135 00        		.byte	0
 330 0136 04        		.byte	4
 331 0137 02        		.byte	2
 332 0138 01        		.byte	1
 333 0139 02        		.byte	2
 334 013a 04        		.byte	4
 335 013b 40        		.byte	64
 336 013c 40        		.byte	64
 337 013d 40        		.byte	64
 338 013e 40        		.byte	64
 339 013f 40        		.byte	64
 340 0140 00        		.byte	0
 341 0141 01        		.byte	1
 342 0142 02        		.byte	2
 343 0143 04        		.byte	4
 344 0144 00        		.byte	0
 345 0145 20        		.byte	32
 346 0146 54        		.byte	84
 347 0147 54        		.byte	84
 348 0148 54        		.byte	84
 349 0149 78        		.byte	120
 350 014a 7F        		.byte	127
 351 014b 48        		.byte	72
 352 014c 44        		.byte	68
 353 014d 44        		.byte	68
 354 014e 38        		.byte	56
 355 014f 38        		.byte	56
 356 0150 44        		.byte	68
 357 0151 44        		.byte	68
 358 0152 44        		.byte	68
 359 0153 20        		.byte	32
 360 0154 38        		.byte	56
 361 0155 44        		.byte	68
 362 0156 44        		.byte	68
 363 0157 48        		.byte	72
 364 0158 7F        		.byte	127
 365 0159 38        		.byte	56
 366 015a 54        		.byte	84
 367 015b 54        		.byte	84
 368 015c 54        		.byte	84
 369 015d 18        		.byte	24
 370 015e 08        		.byte	8
 371 015f 7E        		.byte	126
 372 0160 09        		.byte	9
 373 0161 01        		.byte	1
 374 0162 02        		.byte	2
 375 0163 08        		.byte	8
 376 0164 14        		.byte	20
 377 0165 54        		.byte	84
 378 0166 54        		.byte	84
 379 0167 3C        		.byte	60
 380 0168 7F        		.byte	127
 381 0169 08        		.byte	8
 382 016a 04        		.byte	4
 383 016b 04        		.byte	4
 384 016c 78        		.byte	120
 385 016d 00        		.byte	0
 386 016e 44        		.byte	68
 387 016f 7D        		.byte	125
 388 0170 40        		.byte	64
 389 0171 00        		.byte	0
 390 0172 20        		.byte	32
 391 0173 40        		.byte	64
 392 0174 44        		.byte	68
 393 0175 3D        		.byte	61
 394 0176 00        		.byte	0
 395 0177 00        		.byte	0
 396 0178 7F        		.byte	127
 397 0179 10        		.byte	16
 398 017a 28        		.byte	40
 399 017b 44        		.byte	68
 400 017c 00        		.byte	0
 401 017d 41        		.byte	65
 402 017e 7F        		.byte	127
 403 017f 40        		.byte	64
 404 0180 00        		.byte	0
 405 0181 7C        		.byte	124
 406 0182 04        		.byte	4
 407 0183 18        		.byte	24
 408 0184 04        		.byte	4
 409 0185 78        		.byte	120
 410 0186 7C        		.byte	124
 411 0187 08        		.byte	8
 412 0188 04        		.byte	4
 413 0189 04        		.byte	4
 414 018a 78        		.byte	120
 415 018b 38        		.byte	56
 416 018c 44        		.byte	68
 417 018d 44        		.byte	68
 418 018e 44        		.byte	68
 419 018f 38        		.byte	56
 420 0190 7C        		.byte	124
 421 0191 14        		.byte	20
 422 0192 14        		.byte	20
 423 0193 14        		.byte	20
 424 0194 08        		.byte	8
 425 0195 08        		.byte	8
 426 0196 14        		.byte	20
 427 0197 14        		.byte	20
 428 0198 18        		.byte	24
 429 0199 7C        		.byte	124
 430 019a 7C        		.byte	124
 431 019b 08        		.byte	8
 432 019c 04        		.byte	4
 433 019d 04        		.byte	4
 434 019e 08        		.byte	8
 435 019f 48        		.byte	72
 436 01a0 54        		.byte	84
 437 01a1 54        		.byte	84
 438 01a2 54        		.byte	84
 439 01a3 20        		.byte	32
 440 01a4 04        		.byte	4
 441 01a5 3F        		.byte	63
 442 01a6 44        		.byte	68
 443 01a7 40        		.byte	64
 444 01a8 20        		.byte	32
 445 01a9 3C        		.byte	60
 446 01aa 40        		.byte	64
 447 01ab 40        		.byte	64
 448 01ac 20        		.byte	32
 449 01ad 7C        		.byte	124
 450 01ae 1C        		.byte	28
 451 01af 20        		.byte	32
 452 01b0 40        		.byte	64
 453 01b1 20        		.byte	32
 454 01b2 1C        		.byte	28
 455 01b3 3C        		.byte	60
 456 01b4 40        		.byte	64
 457 01b5 30        		.byte	48
 458 01b6 40        		.byte	64
 459 01b7 3C        		.byte	60
 460 01b8 44        		.byte	68
 461 01b9 28        		.byte	40
 462 01ba 10        		.byte	16
 463 01bb 28        		.byte	40
 464 01bc 44        		.byte	68
 465 01bd 0C        		.byte	12
 466 01be 50        		.byte	80
 467 01bf 50        		.byte	80
 468 01c0 50        		.byte	80
 469 01c1 3C        		.byte	60
 470 01c2 44        		.byte	68
 471 01c3 64        		.byte	100
 472 01c4 54        		.byte	84
 473 01c5 4C        		.byte	76
 474 01c6 44        		.byte	68
 475 01c7 00        		.byte	0
 476 01c8 08        		.byte	8
 477 01c9 36        		.byte	54
 478 01ca 41        		.byte	65
 479 01cb 00        		.byte	0
 480 01cc 00        		.byte	0
 481 01cd 00        		.byte	0
 482 01ce 7F        		.byte	127
 483 01cf 00        		.byte	0
 484 01d0 00        		.byte	0
 485 01d1 00        		.byte	0
 486 01d2 41        		.byte	65
 487 01d3 36        		.byte	54
 488 01d4 08        		.byte	8
 489 01d5 00        		.byte	0
 490 01d6 08        		.byte	8
 491 01d7 08        		.byte	8
 492 01d8 2A        		.byte	42
 493 01d9 1C        		.byte	28
 494 01da 08        		.byte	8
 495 01db 08        		.byte	8
 496 01dc 1C        		.byte	28
 497 01dd 2A        		.byte	42
 498 01de 08        		.byte	8
 499 01df 08        		.byte	8
 500               		.text
 501               	.global	g_draw_horizontal_line
 503               	g_draw_horizontal_line:
 504               	.LFB6:
 505               	.LM1:
 506 0000 DF93      		push r29
 507 0002 CF93      		push r28
 508 0004 CDB7      		in r28,__SP_L__
 509 0006 DEB7      		in r29,__SP_H__
 510 0008 2897      		sbiw r28,8
 511 000a 0FB6      		in __tmp_reg__,__SREG__
 512 000c F894      		cli
 513 000e DEBF      		out __SP_H__,r29
 514 0010 0FBE      		out __SREG__,__tmp_reg__
 515 0012 CDBF      		out __SP_L__,r28
 516               	/* prologue: function */
 517               	/* frame size = 8 */
 518 0014 9C83      		std Y+4,r25
 519 0016 8B83      		std Y+3,r24
 520 0018 7E83      		std Y+6,r23
 521 001a 6D83      		std Y+5,r22
 522 001c 5887      		std Y+8,r21
 523 001e 4F83      		std Y+7,r20
 524               	.LM2:
 525 0020 8B81      		ldd r24,Y+3
 526 0022 9C81      		ldd r25,Y+4
 527 0024 9A83      		std Y+2,r25
 528 0026 8983      		std Y+1,r24
 529 0028 00C0      		rjmp .L2
 530               	.L3:
 531               	.LM3:
 532 002a 8981      		ldd r24,Y+1
 533 002c 9A81      		ldd r25,Y+2
 534 002e 2D81      		ldd r18,Y+5
 535 0030 3E81      		ldd r19,Y+6
 536 0032 B901      		movw r22,r18
 537 0034 4FEF      		ldi r20,lo8(-1)
 538 0036 0E94 0000 		call lcd_graphics_plot_pixel
 539               	.LM4:
 540 003a 8981      		ldd r24,Y+1
 541 003c 9A81      		ldd r25,Y+2
 542 003e 0196      		adiw r24,1
 543 0040 9A83      		std Y+2,r25
 544 0042 8983      		std Y+1,r24
 545               	.L2:
 546 0044 2B81      		ldd r18,Y+3
 547 0046 3C81      		ldd r19,Y+4
 548 0048 8F81      		ldd r24,Y+7
 549 004a 9885      		ldd r25,Y+8
 550 004c 280F      		add r18,r24
 551 004e 391F      		adc r19,r25
 552 0050 8981      		ldd r24,Y+1
 553 0052 9A81      		ldd r25,Y+2
 554 0054 2817      		cp r18,r24
 555 0056 3907      		cpc r19,r25
 556 0058 00F4      		brsh .L3
 557               	/* epilogue start */
 558               	.LM5:
 559 005a 2896      		adiw r28,8
 560 005c 0FB6      		in __tmp_reg__,__SREG__
 561 005e F894      		cli
 562 0060 DEBF      		out __SP_H__,r29
 563 0062 0FBE      		out __SREG__,__tmp_reg__
 564 0064 CDBF      		out __SP_L__,r28
 565 0066 CF91      		pop r28
 566 0068 DF91      		pop r29
 567 006a 0895      		ret
 568               	.LFE6:
 570               	.global	g_draw_vertical_line
 572               	g_draw_vertical_line:
 573               	.LFB7:
 574               	.LM6:
 575 006c DF93      		push r29
 576 006e CF93      		push r28
 577 0070 CDB7      		in r28,__SP_L__
 578 0072 DEB7      		in r29,__SP_H__
 579 0074 2897      		sbiw r28,8
 580 0076 0FB6      		in __tmp_reg__,__SREG__
 581 0078 F894      		cli
 582 007a DEBF      		out __SP_H__,r29
 583 007c 0FBE      		out __SREG__,__tmp_reg__
 584 007e CDBF      		out __SP_L__,r28
 585               	/* prologue: function */
 586               	/* frame size = 8 */
 587 0080 9C83      		std Y+4,r25
 588 0082 8B83      		std Y+3,r24
 589 0084 7E83      		std Y+6,r23
 590 0086 6D83      		std Y+5,r22
 591 0088 5887      		std Y+8,r21
 592 008a 4F83      		std Y+7,r20
 593               	.LM7:
 594 008c 8D81      		ldd r24,Y+5
 595 008e 9E81      		ldd r25,Y+6
 596 0090 9A83      		std Y+2,r25
 597 0092 8983      		std Y+1,r24
 598 0094 00C0      		rjmp .L6
 599               	.L7:
 600               	.LM8:
 601 0096 8B81      		ldd r24,Y+3
 602 0098 9C81      		ldd r25,Y+4
 603 009a 2981      		ldd r18,Y+1
 604 009c 3A81      		ldd r19,Y+2
 605 009e B901      		movw r22,r18
 606 00a0 4FEF      		ldi r20,lo8(-1)
 607 00a2 0E94 0000 		call lcd_graphics_plot_pixel
 608               	.LM9:
 609 00a6 8981      		ldd r24,Y+1
 610 00a8 9A81      		ldd r25,Y+2
 611 00aa 0196      		adiw r24,1
 612 00ac 9A83      		std Y+2,r25
 613 00ae 8983      		std Y+1,r24
 614               	.L6:
 615 00b0 2D81      		ldd r18,Y+5
 616 00b2 3E81      		ldd r19,Y+6
 617 00b4 8F81      		ldd r24,Y+7
 618 00b6 9885      		ldd r25,Y+8
 619 00b8 280F      		add r18,r24
 620 00ba 391F      		adc r19,r25
 621 00bc 8981      		ldd r24,Y+1
 622 00be 9A81      		ldd r25,Y+2
 623 00c0 8217      		cp r24,r18
 624 00c2 9307      		cpc r25,r19
 625 00c4 00F0      		brlo .L7
 626               	/* epilogue start */
 627               	.LM10:
 628 00c6 2896      		adiw r28,8
 629 00c8 0FB6      		in __tmp_reg__,__SREG__
 630 00ca F894      		cli
 631 00cc DEBF      		out __SP_H__,r29
 632 00ce 0FBE      		out __SREG__,__tmp_reg__
 633 00d0 CDBF      		out __SP_L__,r28
 634 00d2 CF91      		pop r28
 635 00d4 DF91      		pop r29
 636 00d6 0895      		ret
 637               	.LFE7:
 639               	.global	g_draw_rectangle
 641               	g_draw_rectangle:
 642               	.LFB8:
 643               	.LM11:
 644 00d8 DF93      		push r29
 645 00da CF93      		push r28
 646 00dc CDB7      		in r28,__SP_L__
 647 00de DEB7      		in r29,__SP_H__
 648 00e0 2897      		sbiw r28,8
 649 00e2 0FB6      		in __tmp_reg__,__SREG__
 650 00e4 F894      		cli
 651 00e6 DEBF      		out __SP_H__,r29
 652 00e8 0FBE      		out __SREG__,__tmp_reg__
 653 00ea CDBF      		out __SP_L__,r28
 654               	/* prologue: function */
 655               	/* frame size = 8 */
 656 00ec 9A83      		std Y+2,r25
 657 00ee 8983      		std Y+1,r24
 658 00f0 7C83      		std Y+4,r23
 659 00f2 6B83      		std Y+3,r22
 660 00f4 5E83      		std Y+6,r21
 661 00f6 4D83      		std Y+5,r20
 662 00f8 3887      		std Y+8,r19
 663 00fa 2F83      		std Y+7,r18
 664               	.LM12:
 665 00fc 8D81      		ldd r24,Y+5
 666 00fe 9E81      		ldd r25,Y+6
 667 0100 0197      		sbiw r24,1
 668 0102 9E83      		std Y+6,r25
 669 0104 8D83      		std Y+5,r24
 670               	.LM13:
 671 0106 8F81      		ldd r24,Y+7
 672 0108 9885      		ldd r25,Y+8
 673 010a 0197      		sbiw r24,1
 674 010c 9887      		std Y+8,r25
 675 010e 8F83      		std Y+7,r24
 676               	.LM14:
 677 0110 8981      		ldd r24,Y+1
 678 0112 9A81      		ldd r25,Y+2
 679 0114 2B81      		ldd r18,Y+3
 680 0116 3C81      		ldd r19,Y+4
 681 0118 4D81      		ldd r20,Y+5
 682 011a 5E81      		ldd r21,Y+6
 683 011c B901      		movw r22,r18
 684 011e 0E94 0000 		call g_draw_horizontal_line
 685               	.LM15:
 686 0122 8981      		ldd r24,Y+1
 687 0124 9A81      		ldd r25,Y+2
 688 0126 2B81      		ldd r18,Y+3
 689 0128 3C81      		ldd r19,Y+4
 690 012a 4F81      		ldd r20,Y+7
 691 012c 5885      		ldd r21,Y+8
 692 012e B901      		movw r22,r18
 693 0130 0E94 0000 		call g_draw_vertical_line
 694               	.LM16:
 695 0134 2981      		ldd r18,Y+1
 696 0136 3A81      		ldd r19,Y+2
 697 0138 8D81      		ldd r24,Y+5
 698 013a 9E81      		ldd r25,Y+6
 699 013c 820F      		add r24,r18
 700 013e 931F      		adc r25,r19
 701 0140 2B81      		ldd r18,Y+3
 702 0142 3C81      		ldd r19,Y+4
 703 0144 4F81      		ldd r20,Y+7
 704 0146 5885      		ldd r21,Y+8
 705 0148 B901      		movw r22,r18
 706 014a 0E94 0000 		call g_draw_vertical_line
 707               	.LM17:
 708 014e 2B81      		ldd r18,Y+3
 709 0150 3C81      		ldd r19,Y+4
 710 0152 8F81      		ldd r24,Y+7
 711 0154 9885      		ldd r25,Y+8
 712 0156 A901      		movw r20,r18
 713 0158 480F      		add r20,r24
 714 015a 591F      		adc r21,r25
 715 015c 8981      		ldd r24,Y+1
 716 015e 9A81      		ldd r25,Y+2
 717 0160 2D81      		ldd r18,Y+5
 718 0162 3E81      		ldd r19,Y+6
 719 0164 BA01      		movw r22,r20
 720 0166 A901      		movw r20,r18
 721 0168 0E94 0000 		call g_draw_horizontal_line
 722               	/* epilogue start */
 723               	.LM18:
 724 016c 2896      		adiw r28,8
 725 016e 0FB6      		in __tmp_reg__,__SREG__
 726 0170 F894      		cli
 727 0172 DEBF      		out __SP_H__,r29
 728 0174 0FBE      		out __SREG__,__tmp_reg__
 729 0176 CDBF      		out __SP_L__,r28
 730 0178 CF91      		pop r28
 731 017a DF91      		pop r29
 732 017c 0895      		ret
 733               	.LFE8:
 735               	.global	g_draw_char
 737               	g_draw_char:
 738               	.LFB9:
 739               	.LM19:
 740 017e DF93      		push r29
 741 0180 CF93      		push r28
 742 0182 CDB7      		in r28,__SP_L__
 743 0184 DEB7      		in r29,__SP_H__
 744 0186 2897      		sbiw r28,8
 745 0188 0FB6      		in __tmp_reg__,__SREG__
 746 018a F894      		cli
 747 018c DEBF      		out __SP_H__,r29
 748 018e 0FBE      		out __SREG__,__tmp_reg__
 749 0190 CDBF      		out __SP_L__,r28
 750               	/* prologue: function */
 751               	/* frame size = 8 */
 752 0192 9D83      		std Y+5,r25
 753 0194 8C83      		std Y+4,r24
 754 0196 7F83      		std Y+7,r23
 755 0198 6E83      		std Y+6,r22
 756 019a 4887      		std Y+8,r20
 757               	.LM20:
 758 019c 8885      		ldd r24,Y+8
 759 019e 8052      		subi r24,lo8(-(-32))
 760 01a0 8B83      		std Y+3,r24
 761               	.LM21:
 762 01a2 8B81      		ldd r24,Y+3
 763 01a4 8F35      		cpi r24,lo8(95)
 764 01a6 00F0      		brlo .+2
 765 01a8 00C0      		rjmp .L19
 766               	.LM22:
 767 01aa 1A82      		std Y+2,__zero_reg__
 768 01ac 00C0      		rjmp .L13
 769               	.L18:
 770               	.LM23:
 771 01ae 1982      		std Y+1,__zero_reg__
 772 01b0 00C0      		rjmp .L14
 773               	.L17:
 774               	.LM24:
 775 01b2 8B81      		ldd r24,Y+3
 776 01b4 282F      		mov r18,r24
 777 01b6 30E0      		ldi r19,lo8(0)
 778 01b8 C901      		movw r24,r18
 779 01ba 880F      		lsl r24
 780 01bc 991F      		rol r25
 781 01be 880F      		lsl r24
 782 01c0 991F      		rol r25
 783 01c2 280F      		add r18,r24
 784 01c4 391F      		adc r19,r25
 785 01c6 8A81      		ldd r24,Y+2
 786 01c8 882F      		mov r24,r24
 787 01ca 90E0      		ldi r25,lo8(0)
 788 01cc 820F      		add r24,r18
 789 01ce 931F      		adc r25,r19
 790 01d0 FC01      		movw r30,r24
 791 01d2 E050      		subi r30,lo8(-(Font5x7))
 792 01d4 F040      		sbci r31,hi8(-(Font5x7))
 793 01d6 8081      		ld r24,Z
 794 01d8 282F      		mov r18,r24
 795 01da 30E0      		ldi r19,lo8(0)
 796 01dc 8981      		ldd r24,Y+1
 797 01de 882F      		mov r24,r24
 798 01e0 90E0      		ldi r25,lo8(0)
 799 01e2 A901      		movw r20,r18
 800 01e4 00C0      		rjmp 2f
 801 01e6 5595      	1:	asr r21
 802 01e8 4795      		ror r20
 803 01ea 8A95      	2:	dec r24
 804 01ec 02F4      		brpl 1b
 805 01ee CA01      		movw r24,r20
 806 01f0 8170      		andi r24,lo8(1)
 807 01f2 9070      		andi r25,hi8(1)
 808 01f4 8823      		tst r24
 809 01f6 01F0      		breq .L15
 810               	.LM25:
 811 01f8 8981      		ldd r24,Y+1
 812 01fa 282F      		mov r18,r24
 813 01fc 30E0      		ldi r19,lo8(0)
 814 01fe 8E81      		ldd r24,Y+6
 815 0200 9F81      		ldd r25,Y+7
 816 0202 280F      		add r18,r24
 817 0204 391F      		adc r19,r25
 818 0206 8C81      		ldd r24,Y+4
 819 0208 9D81      		ldd r25,Y+5
 820 020a B901      		movw r22,r18
 821 020c 4FEF      		ldi r20,lo8(-1)
 822 020e 0E94 0000 		call lcd_graphics_plot_pixel
 823 0212 00C0      		rjmp .L16
 824               	.L15:
 825               	.LM26:
 826 0214 8981      		ldd r24,Y+1
 827 0216 282F      		mov r18,r24
 828 0218 30E0      		ldi r19,lo8(0)
 829 021a 8E81      		ldd r24,Y+6
 830 021c 9F81      		ldd r25,Y+7
 831 021e 280F      		add r18,r24
 832 0220 391F      		adc r19,r25
 833 0222 8C81      		ldd r24,Y+4
 834 0224 9D81      		ldd r25,Y+5
 835 0226 B901      		movw r22,r18
 836 0228 40E0      		ldi r20,lo8(0)
 837 022a 0E94 0000 		call lcd_graphics_plot_pixel
 838               	.L16:
 839               	.LM27:
 840 022e 8981      		ldd r24,Y+1
 841 0230 8F5F      		subi r24,lo8(-(1))
 842 0232 8983      		std Y+1,r24
 843               	.L14:
 844 0234 8981      		ldd r24,Y+1
 845 0236 8730      		cpi r24,lo8(7)
 846 0238 00F4      		brsh .+2
 847 023a 00C0      		rjmp .L17
 848               	.LM28:
 849 023c 8C81      		ldd r24,Y+4
 850 023e 9D81      		ldd r25,Y+5
 851 0240 0196      		adiw r24,1
 852 0242 9D83      		std Y+5,r25
 853 0244 8C83      		std Y+4,r24
 854               	.LM29:
 855 0246 8A81      		ldd r24,Y+2
 856 0248 8F5F      		subi r24,lo8(-(1))
 857 024a 8A83      		std Y+2,r24
 858               	.L13:
 859 024c 8A81      		ldd r24,Y+2
 860 024e 8530      		cpi r24,lo8(5)
 861 0250 00F4      		brsh .+2
 862 0252 00C0      		rjmp .L18
 863               	.L19:
 864               	/* epilogue start */
 865               	.LM30:
 866 0254 2896      		adiw r28,8
 867 0256 0FB6      		in __tmp_reg__,__SREG__
 868 0258 F894      		cli
 869 025a DEBF      		out __SP_H__,r29
 870 025c 0FBE      		out __SREG__,__tmp_reg__
 871 025e CDBF      		out __SP_L__,r28
 872 0260 CF91      		pop r28
 873 0262 DF91      		pop r29
 874 0264 0895      		ret
 875               	.LFE9:
 877               	.global	g_draw_string
 879               	g_draw_string:
 880               	.LFB10:
 881               	.LM31:
 882 0266 DF93      		push r29
 883 0268 CF93      		push r28
 884 026a CDB7      		in r28,__SP_L__
 885 026c DEB7      		in r29,__SP_H__
 886 026e 2897      		sbiw r28,8
 887 0270 0FB6      		in __tmp_reg__,__SREG__
 888 0272 F894      		cli
 889 0274 DEBF      		out __SP_H__,r29
 890 0276 0FBE      		out __SREG__,__tmp_reg__
 891 0278 CDBF      		out __SP_L__,r28
 892               	/* prologue: function */
 893               	/* frame size = 8 */
 894 027a 9C83      		std Y+4,r25
 895 027c 8B83      		std Y+3,r24
 896 027e 7E83      		std Y+6,r23
 897 0280 6D83      		std Y+5,r22
 898 0282 5887      		std Y+8,r21
 899 0284 4F83      		std Y+7,r20
 900               	.LM32:
 901 0286 8B81      		ldd r24,Y+3
 902 0288 9C81      		ldd r25,Y+4
 903 028a 9A83      		std Y+2,r25
 904 028c 8983      		std Y+1,r24
 905 028e 00C0      		rjmp .L21
 906               	.L23:
 907               	.LM33:
 908 0290 EF81      		ldd r30,Y+7
 909 0292 F885      		ldd r31,Y+8
 910 0294 8081      		ld r24,Z
 911 0296 8A30      		cpi r24,lo8(10)
 912 0298 01F4      		brne .L22
 913               	.LM34:
 914 029a 8981      		ldd r24,Y+1
 915 029c 9A81      		ldd r25,Y+2
 916 029e 9C83      		std Y+4,r25
 917 02a0 8B83      		std Y+3,r24
 918               	.LM35:
 919 02a2 8D81      		ldd r24,Y+5
 920 02a4 9E81      		ldd r25,Y+6
 921 02a6 0896      		adiw r24,8
 922 02a8 9E83      		std Y+6,r25
 923 02aa 8D83      		std Y+5,r24
 924               	.LM36:
 925 02ac 8F81      		ldd r24,Y+7
 926 02ae 9885      		ldd r25,Y+8
 927 02b0 0196      		adiw r24,1
 928 02b2 9887      		std Y+8,r25
 929 02b4 8F83      		std Y+7,r24
 930 02b6 00C0      		rjmp .L21
 931               	.L22:
 932               	.LM37:
 933 02b8 EF81      		ldd r30,Y+7
 934 02ba F885      		ldd r31,Y+8
 935 02bc 4081      		ld r20,Z
 936 02be 8F81      		ldd r24,Y+7
 937 02c0 9885      		ldd r25,Y+8
 938 02c2 0196      		adiw r24,1
 939 02c4 9887      		std Y+8,r25
 940 02c6 8F83      		std Y+7,r24
 941 02c8 8B81      		ldd r24,Y+3
 942 02ca 9C81      		ldd r25,Y+4
 943 02cc 2D81      		ldd r18,Y+5
 944 02ce 3E81      		ldd r19,Y+6
 945 02d0 B901      		movw r22,r18
 946 02d2 0E94 0000 		call g_draw_char
 947               	.LM38:
 948 02d6 8B81      		ldd r24,Y+3
 949 02d8 9C81      		ldd r25,Y+4
 950 02da 0696      		adiw r24,6
 951 02dc 9C83      		std Y+4,r25
 952 02de 8B83      		std Y+3,r24
 953               	.LM39:
 954 02e0 8B81      		ldd r24,Y+3
 955 02e2 9C81      		ldd r25,Y+4
 956 02e4 0596      		adiw r24,5
 957 02e6 813A      		cpi r24,161
 958 02e8 9105      		cpc r25,__zero_reg__
 959 02ea 00F0      		brlo .L21
 960               	.LM40:
 961 02ec 8981      		ldd r24,Y+1
 962 02ee 9A81      		ldd r25,Y+2
 963 02f0 9C83      		std Y+4,r25
 964 02f2 8B83      		std Y+3,r24
 965               	.LM41:
 966 02f4 8D81      		ldd r24,Y+5
 967 02f6 9E81      		ldd r25,Y+6
 968 02f8 0896      		adiw r24,8
 969 02fa 9E83      		std Y+6,r25
 970 02fc 8D83      		std Y+5,r24
 971               	.L21:
 972               	.LM42:
 973 02fe EF81      		ldd r30,Y+7
 974 0300 F885      		ldd r31,Y+8
 975 0302 8081      		ld r24,Z
 976 0304 8823      		tst r24
 977 0306 01F4      		brne .L23
 978               	/* epilogue start */
 979               	.LM43:
 980 0308 2896      		adiw r28,8
 981 030a 0FB6      		in __tmp_reg__,__SREG__
 982 030c F894      		cli
 983 030e DEBF      		out __SP_H__,r29
 984 0310 0FBE      		out __SREG__,__tmp_reg__
 985 0312 CDBF      		out __SP_L__,r28
 986 0314 CF91      		pop r28
 987 0316 DF91      		pop r29
 988 0318 0895      		ret
 989               	.LFE10:
 991               	.global	lcd_strobe_enable
 993               	lcd_strobe_enable:
 994               	.LFB11:
 995               	.LM44:
 996 031a DF93      		push r29
 997 031c CF93      		push r28
 998 031e CDB7      		in r28,__SP_L__
 999 0320 DEB7      		in r29,__SP_H__
 1000               	/* prologue: function */
 1001               	/* frame size = 0 */
 1002               	.LM45:
 1003 0322 A2E2      		ldi r26,lo8(34)
 1004 0324 B0E0      		ldi r27,hi8(34)
 1005 0326 E2E2      		ldi r30,lo8(34)
 1006 0328 F0E0      		ldi r31,hi8(34)
 1007 032a 8081      		ld r24,Z
 1008 032c 8064      		ori r24,lo8(64)
 1009 032e 8C93      		st X,r24
 1010               	.LM46:
 1011               	/* #APP */
 1012               	 ;  24 "lib/LC7981.c" 1
 1013 0330 0000      		nop;
 1014               	 ;  0 "" 2
 1015               	 ;  24 "lib/LC7981.c" 1
 1016 0332 0000      		nop;
 1017               	 ;  0 "" 2
 1018               	 ;  24 "lib/LC7981.c" 1
 1019 0334 0000      		nop;
 1020               	 ;  0 "" 2
 1021               	.LM47:
 1022               	/* #NOAPP */
 1023 0336 A2E2      		ldi r26,lo8(34)
 1024 0338 B0E0      		ldi r27,hi8(34)
 1025 033a E2E2      		ldi r30,lo8(34)
 1026 033c F0E0      		ldi r31,hi8(34)
 1027 033e 8081      		ld r24,Z
 1028 0340 8F7B      		andi r24,lo8(-65)
 1029 0342 8C93      		st X,r24
 1030               	.LM48:
 1031               	/* #APP */
 1032               	 ;  26 "lib/LC7981.c" 1
 1033 0344 0000      		nop;
 1034               	 ;  0 "" 2
 1035               	 ;  26 "lib/LC7981.c" 1
 1036 0346 0000      		nop;
 1037               	 ;  0 "" 2
 1038               	 ;  26 "lib/LC7981.c" 1
 1039 0348 0000      		nop;
 1040               	 ;  0 "" 2
 1041               	/* epilogue start */
 1042               	.LM49:
 1043               	/* #NOAPP */
 1044 034a CF91      		pop r28
 1045 034c DF91      		pop r29
 1046 034e 0895      		ret
 1047               	.LFE11:
 1049               	.global	lcd_wait_busy
 1051               	lcd_wait_busy:
 1052               	.LFB12:
 1053               	.LM50:
 1054 0350 DF93      		push r29
 1055 0352 CF93      		push r28
 1056 0354 CDB7      		in r28,__SP_L__
 1057 0356 DEB7      		in r29,__SP_H__
 1058 0358 6897      		sbiw r28,24
 1059 035a 0FB6      		in __tmp_reg__,__SREG__
 1060 035c F894      		cli
 1061 035e DEBF      		out __SP_H__,r29
 1062 0360 0FBE      		out __SREG__,__tmp_reg__
 1063 0362 CDBF      		out __SP_L__,r28
 1064               	/* prologue: function */
 1065               	/* frame size = 24 */
 1066               	.LM51:
 1067 0364 80E0      		ldi r24,lo8(0x40400000)
 1068 0366 90E0      		ldi r25,hi8(0x40400000)
 1069 0368 A0E4      		ldi r26,hlo8(0x40400000)
 1070 036a B0E4      		ldi r27,hhi8(0x40400000)
 1071 036c 8D8B      		std Y+21,r24
 1072 036e 9E8B      		std Y+22,r25
 1073 0370 AF8B      		std Y+23,r26
 1074 0372 B88F      		std Y+24,r27
 1075               	.LBB12:
 1076               	.LBB13:
 1077               	.LM52:
 1078 0374 6D89      		ldd r22,Y+21
 1079 0376 7E89      		ldd r23,Y+22
 1080 0378 8F89      		ldd r24,Y+23
 1081 037a 988D      		ldd r25,Y+24
 1082 037c 2BEA      		ldi r18,lo8(0x40aaaaab)
 1083 037e 3AEA      		ldi r19,hi8(0x40aaaaab)
 1084 0380 4AEA      		ldi r20,hlo8(0x40aaaaab)
 1085 0382 50E4      		ldi r21,hhi8(0x40aaaaab)
 1086 0384 0E94 0000 		call __mulsf3
 1087 0388 DC01      		movw r26,r24
 1088 038a CB01      		movw r24,r22
 1089 038c 898B      		std Y+17,r24
 1090 038e 9A8B      		std Y+18,r25
 1091 0390 AB8B      		std Y+19,r26
 1092 0392 BC8B      		std Y+20,r27
 1093               	.LM53:
 1094 0394 6989      		ldd r22,Y+17
 1095 0396 7A89      		ldd r23,Y+18
 1096 0398 8B89      		ldd r24,Y+19
 1097 039a 9C89      		ldd r25,Y+20
 1098 039c 20E0      		ldi r18,lo8(0x3f800000)
 1099 039e 30E0      		ldi r19,hi8(0x3f800000)
 1100 03a0 40E8      		ldi r20,hlo8(0x3f800000)
 1101 03a2 5FE3      		ldi r21,hhi8(0x3f800000)
 1102 03a4 0E94 0000 		call __ltsf2
 1103 03a8 8823      		tst r24
 1104 03aa 04F4      		brge .L47
 1105               	.L43:
 1106               	.LM54:
 1107 03ac 81E0      		ldi r24,lo8(1)
 1108 03ae 888B      		std Y+16,r24
 1109 03b0 00C0      		rjmp .L30
 1110               	.L47:
 1111               	.LM55:
 1112 03b2 6989      		ldd r22,Y+17
 1113 03b4 7A89      		ldd r23,Y+18
 1114 03b6 8B89      		ldd r24,Y+19
 1115 03b8 9C89      		ldd r25,Y+20
 1116 03ba 20E0      		ldi r18,lo8(0x437f0000)
 1117 03bc 30E0      		ldi r19,hi8(0x437f0000)
 1118 03be 4FE7      		ldi r20,hlo8(0x437f0000)
 1119 03c0 53E4      		ldi r21,hhi8(0x437f0000)
 1120 03c2 0E94 0000 		call __gtsf2
 1121 03c6 1816      		cp __zero_reg__,r24
 1122 03c8 04F0      		brlt .+2
 1123 03ca 00C0      		rjmp .L48
 1124               	.L44:
 1125               	.LM56:
 1126 03cc 6D89      		ldd r22,Y+21
 1127 03ce 7E89      		ldd r23,Y+22
 1128 03d0 8F89      		ldd r24,Y+23
 1129 03d2 988D      		ldd r25,Y+24
 1130 03d4 20E0      		ldi r18,lo8(0x447a0000)
 1131 03d6 30E0      		ldi r19,hi8(0x447a0000)
 1132 03d8 4AE7      		ldi r20,hlo8(0x447a0000)
 1133 03da 54E4      		ldi r21,hhi8(0x447a0000)
 1134 03dc 0E94 0000 		call __divsf3
 1135 03e0 DC01      		movw r26,r24
 1136 03e2 CB01      		movw r24,r22
 1137 03e4 8C87      		std Y+12,r24
 1138 03e6 9D87      		std Y+13,r25
 1139 03e8 AE87      		std Y+14,r26
 1140 03ea BF87      		std Y+15,r27
 1141               	.LBB14:
 1142               	.LBB15:
 1143               	.LM57:
 1144 03ec 6C85      		ldd r22,Y+12
 1145 03ee 7D85      		ldd r23,Y+13
 1146 03f0 8E85      		ldd r24,Y+14
 1147 03f2 9F85      		ldd r25,Y+15
 1148 03f4 20E0      		ldi r18,lo8(0x457a0000)
 1149 03f6 30E0      		ldi r19,hi8(0x457a0000)
 1150 03f8 4AE7      		ldi r20,hlo8(0x457a0000)
 1151 03fa 55E4      		ldi r21,hhi8(0x457a0000)
 1152 03fc 0E94 0000 		call __mulsf3
 1153 0400 DC01      		movw r26,r24
 1154 0402 CB01      		movw r24,r22
 1155 0404 8887      		std Y+8,r24
 1156 0406 9987      		std Y+9,r25
 1157 0408 AA87      		std Y+10,r26
 1158 040a BB87      		std Y+11,r27
 1159               	.LM58:
 1160 040c 6885      		ldd r22,Y+8
 1161 040e 7985      		ldd r23,Y+9
 1162 0410 8A85      		ldd r24,Y+10
 1163 0412 9B85      		ldd r25,Y+11
 1164 0414 20E0      		ldi r18,lo8(0x3f800000)
 1165 0416 30E0      		ldi r19,hi8(0x3f800000)
 1166 0418 40E8      		ldi r20,hlo8(0x3f800000)
 1167 041a 5FE3      		ldi r21,hhi8(0x3f800000)
 1168 041c 0E94 0000 		call __ltsf2
 1169 0420 8823      		tst r24
 1170 0422 04F4      		brge .L49
 1171               	.L45:
 1172               	.LM59:
 1173 0424 81E0      		ldi r24,lo8(1)
 1174 0426 90E0      		ldi r25,hi8(1)
 1175 0428 9F83      		std Y+7,r25
 1176 042a 8E83      		std Y+6,r24
 1177 042c 00C0      		rjmp .L35
 1178               	.L49:
 1179               	.LM60:
 1180 042e 6885      		ldd r22,Y+8
 1181 0430 7985      		ldd r23,Y+9
 1182 0432 8A85      		ldd r24,Y+10
 1183 0434 9B85      		ldd r25,Y+11
 1184 0436 20E0      		ldi r18,lo8(0x477fff00)
 1185 0438 3FEF      		ldi r19,hi8(0x477fff00)
 1186 043a 4FE7      		ldi r20,hlo8(0x477fff00)
 1187 043c 57E4      		ldi r21,hhi8(0x477fff00)
 1188 043e 0E94 0000 		call __gtsf2
 1189 0442 1816      		cp __zero_reg__,r24
 1190 0444 04F4      		brge .L50
 1191               	.L46:
 1192               	.LM61:
 1193 0446 6C85      		ldd r22,Y+12
 1194 0448 7D85      		ldd r23,Y+13
 1195 044a 8E85      		ldd r24,Y+14
 1196 044c 9F85      		ldd r25,Y+15
 1197 044e 20E0      		ldi r18,lo8(0x41200000)
 1198 0450 30E0      		ldi r19,hi8(0x41200000)
 1199 0452 40E2      		ldi r20,hlo8(0x41200000)
 1200 0454 51E4      		ldi r21,hhi8(0x41200000)
 1201 0456 0E94 0000 		call __mulsf3
 1202 045a DC01      		movw r26,r24
 1203 045c CB01      		movw r24,r22
 1204 045e BC01      		movw r22,r24
 1205 0460 CD01      		movw r24,r26
 1206 0462 0E94 0000 		call __fixunssfsi
 1207 0466 DC01      		movw r26,r24
 1208 0468 CB01      		movw r24,r22
 1209 046a 9F83      		std Y+7,r25
 1210 046c 8E83      		std Y+6,r24
 1211 046e 00C0      		rjmp .L38
 1212               	.L39:
 1213 0470 80E9      		ldi r24,lo8(400)
 1214 0472 91E0      		ldi r25,hi8(400)
 1215 0474 9D83      		std Y+5,r25
 1216 0476 8C83      		std Y+4,r24
 1217               	.LBB16:
 1218               	.LBB17:
 1219               	.LM62:
 1220 0478 8C81      		ldd r24,Y+4
 1221 047a 9D81      		ldd r25,Y+5
 1222               	/* #APP */
 1223               	 ;  105 "d:/work/_programming/avr/winavr/winavr/lib/gcc/../../avr/include/util/delay_basic.h" 1
 1224 047c 0197      		1: sbiw r24,1
 1225 047e 01F4      		brne 1b
 1226               	 ;  0 "" 2
 1227               	/* #NOAPP */
 1228 0480 9D83      		std Y+5,r25
 1229 0482 8C83      		std Y+4,r24
 1230               	.LBE17:
 1231               	.LBE16:
 1232               	.LM63:
 1233 0484 8E81      		ldd r24,Y+6
 1234 0486 9F81      		ldd r25,Y+7
 1235 0488 0197      		sbiw r24,1
 1236 048a 9F83      		std Y+7,r25
 1237 048c 8E83      		std Y+6,r24
 1238               	.L38:
 1239               	.LM64:
 1240 048e 8E81      		ldd r24,Y+6
 1241 0490 9F81      		ldd r25,Y+7
 1242 0492 0097      		sbiw r24,0
 1243 0494 01F4      		brne .L39
 1244 0496 00C0      		rjmp .L42
 1245               	.L50:
 1246               	.LM65:
 1247 0498 6885      		ldd r22,Y+8
 1248 049a 7985      		ldd r23,Y+9
 1249 049c 8A85      		ldd r24,Y+10
 1250 049e 9B85      		ldd r25,Y+11
 1251 04a0 0E94 0000 		call __fixunssfsi
 1252 04a4 DC01      		movw r26,r24
 1253 04a6 CB01      		movw r24,r22
 1254 04a8 9F83      		std Y+7,r25
 1255 04aa 8E83      		std Y+6,r24
 1256               	.L35:
 1257 04ac 8E81      		ldd r24,Y+6
 1258 04ae 9F81      		ldd r25,Y+7
 1259 04b0 9B83      		std Y+3,r25
 1260 04b2 8A83      		std Y+2,r24
 1261               	.LBB18:
 1262               	.LBB19:
 1263               	.LM66:
 1264 04b4 8A81      		ldd r24,Y+2
 1265 04b6 9B81      		ldd r25,Y+3
 1266               	/* #APP */
 1267               	 ;  105 "d:/work/_programming/avr/winavr/winavr/lib/gcc/../../avr/include/util/delay_basic.h" 1
 1268 04b8 0197      		1: sbiw r24,1
 1269 04ba 01F4      		brne 1b
 1270               	 ;  0 "" 2
 1271               	/* #NOAPP */
 1272 04bc 9B83      		std Y+3,r25
 1273 04be 8A83      		std Y+2,r24
 1274 04c0 00C0      		rjmp .L42
 1275               	.L48:
 1276               	.LBE19:
 1277               	.LBE18:
 1278               	.LBE15:
 1279               	.LBE14:
 1280               	.LM67:
 1281 04c2 6989      		ldd r22,Y+17
 1282 04c4 7A89      		ldd r23,Y+18
 1283 04c6 8B89      		ldd r24,Y+19
 1284 04c8 9C89      		ldd r25,Y+20
 1285 04ca 0E94 0000 		call __fixunssfsi
 1286 04ce DC01      		movw r26,r24
 1287 04d0 CB01      		movw r24,r22
 1288 04d2 888B      		std Y+16,r24
 1289               	.L30:
 1290 04d4 8889      		ldd r24,Y+16
 1291 04d6 8983      		std Y+1,r24
 1292               	.LBB20:
 1293               	.LBB21:
 1294               	.LM68:
 1295 04d8 8981      		ldd r24,Y+1
 1296               	/* #APP */
 1297               	 ;  83 "d:/work/_programming/avr/winavr/winavr/lib/gcc/../../avr/include/util/delay_basic.h" 1
 1298 04da 8A95      		1: dec r24
 1299 04dc 01F4      		brne 1b
 1300               	 ;  0 "" 2
 1301               	/* #NOAPP */
 1302 04de 8983      		std Y+1,r24
 1303               	.L42:
 1304               	/* epilogue start */
 1305               	.LBE21:
 1306               	.LBE20:
 1307               	.LBE13:
 1308               	.LBE12:
 1309               	.LM69:
 1310 04e0 6896      		adiw r28,24
 1311 04e2 0FB6      		in __tmp_reg__,__SREG__
 1312 04e4 F894      		cli
 1313 04e6 DEBF      		out __SP_H__,r29
 1314 04e8 0FBE      		out __SREG__,__tmp_reg__
 1315 04ea CDBF      		out __SP_L__,r28
 1316 04ec CF91      		pop r28
 1317 04ee DF91      		pop r29
 1318 04f0 0895      		ret
 1319               	.LFE12:
 1321               	.global	lcd_write_command
 1323               	lcd_write_command:
 1324               	.LFB13:
 1325               	.LM70:
 1326 04f2 DF93      		push r29
 1327 04f4 CF93      		push r28
 1328 04f6 00D0      		rcall .
 1329 04f8 CDB7      		in r28,__SP_L__
 1330 04fa DEB7      		in r29,__SP_H__
 1331               	/* prologue: function */
 1332               	/* frame size = 2 */
 1333 04fc 8983      		std Y+1,r24
 1334 04fe 6A83      		std Y+2,r22
 1335               	.LM71:
 1336 0500 0E94 0000 		call lcd_wait_busy
 1337               	.LM72:
 1338 0504 A2E2      		ldi r26,lo8(34)
 1339 0506 B0E0      		ldi r27,hi8(34)
 1340 0508 E2E2      		ldi r30,lo8(34)
 1341 050a F0E0      		ldi r31,hi8(34)
 1342 050c 8081      		ld r24,Z
 1343 050e 8F7D      		andi r24,lo8(-33)
 1344 0510 8C93      		st X,r24
 1345               	.LM73:
 1346 0512 A2E2      		ldi r26,lo8(34)
 1347 0514 B0E0      		ldi r27,hi8(34)
 1348 0516 E2E2      		ldi r30,lo8(34)
 1349 0518 F0E0      		ldi r31,hi8(34)
 1350 051a 8081      		ld r24,Z
 1351 051c 8068      		ori r24,lo8(-128)
 1352 051e 8C93      		st X,r24
 1353               	.LM74:
 1354 0520 E8E2      		ldi r30,lo8(40)
 1355 0522 F0E0      		ldi r31,hi8(40)
 1356 0524 8981      		ldd r24,Y+1
 1357 0526 8F70      		andi r24,lo8(15)
 1358 0528 8083      		st Z,r24
 1359               	.LM75:
 1360               	/* #APP */
 1361               	 ;  78 "lib/LC7981.c" 1
 1362 052a 0000      		nop;
 1363               	 ;  0 "" 2
 1364               	 ;  78 "lib/LC7981.c" 1
 1365 052c 0000      		nop;
 1366               	 ;  0 "" 2
 1367               	 ;  78 "lib/LC7981.c" 1
 1368 052e 0000      		nop;
 1369               	 ;  0 "" 2
 1370               	.LM76:
 1371               	 ;  79 "lib/LC7981.c" 1
 1372 0530 0000      		nop;
 1373               	 ;  0 "" 2
 1374               	 ;  79 "lib/LC7981.c" 1
 1375 0532 0000      		nop;
 1376               	 ;  0 "" 2
 1377               	 ;  79 "lib/LC7981.c" 1
 1378 0534 0000      		nop;
 1379               	 ;  0 "" 2
 1380               	.LM77:
 1381               	/* #NOAPP */
 1382 0536 0E94 0000 		call lcd_strobe_enable
 1383               	.LM78:
 1384               	/* #APP */
 1385               	 ;  81 "lib/LC7981.c" 1
 1386 053a 0000      		nop;
 1387               	 ;  0 "" 2
 1388               	 ;  81 "lib/LC7981.c" 1
 1389 053c 0000      		nop;
 1390               	 ;  0 "" 2
 1391               	 ;  81 "lib/LC7981.c" 1
 1392 053e 0000      		nop;
 1393               	 ;  0 "" 2
 1394               	.LM79:
 1395               	 ;  82 "lib/LC7981.c" 1
 1396 0540 0000      		nop;
 1397               	 ;  0 "" 2
 1398               	 ;  82 "lib/LC7981.c" 1
 1399 0542 0000      		nop;
 1400               	 ;  0 "" 2
 1401               	 ;  82 "lib/LC7981.c" 1
 1402 0544 0000      		nop;
 1403               	 ;  0 "" 2
 1404               	.LM80:
 1405               	/* #NOAPP */
 1406 0546 A2E2      		ldi r26,lo8(34)
 1407 0548 B0E0      		ldi r27,hi8(34)
 1408 054a E2E2      		ldi r30,lo8(34)
 1409 054c F0E0      		ldi r31,hi8(34)
 1410 054e 8081      		ld r24,Z
 1411 0550 8F7D      		andi r24,lo8(-33)
 1412 0552 8C93      		st X,r24
 1413               	.LM81:
 1414 0554 A2E2      		ldi r26,lo8(34)
 1415 0556 B0E0      		ldi r27,hi8(34)
 1416 0558 E2E2      		ldi r30,lo8(34)
 1417 055a F0E0      		ldi r31,hi8(34)
 1418 055c 8081      		ld r24,Z
 1419 055e 8F77      		andi r24,lo8(127)
 1420 0560 8C93      		st X,r24
 1421               	.LM82:
 1422 0562 E8E2      		ldi r30,lo8(40)
 1423 0564 F0E0      		ldi r31,hi8(40)
 1424 0566 8A81      		ldd r24,Y+2
 1425 0568 8083      		st Z,r24
 1426               	.LM83:
 1427               	/* #APP */
 1428               	 ;  88 "lib/LC7981.c" 1
 1429 056a 0000      		nop;
 1430               	 ;  0 "" 2
 1431               	 ;  88 "lib/LC7981.c" 1
 1432 056c 0000      		nop;
 1433               	 ;  0 "" 2
 1434               	 ;  88 "lib/LC7981.c" 1
 1435 056e 0000      		nop;
 1436               	 ;  0 "" 2
 1437               	.LM84:
 1438               	 ;  89 "lib/LC7981.c" 1
 1439 0570 0000      		nop;
 1440               	 ;  0 "" 2
 1441               	 ;  89 "lib/LC7981.c" 1
 1442 0572 0000      		nop;
 1443               	 ;  0 "" 2
 1444               	 ;  89 "lib/LC7981.c" 1
 1445 0574 0000      		nop;
 1446               	 ;  0 "" 2
 1447               	.LM85:
 1448               	/* #NOAPP */
 1449 0576 0E94 0000 		call lcd_strobe_enable
 1450               	.LM86:
 1451               	/* #APP */
 1452               	 ;  91 "lib/LC7981.c" 1
 1453 057a 0000      		nop;
 1454               	 ;  0 "" 2
 1455               	 ;  91 "lib/LC7981.c" 1
 1456 057c 0000      		nop;
 1457               	 ;  0 "" 2
 1458               	 ;  91 "lib/LC7981.c" 1
 1459 057e 0000      		nop;
 1460               	 ;  0 "" 2
 1461               	.LM87:
 1462               	 ;  92 "lib/LC7981.c" 1
 1463 0580 0000      		nop;
 1464               	 ;  0 "" 2
 1465               	 ;  92 "lib/LC7981.c" 1
 1466 0582 0000      		nop;
 1467               	 ;  0 "" 2
 1468               	 ;  92 "lib/LC7981.c" 1
 1469 0584 0000      		nop;
 1470               	 ;  0 "" 2
 1471               	/* epilogue start */
 1472               	.LM88:
 1473               	/* #NOAPP */
 1474 0586 0F90      		pop __tmp_reg__
 1475 0588 0F90      		pop __tmp_reg__
 1476 058a CF91      		pop r28
 1477 058c DF91      		pop r29
 1478 058e 0895      		ret
 1479               	.LFE13:
 1481               	.global	lcd_graphics_init
 1483               	lcd_graphics_init:
 1484               	.LFB14:
 1485               	.LM89:
 1486 0590 DF93      		push r29
 1487 0592 CF93      		push r28
 1488 0594 0F92      		push __tmp_reg__
 1489 0596 CDB7      		in r28,__SP_L__
 1490 0598 DEB7      		in r29,__SP_H__
 1491               	/* prologue: function */
 1492               	/* frame size = 1 */
 1493               	.LM90:
 1494 059a E7E2      		ldi r30,lo8(39)
 1495 059c F0E0      		ldi r31,hi8(39)
 1496 059e 8FEF      		ldi r24,lo8(-1)
 1497 05a0 8083      		st Z,r24
 1498               	.LM91:
 1499 05a2 A1E2      		ldi r26,lo8(33)
 1500 05a4 B0E0      		ldi r27,hi8(33)
 1501 05a6 E1E2      		ldi r30,lo8(33)
 1502 05a8 F0E0      		ldi r31,hi8(33)
 1503 05aa 8081      		ld r24,Z
 1504 05ac 806E      		ori r24,lo8(-32)
 1505 05ae 8C93      		st X,r24
 1506               	.LM92:
 1507 05b0 A2E2      		ldi r26,lo8(34)
 1508 05b2 B0E0      		ldi r27,hi8(34)
 1509 05b4 E2E2      		ldi r30,lo8(34)
 1510 05b6 F0E0      		ldi r31,hi8(34)
 1511 05b8 8081      		ld r24,Z
 1512 05ba 8F7D      		andi r24,lo8(-33)
 1513 05bc 8C93      		st X,r24
 1514               	.LM93:
 1515 05be A2E2      		ldi r26,lo8(34)
 1516 05c0 B0E0      		ldi r27,hi8(34)
 1517 05c2 E2E2      		ldi r30,lo8(34)
 1518 05c4 F0E0      		ldi r31,hi8(34)
 1519 05c6 8081      		ld r24,Z
 1520 05c8 8F77      		andi r24,lo8(127)
 1521 05ca 8C93      		st X,r24
 1522               	.LM94:
 1523 05cc A2E2      		ldi r26,lo8(34)
 1524 05ce B0E0      		ldi r27,hi8(34)
 1525 05d0 E2E2      		ldi r30,lo8(34)
 1526 05d2 F0E0      		ldi r31,hi8(34)
 1527 05d4 8081      		ld r24,Z
 1528 05d6 8F7B      		andi r24,lo8(-65)
 1529 05d8 8C93      		st X,r24
 1530               	.LM95:
 1531 05da 82E3      		ldi r24,lo8(50)
 1532 05dc 8983      		std Y+1,r24
 1533               	.LM96:
 1534 05de 80E0      		ldi r24,lo8(0)
 1535 05e0 6981      		ldd r22,Y+1
 1536 05e2 0E94 0000 		call lcd_write_command
 1537               	.LM97:
 1538 05e6 87E0      		ldi r24,lo8(7)
 1539 05e8 8983      		std Y+1,r24
 1540               	.LM98:
 1541 05ea 81E0      		ldi r24,lo8(1)
 1542 05ec 6981      		ldd r22,Y+1
 1543 05ee 0E94 0000 		call lcd_write_command
 1544               	.LM99:
 1545 05f2 83E1      		ldi r24,lo8(19)
 1546 05f4 8983      		std Y+1,r24
 1547               	.LM100:
 1548 05f6 82E0      		ldi r24,lo8(2)
 1549 05f8 6981      		ldd r22,Y+1
 1550 05fa 0E94 0000 		call lcd_write_command
 1551               	.LM101:
 1552 05fe 8FE7      		ldi r24,lo8(127)
 1553 0600 8983      		std Y+1,r24
 1554               	.LM102:
 1555 0602 83E0      		ldi r24,lo8(3)
 1556 0604 6981      		ldd r22,Y+1
 1557 0606 0E94 0000 		call lcd_write_command
 1558               	.LM103:
 1559 060a 1982      		std Y+1,__zero_reg__
 1560               	.LM104:
 1561 060c 88E0      		ldi r24,lo8(8)
 1562 060e 6981      		ldd r22,Y+1
 1563 0610 0E94 0000 		call lcd_write_command
 1564               	.LM105:
 1565 0614 89E0      		ldi r24,lo8(9)
 1566 0616 6981      		ldd r22,Y+1
 1567 0618 0E94 0000 		call lcd_write_command
 1568               	.LM106:
 1569 061c 1982      		std Y+1,__zero_reg__
 1570               	.LM107:
 1571 061e 8AE0      		ldi r24,lo8(10)
 1572 0620 6981      		ldd r22,Y+1
 1573 0622 0E94 0000 		call lcd_write_command
 1574               	.LM108:
 1575 0626 8BE0      		ldi r24,lo8(11)
 1576 0628 6981      		ldd r22,Y+1
 1577 062a 0E94 0000 		call lcd_write_command
 1578               	/* epilogue start */
 1579               	.LM109:
 1580 062e 0F90      		pop __tmp_reg__
 1581 0630 CF91      		pop r28
 1582 0632 DF91      		pop r29
 1583 0634 0895      		ret
 1584               	.LFE14:
 1586               	.global	lcd_graphics_move
 1588               	lcd_graphics_move:
 1589               	.LFB15:
 1590               	.LM110:
 1591 0636 DF93      		push r29
 1592 0638 CF93      		push r28
 1593 063a 00D0      		rcall .
 1594 063c 00D0      		rcall .
 1595 063e 00D0      		rcall .
 1596 0640 CDB7      		in r28,__SP_L__
 1597 0642 DEB7      		in r29,__SP_H__
 1598               	/* prologue: function */
 1599               	/* frame size = 6 */
 1600 0644 9C83      		std Y+4,r25
 1601 0646 8B83      		std Y+3,r24
 1602 0648 7E83      		std Y+6,r23
 1603 064a 6D83      		std Y+5,r22
 1604               	.LM111:
 1605 064c 2D81      		ldd r18,Y+5
 1606 064e 3E81      		ldd r19,Y+6
 1607 0650 80EA      		ldi r24,lo8(160)
 1608 0652 90E0      		ldi r25,hi8(160)
 1609 0654 A901      		movw r20,r18
 1610 0656 489F      		mul r20,r24
 1611 0658 9001      		movw r18,r0
 1612 065a 499F      		mul r20,r25
 1613 065c 300D      		add r19,r0
 1614 065e 589F      		mul r21,r24
 1615 0660 300D      		add r19,r0
 1616 0662 1124      		clr r1
 1617 0664 8B81      		ldd r24,Y+3
 1618 0666 9C81      		ldd r25,Y+4
 1619 0668 820F      		add r24,r18
 1620 066a 931F      		adc r25,r19
 1621 066c 9695      		lsr r25
 1622 066e 8795      		ror r24
 1623 0670 9695      		lsr r25
 1624 0672 8795      		ror r24
 1625 0674 9695      		lsr r25
 1626 0676 8795      		ror r24
 1627 0678 9A83      		std Y+2,r25
 1628 067a 8983      		std Y+1,r24
 1629               	.LM112:
 1630 067c 9981      		ldd r25,Y+1
 1631 067e 8AE0      		ldi r24,lo8(10)
 1632 0680 692F      		mov r22,r25
 1633 0682 0E94 0000 		call lcd_write_command
 1634               	.LM113:
 1635 0686 8981      		ldd r24,Y+1
 1636 0688 9A81      		ldd r25,Y+2
 1637 068a 892F      		mov r24,r25
 1638 068c 9927      		clr r25
 1639 068e 982F      		mov r25,r24
 1640 0690 8BE0      		ldi r24,lo8(11)
 1641 0692 692F      		mov r22,r25
 1642 0694 0E94 0000 		call lcd_write_command
 1643               	/* epilogue start */
 1644               	.LM114:
 1645 0698 2696      		adiw r28,6
 1646 069a 0FB6      		in __tmp_reg__,__SREG__
 1647 069c F894      		cli
 1648 069e DEBF      		out __SP_H__,r29
 1649 06a0 0FBE      		out __SREG__,__tmp_reg__
 1650 06a2 CDBF      		out __SP_L__,r28
 1651 06a4 CF91      		pop r28
 1652 06a6 DF91      		pop r29
 1653 06a8 0895      		ret
 1654               	.LFE15:
 1656               	.global	lcd_graphics_draw_byte
 1658               	lcd_graphics_draw_byte:
 1659               	.LFB16:
 1660               	.LM115:
 1661 06aa DF93      		push r29
 1662 06ac CF93      		push r28
 1663 06ae 0F92      		push __tmp_reg__
 1664 06b0 CDB7      		in r28,__SP_L__
 1665 06b2 DEB7      		in r29,__SP_H__
 1666               	/* prologue: function */
 1667               	/* frame size = 1 */
 1668 06b4 8983      		std Y+1,r24
 1669               	.LM116:
 1670 06b6 8CE0      		ldi r24,lo8(12)
 1671 06b8 6981      		ldd r22,Y+1
 1672 06ba 0E94 0000 		call lcd_write_command
 1673               	/* epilogue start */
 1674               	.LM117:
 1675 06be 0F90      		pop __tmp_reg__
 1676 06c0 CF91      		pop r28
 1677 06c2 DF91      		pop r29
 1678 06c4 0895      		ret
 1679               	.LFE16:
 1681               	.global	lcd_graphics_plot_byte
 1683               	lcd_graphics_plot_byte:
 1684               	.LFB17:
 1685               	.LM118:
 1686 06c6 DF93      		push r29
 1687 06c8 CF93      		push r28
 1688 06ca 00D0      		rcall .
 1689 06cc 00D0      		rcall .
 1690 06ce 0F92      		push __tmp_reg__
 1691 06d0 CDB7      		in r28,__SP_L__
 1692 06d2 DEB7      		in r29,__SP_H__
 1693               	/* prologue: function */
 1694               	/* frame size = 5 */
 1695 06d4 9A83      		std Y+2,r25
 1696 06d6 8983      		std Y+1,r24
 1697 06d8 7C83      		std Y+4,r23
 1698 06da 6B83      		std Y+3,r22
 1699 06dc 4D83      		std Y+5,r20
 1700               	.LM119:
 1701 06de 8981      		ldd r24,Y+1
 1702 06e0 9A81      		ldd r25,Y+2
 1703 06e2 2B81      		ldd r18,Y+3
 1704 06e4 3C81      		ldd r19,Y+4
 1705 06e6 B901      		movw r22,r18
 1706 06e8 0E94 0000 		call lcd_graphics_move
 1707               	.LM120:
 1708 06ec 8D81      		ldd r24,Y+5
 1709 06ee 0E94 0000 		call lcd_graphics_draw_byte
 1710               	/* epilogue start */
 1711               	.LM121:
 1712 06f2 0F90      		pop __tmp_reg__
 1713 06f4 0F90      		pop __tmp_reg__
 1714 06f6 0F90      		pop __tmp_reg__
 1715 06f8 0F90      		pop __tmp_reg__
 1716 06fa 0F90      		pop __tmp_reg__
 1717 06fc CF91      		pop r28
 1718 06fe DF91      		pop r29
 1719 0700 0895      		ret
 1720               	.LFE17:
 1722               	.global	lcd_graphics_plot_pixel
 1724               	lcd_graphics_plot_pixel:
 1725               	.LFB18:
 1726               	.LM122:
 1727 0702 DF93      		push r29
 1728 0704 CF93      		push r28
 1729 0706 00D0      		rcall .
 1730 0708 00D0      		rcall .
 1731 070a 00D0      		rcall .
 1732 070c CDB7      		in r28,__SP_L__
 1733 070e DEB7      		in r29,__SP_H__
 1734               	/* prologue: function */
 1735               	/* frame size = 6 */
 1736 0710 9B83      		std Y+3,r25
 1737 0712 8A83      		std Y+2,r24
 1738 0714 7D83      		std Y+5,r23
 1739 0716 6C83      		std Y+4,r22
 1740 0718 4E83      		std Y+6,r20
 1741               	.LM123:
 1742 071a 8A81      		ldd r24,Y+2
 1743 071c 9B81      		ldd r25,Y+3
 1744 071e 2C81      		ldd r18,Y+4
 1745 0720 3D81      		ldd r19,Y+5
 1746 0722 B901      		movw r22,r18
 1747 0724 0E94 0000 		call lcd_graphics_move
 1748               	.LM124:
 1749 0728 8A81      		ldd r24,Y+2
 1750 072a 8770      		andi r24,lo8(7)
 1751 072c 8983      		std Y+1,r24
 1752               	.LM125:
 1753 072e 8E81      		ldd r24,Y+6
 1754 0730 8F3F      		cpi r24,lo8(-1)
 1755 0732 01F4      		brne .L62
 1756               	.LM126:
 1757 0734 8FE0      		ldi r24,lo8(15)
 1758 0736 6981      		ldd r22,Y+1
 1759 0738 0E94 0000 		call lcd_write_command
 1760 073c 00C0      		rjmp .L64
 1761               	.L62:
 1762               	.LM127:
 1763 073e 8EE0      		ldi r24,lo8(14)
 1764 0740 6981      		ldd r22,Y+1
 1765 0742 0E94 0000 		call lcd_write_command
 1766               	.L64:
 1767               	/* epilogue start */
 1768               	.LM128:
 1769 0746 2696      		adiw r28,6
 1770 0748 0FB6      		in __tmp_reg__,__SREG__
 1771 074a F894      		cli
 1772 074c DEBF      		out __SP_H__,r29
 1773 074e 0FBE      		out __SREG__,__tmp_reg__
 1774 0750 CDBF      		out __SP_L__,r28
 1775 0752 CF91      		pop r28
 1776 0754 DF91      		pop r29
 1777 0756 0895      		ret
 1778               	.LFE18:
 1780               	.global	lcd_graphics_clear
 1782               	lcd_graphics_clear:
 1783               	.LFB19:
 1784               	.LM129:
 1785 0758 DF93      		push r29
 1786 075a CF93      		push r28
 1787 075c 00D0      		rcall .
 1788 075e CDB7      		in r28,__SP_L__
 1789 0760 DEB7      		in r29,__SP_H__
 1790               	/* prologue: function */
 1791               	/* frame size = 2 */
 1792               	.LM130:
 1793 0762 80E0      		ldi r24,lo8(0)
 1794 0764 90E0      		ldi r25,hi8(0)
 1795 0766 60E0      		ldi r22,lo8(0)
 1796 0768 70E0      		ldi r23,hi8(0)
 1797 076a 0E94 0000 		call lcd_graphics_move
 1798               	.LM131:
 1799 076e 1A82      		std Y+2,__zero_reg__
 1800 0770 1982      		std Y+1,__zero_reg__
 1801 0772 00C0      		rjmp .L66
 1802               	.L67:
 1803               	.LM132:
 1804 0774 80E0      		ldi r24,lo8(0)
 1805 0776 0E94 0000 		call lcd_graphics_draw_byte
 1806               	.LM133:
 1807 077a 8981      		ldd r24,Y+1
 1808 077c 9A81      		ldd r25,Y+2
 1809 077e 0196      		adiw r24,1
 1810 0780 9A83      		std Y+2,r25
 1811 0782 8983      		std Y+1,r24
 1812               	.L66:
 1813 0784 8981      		ldd r24,Y+1
 1814 0786 9A81      		ldd r25,Y+2
 1815 0788 26E0      		ldi r18,hi8(1600)
 1816 078a 8034      		cpi r24,lo8(1600)
 1817 078c 9207      		cpc r25,r18
 1818 078e 00F0      		brlo .L67
 1819               	/* epilogue start */
 1820               	.LM134:
 1821 0790 0F90      		pop __tmp_reg__
 1822 0792 0F90      		pop __tmp_reg__
 1823 0794 CF91      		pop r28
 1824 0796 DF91      		pop r29
 1825 0798 0895      		ret
 1826               	.LFE19:
 1828               	.global	delay_ms_long
 1830               	delay_ms_long:
 1831               	.LFB20:
 1832               	.LM135:
 1833 079a DF93      		push r29
 1834 079c CF93      		push r28
 1835 079e CDB7      		in r28,__SP_L__
 1836 07a0 DEB7      		in r29,__SP_H__
 1837 07a2 6097      		sbiw r28,16
 1838 07a4 0FB6      		in __tmp_reg__,__SREG__
 1839 07a6 F894      		cli
 1840 07a8 DEBF      		out __SP_H__,r29
 1841 07aa 0FBE      		out __SREG__,__tmp_reg__
 1842 07ac CDBF      		out __SP_L__,r28
 1843               	/* prologue: function */
 1844               	/* frame size = 16 */
 1845 07ae 988B      		std Y+16,r25
 1846 07b0 8F87      		std Y+15,r24
 1847 07b2 00C0      		rjmp .L70
 1848               	.L79:
 1849               	.LM136:
 1850 07b4 80E0      		ldi r24,lo8(0x3f800000)
 1851 07b6 90E0      		ldi r25,hi8(0x3f800000)
 1852 07b8 A0E8      		ldi r26,hlo8(0x3f800000)
 1853 07ba BFE3      		ldi r27,hhi8(0x3f800000)
 1854 07bc 8B87      		std Y+11,r24
 1855 07be 9C87      		std Y+12,r25
 1856 07c0 AD87      		std Y+13,r26
 1857 07c2 BE87      		std Y+14,r27
 1858               	.LBB28:
 1859               	.LBB29:
 1860               	.LM137:
 1861 07c4 6B85      		ldd r22,Y+11
 1862 07c6 7C85      		ldd r23,Y+12
 1863 07c8 8D85      		ldd r24,Y+13
 1864 07ca 9E85      		ldd r25,Y+14
 1865 07cc 20E0      		ldi r18,lo8(0x457a0000)
 1866 07ce 30E0      		ldi r19,hi8(0x457a0000)
 1867 07d0 4AE7      		ldi r20,hlo8(0x457a0000)
 1868 07d2 55E4      		ldi r21,hhi8(0x457a0000)
 1869 07d4 0E94 0000 		call __mulsf3
 1870 07d8 DC01      		movw r26,r24
 1871 07da CB01      		movw r24,r22
 1872 07dc 8F83      		std Y+7,r24
 1873 07de 9887      		std Y+8,r25
 1874 07e0 A987      		std Y+9,r26
 1875 07e2 BA87      		std Y+10,r27
 1876               	.LM138:
 1877 07e4 6F81      		ldd r22,Y+7
 1878 07e6 7885      		ldd r23,Y+8
 1879 07e8 8985      		ldd r24,Y+9
 1880 07ea 9A85      		ldd r25,Y+10
 1881 07ec 20E0      		ldi r18,lo8(0x3f800000)
 1882 07ee 30E0      		ldi r19,hi8(0x3f800000)
 1883 07f0 40E8      		ldi r20,hlo8(0x3f800000)
 1884 07f2 5FE3      		ldi r21,hhi8(0x3f800000)
 1885 07f4 0E94 0000 		call __ltsf2
 1886 07f8 8823      		tst r24
 1887 07fa 04F4      		brge .L83
 1888               	.L81:
 1889               	.LM139:
 1890 07fc 81E0      		ldi r24,lo8(1)
 1891 07fe 90E0      		ldi r25,hi8(1)
 1892 0800 9E83      		std Y+6,r25
 1893 0802 8D83      		std Y+5,r24
 1894 0804 00C0      		rjmp .L73
 1895               	.L83:
 1896               	.LM140:
 1897 0806 6F81      		ldd r22,Y+7
 1898 0808 7885      		ldd r23,Y+8
 1899 080a 8985      		ldd r24,Y+9
 1900 080c 9A85      		ldd r25,Y+10
 1901 080e 20E0      		ldi r18,lo8(0x477fff00)
 1902 0810 3FEF      		ldi r19,hi8(0x477fff00)
 1903 0812 4FE7      		ldi r20,hlo8(0x477fff00)
 1904 0814 57E4      		ldi r21,hhi8(0x477fff00)
 1905 0816 0E94 0000 		call __gtsf2
 1906 081a 1816      		cp __zero_reg__,r24
 1907 081c 04F4      		brge .L84
 1908               	.L82:
 1909               	.LM141:
 1910 081e 6B85      		ldd r22,Y+11
 1911 0820 7C85      		ldd r23,Y+12
 1912 0822 8D85      		ldd r24,Y+13
 1913 0824 9E85      		ldd r25,Y+14
 1914 0826 20E0      		ldi r18,lo8(0x41200000)
 1915 0828 30E0      		ldi r19,hi8(0x41200000)
 1916 082a 40E2      		ldi r20,hlo8(0x41200000)
 1917 082c 51E4      		ldi r21,hhi8(0x41200000)
 1918 082e 0E94 0000 		call __mulsf3
 1919 0832 DC01      		movw r26,r24
 1920 0834 CB01      		movw r24,r22
 1921 0836 BC01      		movw r22,r24
 1922 0838 CD01      		movw r24,r26
 1923 083a 0E94 0000 		call __fixunssfsi
 1924 083e DC01      		movw r26,r24
 1925 0840 CB01      		movw r24,r22
 1926 0842 9E83      		std Y+6,r25
 1927 0844 8D83      		std Y+5,r24
 1928 0846 00C0      		rjmp .L76
 1929               	.L77:
 1930 0848 80E9      		ldi r24,lo8(400)
 1931 084a 91E0      		ldi r25,hi8(400)
 1932 084c 9C83      		std Y+4,r25
 1933 084e 8B83      		std Y+3,r24
 1934               	.LBB30:
 1935               	.LBB31:
 1936               	.LM142:
 1937 0850 8B81      		ldd r24,Y+3
 1938 0852 9C81      		ldd r25,Y+4
 1939               	/* #APP */
 1940               	 ;  105 "d:/work/_programming/avr/winavr/winavr/lib/gcc/../../avr/include/util/delay_basic.h" 1
 1941 0854 0197      		1: sbiw r24,1
 1942 0856 01F4      		brne 1b
 1943               	 ;  0 "" 2
 1944               	/* #NOAPP */
 1945 0858 9C83      		std Y+4,r25
 1946 085a 8B83      		std Y+3,r24
 1947               	.LBE31:
 1948               	.LBE30:
 1949               	.LM143:
 1950 085c 8D81      		ldd r24,Y+5
 1951 085e 9E81      		ldd r25,Y+6
 1952 0860 0197      		sbiw r24,1
 1953 0862 9E83      		std Y+6,r25
 1954 0864 8D83      		std Y+5,r24
 1955               	.L76:
 1956               	.LM144:
 1957 0866 8D81      		ldd r24,Y+5
 1958 0868 9E81      		ldd r25,Y+6
 1959 086a 0097      		sbiw r24,0
 1960 086c 01F4      		brne .L77
 1961 086e 00C0      		rjmp .L78
 1962               	.L84:
 1963               	.LM145:
 1964 0870 6F81      		ldd r22,Y+7
 1965 0872 7885      		ldd r23,Y+8
 1966 0874 8985      		ldd r24,Y+9
 1967 0876 9A85      		ldd r25,Y+10
 1968 0878 0E94 0000 		call __fixunssfsi
 1969 087c DC01      		movw r26,r24
 1970 087e CB01      		movw r24,r22
 1971 0880 9E83      		std Y+6,r25
 1972 0882 8D83      		std Y+5,r24
 1973               	.L73:
 1974 0884 8D81      		ldd r24,Y+5
 1975 0886 9E81      		ldd r25,Y+6
 1976 0888 9A83      		std Y+2,r25
 1977 088a 8983      		std Y+1,r24
 1978               	.LBB32:
 1979               	.LBB33:
 1980               	.LM146:
 1981 088c 8981      		ldd r24,Y+1
 1982 088e 9A81      		ldd r25,Y+2
 1983               	/* #APP */
 1984               	 ;  105 "d:/work/_programming/avr/winavr/winavr/lib/gcc/../../avr/include/util/delay_basic.h" 1
 1985 0890 0197      		1: sbiw r24,1
 1986 0892 01F4      		brne 1b
 1987               	 ;  0 "" 2
 1988               	/* #NOAPP */
 1989 0894 9A83      		std Y+2,r25
 1990 0896 8983      		std Y+1,r24
 1991               	.L78:
 1992               	.LBE33:
 1993               	.LBE32:
 1994               	.LBE29:
 1995               	.LBE28:
 1996               	.LM147:
 1997 0898 8F85      		ldd r24,Y+15
 1998 089a 9889      		ldd r25,Y+16
 1999 089c 0197      		sbiw r24,1
 2000 089e 988B      		std Y+16,r25
 2001 08a0 8F87      		std Y+15,r24
 2002               	.L70:
 2003 08a2 8F85      		ldd r24,Y+15
 2004 08a4 9889      		ldd r25,Y+16
 2005 08a6 0097      		sbiw r24,0
 2006 08a8 01F0      		breq .+2
 2007 08aa 00C0      		rjmp .L79
 2008               	/* epilogue start */
 2009               	.LM148:
 2010 08ac 6096      		adiw r28,16
 2011 08ae 0FB6      		in __tmp_reg__,__SREG__
 2012 08b0 F894      		cli
 2013 08b2 DEBF      		out __SP_H__,r29
 2014 08b4 0FBE      		out __SREG__,__tmp_reg__
 2015 08b6 CDBF      		out __SP_L__,r28
 2016 08b8 CF91      		pop r28
 2017 08ba DF91      		pop r29
 2018 08bc 0895      		ret
 2019               	.LFE20:
 2021               	.global	draw_frame
 2023               	draw_frame:
 2024               	.LFB21:
 2025               	.LM149:
 2026 08be DF93      		push r29
 2027 08c0 CF93      		push r28
 2028 08c2 CDB7      		in r28,__SP_L__
 2029 08c4 DEB7      		in r29,__SP_H__
 2030               	/* prologue: function */
 2031               	/* frame size = 0 */
 2032               	.LM150:
 2033 08c6 87E0      		ldi r24,lo8(7)
 2034 08c8 90E0      		ldi r25,hi8(7)
 2035 08ca 6AE1      		ldi r22,lo8(26)
 2036 08cc 70E0      		ldi r23,hi8(26)
 2037 08ce 4FEF      		ldi r20,lo8(-1)
 2038 08d0 0E94 0000 		call lcd_graphics_plot_pixel
 2039               	.LM151:
 2040 08d4 87E0      		ldi r24,lo8(7)
 2041 08d6 90E0      		ldi r25,hi8(7)
 2042 08d8 6BE1      		ldi r22,lo8(27)
 2043 08da 70E0      		ldi r23,hi8(27)
 2044 08dc 4FEF      		ldi r20,lo8(-1)
 2045 08de 0E94 0000 		call lcd_graphics_plot_pixel
 2046               	.LM152:
 2047 08e2 87E0      		ldi r24,lo8(7)
 2048 08e4 90E0      		ldi r25,hi8(7)
 2049 08e6 6CE1      		ldi r22,lo8(28)
 2050 08e8 70E0      		ldi r23,hi8(28)
 2051 08ea 4FEF      		ldi r20,lo8(-1)
 2052 08ec 0E94 0000 		call lcd_graphics_plot_pixel
 2053               	.LM153:
 2054 08f0 87E0      		ldi r24,lo8(7)
 2055 08f2 90E0      		ldi r25,hi8(7)
 2056 08f4 6DE1      		ldi r22,lo8(29)
 2057 08f6 70E0      		ldi r23,hi8(29)
 2058 08f8 4FEF      		ldi r20,lo8(-1)
 2059 08fa 0E94 0000 		call lcd_graphics_plot_pixel
 2060               	.LM154:
 2061 08fe 87E0      		ldi r24,lo8(7)
 2062 0900 90E0      		ldi r25,hi8(7)
 2063 0902 6EE1      		ldi r22,lo8(30)
 2064 0904 70E0      		ldi r23,hi8(30)
 2065 0906 4FEF      		ldi r20,lo8(-1)
 2066 0908 0E94 0000 		call lcd_graphics_plot_pixel
 2067               	.LM155:
 2068 090c 87E0      		ldi r24,lo8(7)
 2069 090e 90E0      		ldi r25,hi8(7)
 2070 0910 6FE1      		ldi r22,lo8(31)
 2071 0912 70E0      		ldi r23,hi8(31)
 2072 0914 4FEF      		ldi r20,lo8(-1)
 2073 0916 0E94 0000 		call lcd_graphics_plot_pixel
 2074               	.LM156:
 2075 091a 87E0      		ldi r24,lo8(7)
 2076 091c 90E0      		ldi r25,hi8(7)
 2077 091e 62E2      		ldi r22,lo8(34)
 2078 0920 70E0      		ldi r23,hi8(34)
 2079 0922 4FEF      		ldi r20,lo8(-1)
 2080 0924 0E94 0000 		call lcd_graphics_plot_pixel
 2081               	.LM157:
 2082 0928 87E0      		ldi r24,lo8(7)
 2083 092a 90E0      		ldi r25,hi8(7)
 2084 092c 63E2      		ldi r22,lo8(35)
 2085 092e 70E0      		ldi r23,hi8(35)
 2086 0930 4FEF      		ldi r20,lo8(-1)
 2087 0932 0E94 0000 		call lcd_graphics_plot_pixel
 2088               	.LM158:
 2089 0936 88E0      		ldi r24,lo8(8)
 2090 0938 90E0      		ldi r25,hi8(8)
 2091 093a 6AE1      		ldi r22,lo8(26)
 2092 093c 70E0      		ldi r23,hi8(26)
 2093 093e 4FEF      		ldi r20,lo8(-1)
 2094 0940 0E94 0000 		call lcd_graphics_plot_pixel
 2095               	.LM159:
 2096 0944 88E0      		ldi r24,lo8(8)
 2097 0946 90E0      		ldi r25,hi8(8)
 2098 0948 6BE1      		ldi r22,lo8(27)
 2099 094a 70E0      		ldi r23,hi8(27)
 2100 094c 4FEF      		ldi r20,lo8(-1)
 2101 094e 0E94 0000 		call lcd_graphics_plot_pixel
 2102               	.LM160:
 2103 0952 88E0      		ldi r24,lo8(8)
 2104 0954 90E0      		ldi r25,hi8(8)
 2105 0956 6CE1      		ldi r22,lo8(28)
 2106 0958 70E0      		ldi r23,hi8(28)
 2107 095a 4FEF      		ldi r20,lo8(-1)
 2108 095c 0E94 0000 		call lcd_graphics_plot_pixel
 2109               	.LM161:
 2110 0960 88E0      		ldi r24,lo8(8)
 2111 0962 90E0      		ldi r25,hi8(8)
 2112 0964 6DE1      		ldi r22,lo8(29)
 2113 0966 70E0      		ldi r23,hi8(29)
 2114 0968 4FEF      		ldi r20,lo8(-1)
 2115 096a 0E94 0000 		call lcd_graphics_plot_pixel
 2116               	.LM162:
 2117 096e 88E0      		ldi r24,lo8(8)
 2118 0970 90E0      		ldi r25,hi8(8)
 2119 0972 6EE1      		ldi r22,lo8(30)
 2120 0974 70E0      		ldi r23,hi8(30)
 2121 0976 4FEF      		ldi r20,lo8(-1)
 2122 0978 0E94 0000 		call lcd_graphics_plot_pixel
 2123               	.LM163:
 2124 097c 88E0      		ldi r24,lo8(8)
 2125 097e 90E0      		ldi r25,hi8(8)
 2126 0980 6FE1      		ldi r22,lo8(31)
 2127 0982 70E0      		ldi r23,hi8(31)
 2128 0984 4FEF      		ldi r20,lo8(-1)
 2129 0986 0E94 0000 		call lcd_graphics_plot_pixel
 2130               	.LM164:
 2131 098a 88E0      		ldi r24,lo8(8)
 2132 098c 90E0      		ldi r25,hi8(8)
 2133 098e 62E2      		ldi r22,lo8(34)
 2134 0990 70E0      		ldi r23,hi8(34)
 2135 0992 4FEF      		ldi r20,lo8(-1)
 2136 0994 0E94 0000 		call lcd_graphics_plot_pixel
 2137               	.LM165:
 2138 0998 88E0      		ldi r24,lo8(8)
 2139 099a 90E0      		ldi r25,hi8(8)
 2140 099c 63E2      		ldi r22,lo8(35)
 2141 099e 70E0      		ldi r23,hi8(35)
 2142 09a0 4FEF      		ldi r20,lo8(-1)
 2143 09a2 0E94 0000 		call lcd_graphics_plot_pixel
 2144               	.LM166:
 2145 09a6 89E0      		ldi r24,lo8(9)
 2146 09a8 90E0      		ldi r25,hi8(9)
 2147 09aa 6AE1      		ldi r22,lo8(26)
 2148 09ac 70E0      		ldi r23,hi8(26)
 2149 09ae 4FEF      		ldi r20,lo8(-1)
 2150 09b0 0E94 0000 		call lcd_graphics_plot_pixel
 2151               	.LM167:
 2152 09b4 89E0      		ldi r24,lo8(9)
 2153 09b6 90E0      		ldi r25,hi8(9)
 2154 09b8 6BE1      		ldi r22,lo8(27)
 2155 09ba 70E0      		ldi r23,hi8(27)
 2156 09bc 4FEF      		ldi r20,lo8(-1)
 2157 09be 0E94 0000 		call lcd_graphics_plot_pixel
 2158               	.LM168:
 2159 09c2 89E0      		ldi r24,lo8(9)
 2160 09c4 90E0      		ldi r25,hi8(9)
 2161 09c6 6EE1      		ldi r22,lo8(30)
 2162 09c8 70E0      		ldi r23,hi8(30)
 2163 09ca 4FEF      		ldi r20,lo8(-1)
 2164 09cc 0E94 0000 		call lcd_graphics_plot_pixel
 2165               	.LM169:
 2166 09d0 89E0      		ldi r24,lo8(9)
 2167 09d2 90E0      		ldi r25,hi8(9)
 2168 09d4 6FE1      		ldi r22,lo8(31)
 2169 09d6 70E0      		ldi r23,hi8(31)
 2170 09d8 4FEF      		ldi r20,lo8(-1)
 2171 09da 0E94 0000 		call lcd_graphics_plot_pixel
 2172               	.LM170:
 2173 09de 89E0      		ldi r24,lo8(9)
 2174 09e0 90E0      		ldi r25,hi8(9)
 2175 09e2 62E2      		ldi r22,lo8(34)
 2176 09e4 70E0      		ldi r23,hi8(34)
 2177 09e6 4FEF      		ldi r20,lo8(-1)
 2178 09e8 0E94 0000 		call lcd_graphics_plot_pixel
 2179               	.LM171:
 2180 09ec 89E0      		ldi r24,lo8(9)
 2181 09ee 90E0      		ldi r25,hi8(9)
 2182 09f0 63E2      		ldi r22,lo8(35)
 2183 09f2 70E0      		ldi r23,hi8(35)
 2184 09f4 4FEF      		ldi r20,lo8(-1)
 2185 09f6 0E94 0000 		call lcd_graphics_plot_pixel
 2186               	.LM172:
 2187 09fa 8AE0      		ldi r24,lo8(10)
 2188 09fc 90E0      		ldi r25,hi8(10)
 2189 09fe 6AE1      		ldi r22,lo8(26)
 2190 0a00 70E0      		ldi r23,hi8(26)
 2191 0a02 4FEF      		ldi r20,lo8(-1)
 2192 0a04 0E94 0000 		call lcd_graphics_plot_pixel
 2193               	.LM173:
 2194 0a08 8AE0      		ldi r24,lo8(10)
 2195 0a0a 90E0      		ldi r25,hi8(10)
 2196 0a0c 6BE1      		ldi r22,lo8(27)
 2197 0a0e 70E0      		ldi r23,hi8(27)
 2198 0a10 4FEF      		ldi r20,lo8(-1)
 2199 0a12 0E94 0000 		call lcd_graphics_plot_pixel
 2200               	.LM174:
 2201 0a16 8AE0      		ldi r24,lo8(10)
 2202 0a18 90E0      		ldi r25,hi8(10)
 2203 0a1a 6EE1      		ldi r22,lo8(30)
 2204 0a1c 70E0      		ldi r23,hi8(30)
 2205 0a1e 4FEF      		ldi r20,lo8(-1)
 2206 0a20 0E94 0000 		call lcd_graphics_plot_pixel
 2207               	.LM175:
 2208 0a24 8AE0      		ldi r24,lo8(10)
 2209 0a26 90E0      		ldi r25,hi8(10)
 2210 0a28 6FE1      		ldi r22,lo8(31)
 2211 0a2a 70E0      		ldi r23,hi8(31)
 2212 0a2c 4FEF      		ldi r20,lo8(-1)
 2213 0a2e 0E94 0000 		call lcd_graphics_plot_pixel
 2214               	.LM176:
 2215 0a32 8AE0      		ldi r24,lo8(10)
 2216 0a34 90E0      		ldi r25,hi8(10)
 2217 0a36 62E2      		ldi r22,lo8(34)
 2218 0a38 70E0      		ldi r23,hi8(34)
 2219 0a3a 4FEF      		ldi r20,lo8(-1)
 2220 0a3c 0E94 0000 		call lcd_graphics_plot_pixel
 2221               	.LM177:
 2222 0a40 8AE0      		ldi r24,lo8(10)
 2223 0a42 90E0      		ldi r25,hi8(10)
 2224 0a44 63E2      		ldi r22,lo8(35)
 2225 0a46 70E0      		ldi r23,hi8(35)
 2226 0a48 4FEF      		ldi r20,lo8(-1)
 2227 0a4a 0E94 0000 		call lcd_graphics_plot_pixel
 2228               	.LM178:
 2229 0a4e 8BE0      		ldi r24,lo8(11)
 2230 0a50 90E0      		ldi r25,hi8(11)
 2231 0a52 6AE1      		ldi r22,lo8(26)
 2232 0a54 70E0      		ldi r23,hi8(26)
 2233 0a56 4FEF      		ldi r20,lo8(-1)
 2234 0a58 0E94 0000 		call lcd_graphics_plot_pixel
 2235               	.LM179:
 2236 0a5c 8BE0      		ldi r24,lo8(11)
 2237 0a5e 90E0      		ldi r25,hi8(11)
 2238 0a60 6BE1      		ldi r22,lo8(27)
 2239 0a62 70E0      		ldi r23,hi8(27)
 2240 0a64 4FEF      		ldi r20,lo8(-1)
 2241 0a66 0E94 0000 		call lcd_graphics_plot_pixel
 2242               	.LM180:
 2243 0a6a 8BE0      		ldi r24,lo8(11)
 2244 0a6c 90E0      		ldi r25,hi8(11)
 2245 0a6e 6EE1      		ldi r22,lo8(30)
 2246 0a70 70E0      		ldi r23,hi8(30)
 2247 0a72 4FEF      		ldi r20,lo8(-1)
 2248 0a74 0E94 0000 		call lcd_graphics_plot_pixel
 2249               	.LM181:
 2250 0a78 8BE0      		ldi r24,lo8(11)
 2251 0a7a 90E0      		ldi r25,hi8(11)
 2252 0a7c 6FE1      		ldi r22,lo8(31)
 2253 0a7e 70E0      		ldi r23,hi8(31)
 2254 0a80 4FEF      		ldi r20,lo8(-1)
 2255 0a82 0E94 0000 		call lcd_graphics_plot_pixel
 2256               	.LM182:
 2257 0a86 8BE0      		ldi r24,lo8(11)
 2258 0a88 90E0      		ldi r25,hi8(11)
 2259 0a8a 62E2      		ldi r22,lo8(34)
 2260 0a8c 70E0      		ldi r23,hi8(34)
 2261 0a8e 4FEF      		ldi r20,lo8(-1)
 2262 0a90 0E94 0000 		call lcd_graphics_plot_pixel
 2263               	.LM183:
 2264 0a94 8BE0      		ldi r24,lo8(11)
 2265 0a96 90E0      		ldi r25,hi8(11)
 2266 0a98 63E2      		ldi r22,lo8(35)
 2267 0a9a 70E0      		ldi r23,hi8(35)
 2268 0a9c 4FEF      		ldi r20,lo8(-1)
 2269 0a9e 0E94 0000 		call lcd_graphics_plot_pixel
 2270               	.LM184:
 2271 0aa2 8BE0      		ldi r24,lo8(11)
 2272 0aa4 90E0      		ldi r25,hi8(11)
 2273 0aa6 6EE2      		ldi r22,lo8(46)
 2274 0aa8 70E0      		ldi r23,hi8(46)
 2275 0aaa 4FEF      		ldi r20,lo8(-1)
 2276 0aac 0E94 0000 		call lcd_graphics_plot_pixel
 2277               	.LM185:
 2278 0ab0 8BE0      		ldi r24,lo8(11)
 2279 0ab2 90E0      		ldi r25,hi8(11)
 2280 0ab4 6FE2      		ldi r22,lo8(47)
 2281 0ab6 70E0      		ldi r23,hi8(47)
 2282 0ab8 4FEF      		ldi r20,lo8(-1)
 2283 0aba 0E94 0000 		call lcd_graphics_plot_pixel
 2284               	.LM186:
 2285 0abe 8BE0      		ldi r24,lo8(11)
 2286 0ac0 90E0      		ldi r25,hi8(11)
 2287 0ac2 60E3      		ldi r22,lo8(48)
 2288 0ac4 70E0      		ldi r23,hi8(48)
 2289 0ac6 4FEF      		ldi r20,lo8(-1)
 2290 0ac8 0E94 0000 		call lcd_graphics_plot_pixel
 2291               	.LM187:
 2292 0acc 8BE0      		ldi r24,lo8(11)
 2293 0ace 90E0      		ldi r25,hi8(11)
 2294 0ad0 61E3      		ldi r22,lo8(49)
 2295 0ad2 70E0      		ldi r23,hi8(49)
 2296 0ad4 4FEF      		ldi r20,lo8(-1)
 2297 0ad6 0E94 0000 		call lcd_graphics_plot_pixel
 2298               	.LM188:
 2299 0ada 8BE0      		ldi r24,lo8(11)
 2300 0adc 90E0      		ldi r25,hi8(11)
 2301 0ade 62E3      		ldi r22,lo8(50)
 2302 0ae0 70E0      		ldi r23,hi8(50)
 2303 0ae2 4FEF      		ldi r20,lo8(-1)
 2304 0ae4 0E94 0000 		call lcd_graphics_plot_pixel
 2305               	.LM189:
 2306 0ae8 8BE0      		ldi r24,lo8(11)
 2307 0aea 90E0      		ldi r25,hi8(11)
 2308 0aec 63E3      		ldi r22,lo8(51)
 2309 0aee 70E0      		ldi r23,hi8(51)
 2310 0af0 4FEF      		ldi r20,lo8(-1)
 2311 0af2 0E94 0000 		call lcd_graphics_plot_pixel
 2312               	.LM190:
 2313 0af6 8BE0      		ldi r24,lo8(11)
 2314 0af8 90E0      		ldi r25,hi8(11)
 2315 0afa 64E3      		ldi r22,lo8(52)
 2316 0afc 70E0      		ldi r23,hi8(52)
 2317 0afe 4FEF      		ldi r20,lo8(-1)
 2318 0b00 0E94 0000 		call lcd_graphics_plot_pixel
 2319               	.LM191:
 2320 0b04 8BE0      		ldi r24,lo8(11)
 2321 0b06 90E0      		ldi r25,hi8(11)
 2322 0b08 65E3      		ldi r22,lo8(53)
 2323 0b0a 70E0      		ldi r23,hi8(53)
 2324 0b0c 4FEF      		ldi r20,lo8(-1)
 2325 0b0e 0E94 0000 		call lcd_graphics_plot_pixel
 2326               	.LM192:
 2327 0b12 8BE0      		ldi r24,lo8(11)
 2328 0b14 90E0      		ldi r25,hi8(11)
 2329 0b16 66E3      		ldi r22,lo8(54)
 2330 0b18 70E0      		ldi r23,hi8(54)
 2331 0b1a 4FEF      		ldi r20,lo8(-1)
 2332 0b1c 0E94 0000 		call lcd_graphics_plot_pixel
 2333               	.LM193:
 2334 0b20 8BE0      		ldi r24,lo8(11)
 2335 0b22 90E0      		ldi r25,hi8(11)
 2336 0b24 67E3      		ldi r22,lo8(55)
 2337 0b26 70E0      		ldi r23,hi8(55)
 2338 0b28 4FEF      		ldi r20,lo8(-1)
 2339 0b2a 0E94 0000 		call lcd_graphics_plot_pixel
 2340               	.LM194:
 2341 0b2e 8CE0      		ldi r24,lo8(12)
 2342 0b30 90E0      		ldi r25,hi8(12)
 2343 0b32 6AE1      		ldi r22,lo8(26)
 2344 0b34 70E0      		ldi r23,hi8(26)
 2345 0b36 4FEF      		ldi r20,lo8(-1)
 2346 0b38 0E94 0000 		call lcd_graphics_plot_pixel
 2347               	.LM195:
 2348 0b3c 8CE0      		ldi r24,lo8(12)
 2349 0b3e 90E0      		ldi r25,hi8(12)
 2350 0b40 6BE1      		ldi r22,lo8(27)
 2351 0b42 70E0      		ldi r23,hi8(27)
 2352 0b44 4FEF      		ldi r20,lo8(-1)
 2353 0b46 0E94 0000 		call lcd_graphics_plot_pixel
 2354               	.LM196:
 2355 0b4a 8CE0      		ldi r24,lo8(12)
 2356 0b4c 90E0      		ldi r25,hi8(12)
 2357 0b4e 6EE1      		ldi r22,lo8(30)
 2358 0b50 70E0      		ldi r23,hi8(30)
 2359 0b52 4FEF      		ldi r20,lo8(-1)
 2360 0b54 0E94 0000 		call lcd_graphics_plot_pixel
 2361               	.LM197:
 2362 0b58 8CE0      		ldi r24,lo8(12)
 2363 0b5a 90E0      		ldi r25,hi8(12)
 2364 0b5c 6FE1      		ldi r22,lo8(31)
 2365 0b5e 70E0      		ldi r23,hi8(31)
 2366 0b60 4FEF      		ldi r20,lo8(-1)
 2367 0b62 0E94 0000 		call lcd_graphics_plot_pixel
 2368               	.LM198:
 2369 0b66 8CE0      		ldi r24,lo8(12)
 2370 0b68 90E0      		ldi r25,hi8(12)
 2371 0b6a 62E2      		ldi r22,lo8(34)
 2372 0b6c 70E0      		ldi r23,hi8(34)
 2373 0b6e 4FEF      		ldi r20,lo8(-1)
 2374 0b70 0E94 0000 		call lcd_graphics_plot_pixel
 2375               	.LM199:
 2376 0b74 8CE0      		ldi r24,lo8(12)
 2377 0b76 90E0      		ldi r25,hi8(12)
 2378 0b78 63E2      		ldi r22,lo8(35)
 2379 0b7a 70E0      		ldi r23,hi8(35)
 2380 0b7c 4FEF      		ldi r20,lo8(-1)
 2381 0b7e 0E94 0000 		call lcd_graphics_plot_pixel
 2382               	.LM200:
 2383 0b82 8CE0      		ldi r24,lo8(12)
 2384 0b84 90E0      		ldi r25,hi8(12)
 2385 0b86 6EE2      		ldi r22,lo8(46)
 2386 0b88 70E0      		ldi r23,hi8(46)
 2387 0b8a 4FEF      		ldi r20,lo8(-1)
 2388 0b8c 0E94 0000 		call lcd_graphics_plot_pixel
 2389               	.LM201:
 2390 0b90 8CE0      		ldi r24,lo8(12)
 2391 0b92 90E0      		ldi r25,hi8(12)
 2392 0b94 6FE2      		ldi r22,lo8(47)
 2393 0b96 70E0      		ldi r23,hi8(47)
 2394 0b98 4FEF      		ldi r20,lo8(-1)
 2395 0b9a 0E94 0000 		call lcd_graphics_plot_pixel
 2396               	.LM202:
 2397 0b9e 8CE0      		ldi r24,lo8(12)
 2398 0ba0 90E0      		ldi r25,hi8(12)
 2399 0ba2 60E3      		ldi r22,lo8(48)
 2400 0ba4 70E0      		ldi r23,hi8(48)
 2401 0ba6 4FEF      		ldi r20,lo8(-1)
 2402 0ba8 0E94 0000 		call lcd_graphics_plot_pixel
 2403               	.LM203:
 2404 0bac 8CE0      		ldi r24,lo8(12)
 2405 0bae 90E0      		ldi r25,hi8(12)
 2406 0bb0 61E3      		ldi r22,lo8(49)
 2407 0bb2 70E0      		ldi r23,hi8(49)
 2408 0bb4 4FEF      		ldi r20,lo8(-1)
 2409 0bb6 0E94 0000 		call lcd_graphics_plot_pixel
 2410               	.LM204:
 2411 0bba 8CE0      		ldi r24,lo8(12)
 2412 0bbc 90E0      		ldi r25,hi8(12)
 2413 0bbe 62E3      		ldi r22,lo8(50)
 2414 0bc0 70E0      		ldi r23,hi8(50)
 2415 0bc2 4FEF      		ldi r20,lo8(-1)
 2416 0bc4 0E94 0000 		call lcd_graphics_plot_pixel
 2417               	.LM205:
 2418 0bc8 8CE0      		ldi r24,lo8(12)
 2419 0bca 90E0      		ldi r25,hi8(12)
 2420 0bcc 63E3      		ldi r22,lo8(51)
 2421 0bce 70E0      		ldi r23,hi8(51)
 2422 0bd0 4FEF      		ldi r20,lo8(-1)
 2423 0bd2 0E94 0000 		call lcd_graphics_plot_pixel
 2424               	.LM206:
 2425 0bd6 8CE0      		ldi r24,lo8(12)
 2426 0bd8 90E0      		ldi r25,hi8(12)
 2427 0bda 64E3      		ldi r22,lo8(52)
 2428 0bdc 70E0      		ldi r23,hi8(52)
 2429 0bde 4FEF      		ldi r20,lo8(-1)
 2430 0be0 0E94 0000 		call lcd_graphics_plot_pixel
 2431               	.LM207:
 2432 0be4 8CE0      		ldi r24,lo8(12)
 2433 0be6 90E0      		ldi r25,hi8(12)
 2434 0be8 65E3      		ldi r22,lo8(53)
 2435 0bea 70E0      		ldi r23,hi8(53)
 2436 0bec 4FEF      		ldi r20,lo8(-1)
 2437 0bee 0E94 0000 		call lcd_graphics_plot_pixel
 2438               	.LM208:
 2439 0bf2 8CE0      		ldi r24,lo8(12)
 2440 0bf4 90E0      		ldi r25,hi8(12)
 2441 0bf6 66E3      		ldi r22,lo8(54)
 2442 0bf8 70E0      		ldi r23,hi8(54)
 2443 0bfa 4FEF      		ldi r20,lo8(-1)
 2444 0bfc 0E94 0000 		call lcd_graphics_plot_pixel
 2445               	.LM209:
 2446 0c00 8CE0      		ldi r24,lo8(12)
 2447 0c02 90E0      		ldi r25,hi8(12)
 2448 0c04 67E3      		ldi r22,lo8(55)
 2449 0c06 70E0      		ldi r23,hi8(55)
 2450 0c08 4FEF      		ldi r20,lo8(-1)
 2451 0c0a 0E94 0000 		call lcd_graphics_plot_pixel
 2452               	.LM210:
 2453 0c0e 8DE0      		ldi r24,lo8(13)
 2454 0c10 90E0      		ldi r25,hi8(13)
 2455 0c12 6AE1      		ldi r22,lo8(26)
 2456 0c14 70E0      		ldi r23,hi8(26)
 2457 0c16 4FEF      		ldi r20,lo8(-1)
 2458 0c18 0E94 0000 		call lcd_graphics_plot_pixel
 2459               	.LM211:
 2460 0c1c 8DE0      		ldi r24,lo8(13)
 2461 0c1e 90E0      		ldi r25,hi8(13)
 2462 0c20 6BE1      		ldi r22,lo8(27)
 2463 0c22 70E0      		ldi r23,hi8(27)
 2464 0c24 4FEF      		ldi r20,lo8(-1)
 2465 0c26 0E94 0000 		call lcd_graphics_plot_pixel
 2466               	.LM212:
 2467 0c2a 8DE0      		ldi r24,lo8(13)
 2468 0c2c 90E0      		ldi r25,hi8(13)
 2469 0c2e 6EE1      		ldi r22,lo8(30)
 2470 0c30 70E0      		ldi r23,hi8(30)
 2471 0c32 4FEF      		ldi r20,lo8(-1)
 2472 0c34 0E94 0000 		call lcd_graphics_plot_pixel
 2473               	.LM213:
 2474 0c38 8DE0      		ldi r24,lo8(13)
 2475 0c3a 90E0      		ldi r25,hi8(13)
 2476 0c3c 6FE1      		ldi r22,lo8(31)
 2477 0c3e 70E0      		ldi r23,hi8(31)
 2478 0c40 4FEF      		ldi r20,lo8(-1)
 2479 0c42 0E94 0000 		call lcd_graphics_plot_pixel
 2480               	.LM214:
 2481 0c46 8DE0      		ldi r24,lo8(13)
 2482 0c48 90E0      		ldi r25,hi8(13)
 2483 0c4a 60E2      		ldi r22,lo8(32)
 2484 0c4c 70E0      		ldi r23,hi8(32)
 2485 0c4e 4FEF      		ldi r20,lo8(-1)
 2486 0c50 0E94 0000 		call lcd_graphics_plot_pixel
 2487               	.LM215:
 2488 0c54 8DE0      		ldi r24,lo8(13)
 2489 0c56 90E0      		ldi r25,hi8(13)
 2490 0c58 61E2      		ldi r22,lo8(33)
 2491 0c5a 70E0      		ldi r23,hi8(33)
 2492 0c5c 4FEF      		ldi r20,lo8(-1)
 2493 0c5e 0E94 0000 		call lcd_graphics_plot_pixel
 2494               	.LM216:
 2495 0c62 8DE0      		ldi r24,lo8(13)
 2496 0c64 90E0      		ldi r25,hi8(13)
 2497 0c66 62E2      		ldi r22,lo8(34)
 2498 0c68 70E0      		ldi r23,hi8(34)
 2499 0c6a 4FEF      		ldi r20,lo8(-1)
 2500 0c6c 0E94 0000 		call lcd_graphics_plot_pixel
 2501               	.LM217:
 2502 0c70 8DE0      		ldi r24,lo8(13)
 2503 0c72 90E0      		ldi r25,hi8(13)
 2504 0c74 63E2      		ldi r22,lo8(35)
 2505 0c76 70E0      		ldi r23,hi8(35)
 2506 0c78 4FEF      		ldi r20,lo8(-1)
 2507 0c7a 0E94 0000 		call lcd_graphics_plot_pixel
 2508               	.LM218:
 2509 0c7e 8DE0      		ldi r24,lo8(13)
 2510 0c80 90E0      		ldi r25,hi8(13)
 2511 0c82 6EE2      		ldi r22,lo8(46)
 2512 0c84 70E0      		ldi r23,hi8(46)
 2513 0c86 4FEF      		ldi r20,lo8(-1)
 2514 0c88 0E94 0000 		call lcd_graphics_plot_pixel
 2515               	.LM219:
 2516 0c8c 8DE0      		ldi r24,lo8(13)
 2517 0c8e 90E0      		ldi r25,hi8(13)
 2518 0c90 6FE2      		ldi r22,lo8(47)
 2519 0c92 70E0      		ldi r23,hi8(47)
 2520 0c94 4FEF      		ldi r20,lo8(-1)
 2521 0c96 0E94 0000 		call lcd_graphics_plot_pixel
 2522               	.LM220:
 2523 0c9a 8DE0      		ldi r24,lo8(13)
 2524 0c9c 90E0      		ldi r25,hi8(13)
 2525 0c9e 66E3      		ldi r22,lo8(54)
 2526 0ca0 70E0      		ldi r23,hi8(54)
 2527 0ca2 4FEF      		ldi r20,lo8(-1)
 2528 0ca4 0E94 0000 		call lcd_graphics_plot_pixel
 2529               	.LM221:
 2530 0ca8 8DE0      		ldi r24,lo8(13)
 2531 0caa 90E0      		ldi r25,hi8(13)
 2532 0cac 67E3      		ldi r22,lo8(55)
 2533 0cae 70E0      		ldi r23,hi8(55)
 2534 0cb0 4FEF      		ldi r20,lo8(-1)
 2535 0cb2 0E94 0000 		call lcd_graphics_plot_pixel
 2536               	.LM222:
 2537 0cb6 8EE0      		ldi r24,lo8(14)
 2538 0cb8 90E0      		ldi r25,hi8(14)
 2539 0cba 6AE1      		ldi r22,lo8(26)
 2540 0cbc 70E0      		ldi r23,hi8(26)
 2541 0cbe 4FEF      		ldi r20,lo8(-1)
 2542 0cc0 0E94 0000 		call lcd_graphics_plot_pixel
 2543               	.LM223:
 2544 0cc4 8EE0      		ldi r24,lo8(14)
 2545 0cc6 90E0      		ldi r25,hi8(14)
 2546 0cc8 6BE1      		ldi r22,lo8(27)
 2547 0cca 70E0      		ldi r23,hi8(27)
 2548 0ccc 4FEF      		ldi r20,lo8(-1)
 2549 0cce 0E94 0000 		call lcd_graphics_plot_pixel
 2550               	.LM224:
 2551 0cd2 8EE0      		ldi r24,lo8(14)
 2552 0cd4 90E0      		ldi r25,hi8(14)
 2553 0cd6 6EE1      		ldi r22,lo8(30)
 2554 0cd8 70E0      		ldi r23,hi8(30)
 2555 0cda 4FEF      		ldi r20,lo8(-1)
 2556 0cdc 0E94 0000 		call lcd_graphics_plot_pixel
 2557               	.LM225:
 2558 0ce0 8EE0      		ldi r24,lo8(14)
 2559 0ce2 90E0      		ldi r25,hi8(14)
 2560 0ce4 6FE1      		ldi r22,lo8(31)
 2561 0ce6 70E0      		ldi r23,hi8(31)
 2562 0ce8 4FEF      		ldi r20,lo8(-1)
 2563 0cea 0E94 0000 		call lcd_graphics_plot_pixel
 2564               	.LM226:
 2565 0cee 8EE0      		ldi r24,lo8(14)
 2566 0cf0 90E0      		ldi r25,hi8(14)
 2567 0cf2 60E2      		ldi r22,lo8(32)
 2568 0cf4 70E0      		ldi r23,hi8(32)
 2569 0cf6 4FEF      		ldi r20,lo8(-1)
 2570 0cf8 0E94 0000 		call lcd_graphics_plot_pixel
 2571               	.LM227:
 2572 0cfc 8EE0      		ldi r24,lo8(14)
 2573 0cfe 90E0      		ldi r25,hi8(14)
 2574 0d00 61E2      		ldi r22,lo8(33)
 2575 0d02 70E0      		ldi r23,hi8(33)
 2576 0d04 4FEF      		ldi r20,lo8(-1)
 2577 0d06 0E94 0000 		call lcd_graphics_plot_pixel
 2578               	.LM228:
 2579 0d0a 8EE0      		ldi r24,lo8(14)
 2580 0d0c 90E0      		ldi r25,hi8(14)
 2581 0d0e 62E2      		ldi r22,lo8(34)
 2582 0d10 70E0      		ldi r23,hi8(34)
 2583 0d12 4FEF      		ldi r20,lo8(-1)
 2584 0d14 0E94 0000 		call lcd_graphics_plot_pixel
 2585               	.LM229:
 2586 0d18 8EE0      		ldi r24,lo8(14)
 2587 0d1a 90E0      		ldi r25,hi8(14)
 2588 0d1c 63E2      		ldi r22,lo8(35)
 2589 0d1e 70E0      		ldi r23,hi8(35)
 2590 0d20 4FEF      		ldi r20,lo8(-1)
 2591 0d22 0E94 0000 		call lcd_graphics_plot_pixel
 2592               	.LM230:
 2593 0d26 8EE0      		ldi r24,lo8(14)
 2594 0d28 90E0      		ldi r25,hi8(14)
 2595 0d2a 6EE2      		ldi r22,lo8(46)
 2596 0d2c 70E0      		ldi r23,hi8(46)
 2597 0d2e 4FEF      		ldi r20,lo8(-1)
 2598 0d30 0E94 0000 		call lcd_graphics_plot_pixel
 2599               	.LM231:
 2600 0d34 8EE0      		ldi r24,lo8(14)
 2601 0d36 90E0      		ldi r25,hi8(14)
 2602 0d38 6FE2      		ldi r22,lo8(47)
 2603 0d3a 70E0      		ldi r23,hi8(47)
 2604 0d3c 4FEF      		ldi r20,lo8(-1)
 2605 0d3e 0E94 0000 		call lcd_graphics_plot_pixel
 2606               	.LM232:
 2607 0d42 8EE0      		ldi r24,lo8(14)
 2608 0d44 90E0      		ldi r25,hi8(14)
 2609 0d46 66E3      		ldi r22,lo8(54)
 2610 0d48 70E0      		ldi r23,hi8(54)
 2611 0d4a 4FEF      		ldi r20,lo8(-1)
 2612 0d4c 0E94 0000 		call lcd_graphics_plot_pixel
 2613               	.LM233:
 2614 0d50 8EE0      		ldi r24,lo8(14)
 2615 0d52 90E0      		ldi r25,hi8(14)
 2616 0d54 67E3      		ldi r22,lo8(55)
 2617 0d56 70E0      		ldi r23,hi8(55)
 2618 0d58 4FEF      		ldi r20,lo8(-1)
 2619 0d5a 0E94 0000 		call lcd_graphics_plot_pixel
 2620               	.LM234:
 2621 0d5e 8FE0      		ldi r24,lo8(15)
 2622 0d60 90E0      		ldi r25,hi8(15)
 2623 0d62 66E2      		ldi r22,lo8(38)
 2624 0d64 70E0      		ldi r23,hi8(38)
 2625 0d66 4FEF      		ldi r20,lo8(-1)
 2626 0d68 0E94 0000 		call lcd_graphics_plot_pixel
 2627               	.LM235:
 2628 0d6c 8FE0      		ldi r24,lo8(15)
 2629 0d6e 90E0      		ldi r25,hi8(15)
 2630 0d70 67E2      		ldi r22,lo8(39)
 2631 0d72 70E0      		ldi r23,hi8(39)
 2632 0d74 4FEF      		ldi r20,lo8(-1)
 2633 0d76 0E94 0000 		call lcd_graphics_plot_pixel
 2634               	.LM236:
 2635 0d7a 8FE0      		ldi r24,lo8(15)
 2636 0d7c 90E0      		ldi r25,hi8(15)
 2637 0d7e 6EE2      		ldi r22,lo8(46)
 2638 0d80 70E0      		ldi r23,hi8(46)
 2639 0d82 4FEF      		ldi r20,lo8(-1)
 2640 0d84 0E94 0000 		call lcd_graphics_plot_pixel
 2641               	.LM237:
 2642 0d88 8FE0      		ldi r24,lo8(15)
 2643 0d8a 90E0      		ldi r25,hi8(15)
 2644 0d8c 6FE2      		ldi r22,lo8(47)
 2645 0d8e 70E0      		ldi r23,hi8(47)
 2646 0d90 4FEF      		ldi r20,lo8(-1)
 2647 0d92 0E94 0000 		call lcd_graphics_plot_pixel
 2648               	.LM238:
 2649 0d96 8FE0      		ldi r24,lo8(15)
 2650 0d98 90E0      		ldi r25,hi8(15)
 2651 0d9a 62E3      		ldi r22,lo8(50)
 2652 0d9c 70E0      		ldi r23,hi8(50)
 2653 0d9e 4FEF      		ldi r20,lo8(-1)
 2654 0da0 0E94 0000 		call lcd_graphics_plot_pixel
 2655               	.LM239:
 2656 0da4 8FE0      		ldi r24,lo8(15)
 2657 0da6 90E0      		ldi r25,hi8(15)
 2658 0da8 63E3      		ldi r22,lo8(51)
 2659 0daa 70E0      		ldi r23,hi8(51)
 2660 0dac 4FEF      		ldi r20,lo8(-1)
 2661 0dae 0E94 0000 		call lcd_graphics_plot_pixel
 2662               	.LM240:
 2663 0db2 8FE0      		ldi r24,lo8(15)
 2664 0db4 90E0      		ldi r25,hi8(15)
 2665 0db6 66E3      		ldi r22,lo8(54)
 2666 0db8 70E0      		ldi r23,hi8(54)
 2667 0dba 4FEF      		ldi r20,lo8(-1)
 2668 0dbc 0E94 0000 		call lcd_graphics_plot_pixel
 2669               	.LM241:
 2670 0dc0 8FE0      		ldi r24,lo8(15)
 2671 0dc2 90E0      		ldi r25,hi8(15)
 2672 0dc4 67E3      		ldi r22,lo8(55)
 2673 0dc6 70E0      		ldi r23,hi8(55)
 2674 0dc8 4FEF      		ldi r20,lo8(-1)
 2675 0dca 0E94 0000 		call lcd_graphics_plot_pixel
 2676               	.LM242:
 2677 0dce 80E1      		ldi r24,lo8(16)
 2678 0dd0 90E0      		ldi r25,hi8(16)
 2679 0dd2 65E2      		ldi r22,lo8(37)
 2680 0dd4 70E0      		ldi r23,hi8(37)
 2681 0dd6 4FEF      		ldi r20,lo8(-1)
 2682 0dd8 0E94 0000 		call lcd_graphics_plot_pixel
 2683               	.LM243:
 2684 0ddc 80E1      		ldi r24,lo8(16)
 2685 0dde 90E0      		ldi r25,hi8(16)
 2686 0de0 66E2      		ldi r22,lo8(38)
 2687 0de2 70E0      		ldi r23,hi8(38)
 2688 0de4 4FEF      		ldi r20,lo8(-1)
 2689 0de6 0E94 0000 		call lcd_graphics_plot_pixel
 2690               	.LM244:
 2691 0dea 80E1      		ldi r24,lo8(16)
 2692 0dec 90E0      		ldi r25,hi8(16)
 2693 0dee 67E2      		ldi r22,lo8(39)
 2694 0df0 70E0      		ldi r23,hi8(39)
 2695 0df2 4FEF      		ldi r20,lo8(-1)
 2696 0df4 0E94 0000 		call lcd_graphics_plot_pixel
 2697               	.LM245:
 2698 0df8 80E1      		ldi r24,lo8(16)
 2699 0dfa 90E0      		ldi r25,hi8(16)
 2700 0dfc 6EE2      		ldi r22,lo8(46)
 2701 0dfe 70E0      		ldi r23,hi8(46)
 2702 0e00 4FEF      		ldi r20,lo8(-1)
 2703 0e02 0E94 0000 		call lcd_graphics_plot_pixel
 2704               	.LM246:
 2705 0e06 80E1      		ldi r24,lo8(16)
 2706 0e08 90E0      		ldi r25,hi8(16)
 2707 0e0a 6FE2      		ldi r22,lo8(47)
 2708 0e0c 70E0      		ldi r23,hi8(47)
 2709 0e0e 4FEF      		ldi r20,lo8(-1)
 2710 0e10 0E94 0000 		call lcd_graphics_plot_pixel
 2711               	.LM247:
 2712 0e14 80E1      		ldi r24,lo8(16)
 2713 0e16 90E0      		ldi r25,hi8(16)
 2714 0e18 62E3      		ldi r22,lo8(50)
 2715 0e1a 70E0      		ldi r23,hi8(50)
 2716 0e1c 4FEF      		ldi r20,lo8(-1)
 2717 0e1e 0E94 0000 		call lcd_graphics_plot_pixel
 2718               	.LM248:
 2719 0e22 80E1      		ldi r24,lo8(16)
 2720 0e24 90E0      		ldi r25,hi8(16)
 2721 0e26 63E3      		ldi r22,lo8(51)
 2722 0e28 70E0      		ldi r23,hi8(51)
 2723 0e2a 4FEF      		ldi r20,lo8(-1)
 2724 0e2c 0E94 0000 		call lcd_graphics_plot_pixel
 2725               	.LM249:
 2726 0e30 80E1      		ldi r24,lo8(16)
 2727 0e32 90E0      		ldi r25,hi8(16)
 2728 0e34 66E3      		ldi r22,lo8(54)
 2729 0e36 70E0      		ldi r23,hi8(54)
 2730 0e38 4FEF      		ldi r20,lo8(-1)
 2731 0e3a 0E94 0000 		call lcd_graphics_plot_pixel
 2732               	.LM250:
 2733 0e3e 80E1      		ldi r24,lo8(16)
 2734 0e40 90E0      		ldi r25,hi8(16)
 2735 0e42 67E3      		ldi r22,lo8(55)
 2736 0e44 70E0      		ldi r23,hi8(55)
 2737 0e46 4FEF      		ldi r20,lo8(-1)
 2738 0e48 0E94 0000 		call lcd_graphics_plot_pixel
 2739               	.LM251:
 2740 0e4c 81E1      		ldi r24,lo8(17)
 2741 0e4e 90E0      		ldi r25,hi8(17)
 2742 0e50 67E1      		ldi r22,lo8(23)
 2743 0e52 70E0      		ldi r23,hi8(23)
 2744 0e54 4FEF      		ldi r20,lo8(-1)
 2745 0e56 0E94 0000 		call lcd_graphics_plot_pixel
 2746               	.LM252:
 2747 0e5a 81E1      		ldi r24,lo8(17)
 2748 0e5c 90E0      		ldi r25,hi8(17)
 2749 0e5e 68E1      		ldi r22,lo8(24)
 2750 0e60 70E0      		ldi r23,hi8(24)
 2751 0e62 4FEF      		ldi r20,lo8(-1)
 2752 0e64 0E94 0000 		call lcd_graphics_plot_pixel
 2753               	.LM253:
 2754 0e68 81E1      		ldi r24,lo8(17)
 2755 0e6a 90E0      		ldi r25,hi8(17)
 2756 0e6c 6AE1      		ldi r22,lo8(26)
 2757 0e6e 70E0      		ldi r23,hi8(26)
 2758 0e70 4FEF      		ldi r20,lo8(-1)
 2759 0e72 0E94 0000 		call lcd_graphics_plot_pixel
 2760               	.LM254:
 2761 0e76 81E1      		ldi r24,lo8(17)
 2762 0e78 90E0      		ldi r25,hi8(17)
 2763 0e7a 6BE1      		ldi r22,lo8(27)
 2764 0e7c 70E0      		ldi r23,hi8(27)
 2765 0e7e 4FEF      		ldi r20,lo8(-1)
 2766 0e80 0E94 0000 		call lcd_graphics_plot_pixel
 2767               	.LM255:
 2768 0e84 81E1      		ldi r24,lo8(17)
 2769 0e86 90E0      		ldi r25,hi8(17)
 2770 0e88 6CE1      		ldi r22,lo8(28)
 2771 0e8a 70E0      		ldi r23,hi8(28)
 2772 0e8c 4FEF      		ldi r20,lo8(-1)
 2773 0e8e 0E94 0000 		call lcd_graphics_plot_pixel
 2774               	.LM256:
 2775 0e92 81E1      		ldi r24,lo8(17)
 2776 0e94 90E0      		ldi r25,hi8(17)
 2777 0e96 6DE1      		ldi r22,lo8(29)
 2778 0e98 70E0      		ldi r23,hi8(29)
 2779 0e9a 4FEF      		ldi r20,lo8(-1)
 2780 0e9c 0E94 0000 		call lcd_graphics_plot_pixel
 2781               	.LM257:
 2782 0ea0 81E1      		ldi r24,lo8(17)
 2783 0ea2 90E0      		ldi r25,hi8(17)
 2784 0ea4 6EE1      		ldi r22,lo8(30)
 2785 0ea6 70E0      		ldi r23,hi8(30)
 2786 0ea8 4FEF      		ldi r20,lo8(-1)
 2787 0eaa 0E94 0000 		call lcd_graphics_plot_pixel
 2788               	.LM258:
 2789 0eae 81E1      		ldi r24,lo8(17)
 2790 0eb0 90E0      		ldi r25,hi8(17)
 2791 0eb2 6FE1      		ldi r22,lo8(31)
 2792 0eb4 70E0      		ldi r23,hi8(31)
 2793 0eb6 4FEF      		ldi r20,lo8(-1)
 2794 0eb8 0E94 0000 		call lcd_graphics_plot_pixel
 2795               	.LM259:
 2796 0ebc 81E1      		ldi r24,lo8(17)
 2797 0ebe 90E0      		ldi r25,hi8(17)
 2798 0ec0 60E2      		ldi r22,lo8(32)
 2799 0ec2 70E0      		ldi r23,hi8(32)
 2800 0ec4 4FEF      		ldi r20,lo8(-1)
 2801 0ec6 0E94 0000 		call lcd_graphics_plot_pixel
 2802               	.LM260:
 2803 0eca 81E1      		ldi r24,lo8(17)
 2804 0ecc 90E0      		ldi r25,hi8(17)
 2805 0ece 61E2      		ldi r22,lo8(33)
 2806 0ed0 70E0      		ldi r23,hi8(33)
 2807 0ed2 4FEF      		ldi r20,lo8(-1)
 2808 0ed4 0E94 0000 		call lcd_graphics_plot_pixel
 2809               	.LM261:
 2810 0ed8 81E1      		ldi r24,lo8(17)
 2811 0eda 90E0      		ldi r25,hi8(17)
 2812 0edc 62E2      		ldi r22,lo8(34)
 2813 0ede 70E0      		ldi r23,hi8(34)
 2814 0ee0 4FEF      		ldi r20,lo8(-1)
 2815 0ee2 0E94 0000 		call lcd_graphics_plot_pixel
 2816               	.LM262:
 2817 0ee6 81E1      		ldi r24,lo8(17)
 2818 0ee8 90E0      		ldi r25,hi8(17)
 2819 0eea 63E2      		ldi r22,lo8(35)
 2820 0eec 70E0      		ldi r23,hi8(35)
 2821 0eee 4FEF      		ldi r20,lo8(-1)
 2822 0ef0 0E94 0000 		call lcd_graphics_plot_pixel
 2823               	.LM263:
 2824 0ef4 81E1      		ldi r24,lo8(17)
 2825 0ef6 90E0      		ldi r25,hi8(17)
 2826 0ef8 65E2      		ldi r22,lo8(37)
 2827 0efa 70E0      		ldi r23,hi8(37)
 2828 0efc 4FEF      		ldi r20,lo8(-1)
 2829 0efe 0E94 0000 		call lcd_graphics_plot_pixel
 2830               	.LM264:
 2831 0f02 81E1      		ldi r24,lo8(17)
 2832 0f04 90E0      		ldi r25,hi8(17)
 2833 0f06 66E2      		ldi r22,lo8(38)
 2834 0f08 70E0      		ldi r23,hi8(38)
 2835 0f0a 4FEF      		ldi r20,lo8(-1)
 2836 0f0c 0E94 0000 		call lcd_graphics_plot_pixel
 2837               	.LM265:
 2838 0f10 81E1      		ldi r24,lo8(17)
 2839 0f12 90E0      		ldi r25,hi8(17)
 2840 0f14 67E2      		ldi r22,lo8(39)
 2841 0f16 70E0      		ldi r23,hi8(39)
 2842 0f18 4FEF      		ldi r20,lo8(-1)
 2843 0f1a 0E94 0000 		call lcd_graphics_plot_pixel
 2844               	.LM266:
 2845 0f1e 81E1      		ldi r24,lo8(17)
 2846 0f20 90E0      		ldi r25,hi8(17)
 2847 0f22 6EE2      		ldi r22,lo8(46)
 2848 0f24 70E0      		ldi r23,hi8(46)
 2849 0f26 4FEF      		ldi r20,lo8(-1)
 2850 0f28 0E94 0000 		call lcd_graphics_plot_pixel
 2851               	.LM267:
 2852 0f2c 81E1      		ldi r24,lo8(17)
 2853 0f2e 90E0      		ldi r25,hi8(17)
 2854 0f30 6FE2      		ldi r22,lo8(47)
 2855 0f32 70E0      		ldi r23,hi8(47)
 2856 0f34 4FEF      		ldi r20,lo8(-1)
 2857 0f36 0E94 0000 		call lcd_graphics_plot_pixel
 2858               	.LM268:
 2859 0f3a 81E1      		ldi r24,lo8(17)
 2860 0f3c 90E0      		ldi r25,hi8(17)
 2861 0f3e 62E3      		ldi r22,lo8(50)
 2862 0f40 70E0      		ldi r23,hi8(50)
 2863 0f42 4FEF      		ldi r20,lo8(-1)
 2864 0f44 0E94 0000 		call lcd_graphics_plot_pixel
 2865               	.LM269:
 2866 0f48 81E1      		ldi r24,lo8(17)
 2867 0f4a 90E0      		ldi r25,hi8(17)
 2868 0f4c 63E3      		ldi r22,lo8(51)
 2869 0f4e 70E0      		ldi r23,hi8(51)
 2870 0f50 4FEF      		ldi r20,lo8(-1)
 2871 0f52 0E94 0000 		call lcd_graphics_plot_pixel
 2872               	.LM270:
 2873 0f56 81E1      		ldi r24,lo8(17)
 2874 0f58 90E0      		ldi r25,hi8(17)
 2875 0f5a 64E3      		ldi r22,lo8(52)
 2876 0f5c 70E0      		ldi r23,hi8(52)
 2877 0f5e 4FEF      		ldi r20,lo8(-1)
 2878 0f60 0E94 0000 		call lcd_graphics_plot_pixel
 2879               	.LM271:
 2880 0f64 81E1      		ldi r24,lo8(17)
 2881 0f66 90E0      		ldi r25,hi8(17)
 2882 0f68 65E3      		ldi r22,lo8(53)
 2883 0f6a 70E0      		ldi r23,hi8(53)
 2884 0f6c 4FEF      		ldi r20,lo8(-1)
 2885 0f6e 0E94 0000 		call lcd_graphics_plot_pixel
 2886               	.LM272:
 2887 0f72 81E1      		ldi r24,lo8(17)
 2888 0f74 90E0      		ldi r25,hi8(17)
 2889 0f76 66E3      		ldi r22,lo8(54)
 2890 0f78 70E0      		ldi r23,hi8(54)
 2891 0f7a 4FEF      		ldi r20,lo8(-1)
 2892 0f7c 0E94 0000 		call lcd_graphics_plot_pixel
 2893               	.LM273:
 2894 0f80 81E1      		ldi r24,lo8(17)
 2895 0f82 90E0      		ldi r25,hi8(17)
 2896 0f84 67E3      		ldi r22,lo8(55)
 2897 0f86 70E0      		ldi r23,hi8(55)
 2898 0f88 4FEF      		ldi r20,lo8(-1)
 2899 0f8a 0E94 0000 		call lcd_graphics_plot_pixel
 2900               	.LM274:
 2901 0f8e 82E1      		ldi r24,lo8(18)
 2902 0f90 90E0      		ldi r25,hi8(18)
 2903 0f92 62E1      		ldi r22,lo8(18)
 2904 0f94 70E0      		ldi r23,hi8(18)
 2905 0f96 4FEF      		ldi r20,lo8(-1)
 2906 0f98 0E94 0000 		call lcd_graphics_plot_pixel
 2907               	.LM275:
 2908 0f9c 82E1      		ldi r24,lo8(18)
 2909 0f9e 90E0      		ldi r25,hi8(18)
 2910 0fa0 63E1      		ldi r22,lo8(19)
 2911 0fa2 70E0      		ldi r23,hi8(19)
 2912 0fa4 4FEF      		ldi r20,lo8(-1)
 2913 0fa6 0E94 0000 		call lcd_graphics_plot_pixel
 2914               	.LM276:
 2915 0faa 82E1      		ldi r24,lo8(18)
 2916 0fac 90E0      		ldi r25,hi8(18)
 2917 0fae 64E1      		ldi r22,lo8(20)
 2918 0fb0 70E0      		ldi r23,hi8(20)
 2919 0fb2 4FEF      		ldi r20,lo8(-1)
 2920 0fb4 0E94 0000 		call lcd_graphics_plot_pixel
 2921               	.LM277:
 2922 0fb8 82E1      		ldi r24,lo8(18)
 2923 0fba 90E0      		ldi r25,hi8(18)
 2924 0fbc 65E1      		ldi r22,lo8(21)
 2925 0fbe 70E0      		ldi r23,hi8(21)
 2926 0fc0 4FEF      		ldi r20,lo8(-1)
 2927 0fc2 0E94 0000 		call lcd_graphics_plot_pixel
 2928               	.LM278:
 2929 0fc6 82E1      		ldi r24,lo8(18)
 2930 0fc8 90E0      		ldi r25,hi8(18)
 2931 0fca 66E1      		ldi r22,lo8(22)
 2932 0fcc 70E0      		ldi r23,hi8(22)
 2933 0fce 4FEF      		ldi r20,lo8(-1)
 2934 0fd0 0E94 0000 		call lcd_graphics_plot_pixel
 2935               	.LM279:
 2936 0fd4 82E1      		ldi r24,lo8(18)
 2937 0fd6 90E0      		ldi r25,hi8(18)
 2938 0fd8 67E1      		ldi r22,lo8(23)
 2939 0fda 70E0      		ldi r23,hi8(23)
 2940 0fdc 4FEF      		ldi r20,lo8(-1)
 2941 0fde 0E94 0000 		call lcd_graphics_plot_pixel
 2942               	.LM280:
 2943 0fe2 82E1      		ldi r24,lo8(18)
 2944 0fe4 90E0      		ldi r25,hi8(18)
 2945 0fe6 68E1      		ldi r22,lo8(24)
 2946 0fe8 70E0      		ldi r23,hi8(24)
 2947 0fea 4FEF      		ldi r20,lo8(-1)
 2948 0fec 0E94 0000 		call lcd_graphics_plot_pixel
 2949               	.LM281:
 2950 0ff0 82E1      		ldi r24,lo8(18)
 2951 0ff2 90E0      		ldi r25,hi8(18)
 2952 0ff4 6AE1      		ldi r22,lo8(26)
 2953 0ff6 70E0      		ldi r23,hi8(26)
 2954 0ff8 4FEF      		ldi r20,lo8(-1)
 2955 0ffa 0E94 0000 		call lcd_graphics_plot_pixel
 2956               	.LM282:
 2957 0ffe 82E1      		ldi r24,lo8(18)
 2958 1000 90E0      		ldi r25,hi8(18)
 2959 1002 6BE1      		ldi r22,lo8(27)
 2960 1004 70E0      		ldi r23,hi8(27)
 2961 1006 4FEF      		ldi r20,lo8(-1)
 2962 1008 0E94 0000 		call lcd_graphics_plot_pixel
 2963               	.LM283:
 2964 100c 82E1      		ldi r24,lo8(18)
 2965 100e 90E0      		ldi r25,hi8(18)
 2966 1010 6CE1      		ldi r22,lo8(28)
 2967 1012 70E0      		ldi r23,hi8(28)
 2968 1014 4FEF      		ldi r20,lo8(-1)
 2969 1016 0E94 0000 		call lcd_graphics_plot_pixel
 2970               	.LM284:
 2971 101a 82E1      		ldi r24,lo8(18)
 2972 101c 90E0      		ldi r25,hi8(18)
 2973 101e 6DE1      		ldi r22,lo8(29)
 2974 1020 70E0      		ldi r23,hi8(29)
 2975 1022 4FEF      		ldi r20,lo8(-1)
 2976 1024 0E94 0000 		call lcd_graphics_plot_pixel
 2977               	.LM285:
 2978 1028 82E1      		ldi r24,lo8(18)
 2979 102a 90E0      		ldi r25,hi8(18)
 2980 102c 6EE1      		ldi r22,lo8(30)
 2981 102e 70E0      		ldi r23,hi8(30)
 2982 1030 4FEF      		ldi r20,lo8(-1)
 2983 1032 0E94 0000 		call lcd_graphics_plot_pixel
 2984               	.LM286:
 2985 1036 82E1      		ldi r24,lo8(18)
 2986 1038 90E0      		ldi r25,hi8(18)
 2987 103a 6FE1      		ldi r22,lo8(31)
 2988 103c 70E0      		ldi r23,hi8(31)
 2989 103e 4FEF      		ldi r20,lo8(-1)
 2990 1040 0E94 0000 		call lcd_graphics_plot_pixel
 2991               	.LM287:
 2992 1044 82E1      		ldi r24,lo8(18)
 2993 1046 90E0      		ldi r25,hi8(18)
 2994 1048 60E2      		ldi r22,lo8(32)
 2995 104a 70E0      		ldi r23,hi8(32)
 2996 104c 4FEF      		ldi r20,lo8(-1)
 2997 104e 0E94 0000 		call lcd_graphics_plot_pixel
 2998               	.LM288:
 2999 1052 82E1      		ldi r24,lo8(18)
 3000 1054 90E0      		ldi r25,hi8(18)
 3001 1056 61E2      		ldi r22,lo8(33)
 3002 1058 70E0      		ldi r23,hi8(33)
 3003 105a 4FEF      		ldi r20,lo8(-1)
 3004 105c 0E94 0000 		call lcd_graphics_plot_pixel
 3005               	.LM289:
 3006 1060 82E1      		ldi r24,lo8(18)
 3007 1062 90E0      		ldi r25,hi8(18)
 3008 1064 62E2      		ldi r22,lo8(34)
 3009 1066 70E0      		ldi r23,hi8(34)
 3010 1068 4FEF      		ldi r20,lo8(-1)
 3011 106a 0E94 0000 		call lcd_graphics_plot_pixel
 3012               	.LM290:
 3013 106e 82E1      		ldi r24,lo8(18)
 3014 1070 90E0      		ldi r25,hi8(18)
 3015 1072 63E2      		ldi r22,lo8(35)
 3016 1074 70E0      		ldi r23,hi8(35)
 3017 1076 4FEF      		ldi r20,lo8(-1)
 3018 1078 0E94 0000 		call lcd_graphics_plot_pixel
 3019               	.LM291:
 3020 107c 82E1      		ldi r24,lo8(18)
 3021 107e 90E0      		ldi r25,hi8(18)
 3022 1080 65E2      		ldi r22,lo8(37)
 3023 1082 70E0      		ldi r23,hi8(37)
 3024 1084 4FEF      		ldi r20,lo8(-1)
 3025 1086 0E94 0000 		call lcd_graphics_plot_pixel
 3026               	.LM292:
 3027 108a 82E1      		ldi r24,lo8(18)
 3028 108c 90E0      		ldi r25,hi8(18)
 3029 108e 66E2      		ldi r22,lo8(38)
 3030 1090 70E0      		ldi r23,hi8(38)
 3031 1092 4FEF      		ldi r20,lo8(-1)
 3032 1094 0E94 0000 		call lcd_graphics_plot_pixel
 3033               	.LM293:
 3034 1098 82E1      		ldi r24,lo8(18)
 3035 109a 90E0      		ldi r25,hi8(18)
 3036 109c 67E2      		ldi r22,lo8(39)
 3037 109e 70E0      		ldi r23,hi8(39)
 3038 10a0 4FEF      		ldi r20,lo8(-1)
 3039 10a2 0E94 0000 		call lcd_graphics_plot_pixel
 3040               	.LM294:
 3041 10a6 82E1      		ldi r24,lo8(18)
 3042 10a8 90E0      		ldi r25,hi8(18)
 3043 10aa 6EE2      		ldi r22,lo8(46)
 3044 10ac 70E0      		ldi r23,hi8(46)
 3045 10ae 4FEF      		ldi r20,lo8(-1)
 3046 10b0 0E94 0000 		call lcd_graphics_plot_pixel
 3047               	.LM295:
 3048 10b4 82E1      		ldi r24,lo8(18)
 3049 10b6 90E0      		ldi r25,hi8(18)
 3050 10b8 6FE2      		ldi r22,lo8(47)
 3051 10ba 70E0      		ldi r23,hi8(47)
 3052 10bc 4FEF      		ldi r20,lo8(-1)
 3053 10be 0E94 0000 		call lcd_graphics_plot_pixel
 3054               	.LM296:
 3055 10c2 82E1      		ldi r24,lo8(18)
 3056 10c4 90E0      		ldi r25,hi8(18)
 3057 10c6 62E3      		ldi r22,lo8(50)
 3058 10c8 70E0      		ldi r23,hi8(50)
 3059 10ca 4FEF      		ldi r20,lo8(-1)
 3060 10cc 0E94 0000 		call lcd_graphics_plot_pixel
 3061               	.LM297:
 3062 10d0 82E1      		ldi r24,lo8(18)
 3063 10d2 90E0      		ldi r25,hi8(18)
 3064 10d4 63E3      		ldi r22,lo8(51)
 3065 10d6 70E0      		ldi r23,hi8(51)
 3066 10d8 4FEF      		ldi r20,lo8(-1)
 3067 10da 0E94 0000 		call lcd_graphics_plot_pixel
 3068               	.LM298:
 3069 10de 82E1      		ldi r24,lo8(18)
 3070 10e0 90E0      		ldi r25,hi8(18)
 3071 10e2 64E3      		ldi r22,lo8(52)
 3072 10e4 70E0      		ldi r23,hi8(52)
 3073 10e6 4FEF      		ldi r20,lo8(-1)
 3074 10e8 0E94 0000 		call lcd_graphics_plot_pixel
 3075               	.LM299:
 3076 10ec 82E1      		ldi r24,lo8(18)
 3077 10ee 90E0      		ldi r25,hi8(18)
 3078 10f0 65E3      		ldi r22,lo8(53)
 3079 10f2 70E0      		ldi r23,hi8(53)
 3080 10f4 4FEF      		ldi r20,lo8(-1)
 3081 10f6 0E94 0000 		call lcd_graphics_plot_pixel
 3082               	.LM300:
 3083 10fa 82E1      		ldi r24,lo8(18)
 3084 10fc 90E0      		ldi r25,hi8(18)
 3085 10fe 66E3      		ldi r22,lo8(54)
 3086 1100 70E0      		ldi r23,hi8(54)
 3087 1102 4FEF      		ldi r20,lo8(-1)
 3088 1104 0E94 0000 		call lcd_graphics_plot_pixel
 3089               	.LM301:
 3090 1108 82E1      		ldi r24,lo8(18)
 3091 110a 90E0      		ldi r25,hi8(18)
 3092 110c 67E3      		ldi r22,lo8(55)
 3093 110e 70E0      		ldi r23,hi8(55)
 3094 1110 4FEF      		ldi r20,lo8(-1)
 3095 1112 0E94 0000 		call lcd_graphics_plot_pixel
 3096               	.LM302:
 3097 1116 83E1      		ldi r24,lo8(19)
 3098 1118 90E0      		ldi r25,hi8(19)
 3099 111a 6CE0      		ldi r22,lo8(12)
 3100 111c 70E0      		ldi r23,hi8(12)
 3101 111e 4FEF      		ldi r20,lo8(-1)
 3102 1120 0E94 0000 		call lcd_graphics_plot_pixel
 3103               	.LM303:
 3104 1124 83E1      		ldi r24,lo8(19)
 3105 1126 90E0      		ldi r25,hi8(19)
 3106 1128 6DE0      		ldi r22,lo8(13)
 3107 112a 70E0      		ldi r23,hi8(13)
 3108 112c 4FEF      		ldi r20,lo8(-1)
 3109 112e 0E94 0000 		call lcd_graphics_plot_pixel
 3110               	.LM304:
 3111 1132 83E1      		ldi r24,lo8(19)
 3112 1134 90E0      		ldi r25,hi8(19)
 3113 1136 6EE0      		ldi r22,lo8(14)
 3114 1138 70E0      		ldi r23,hi8(14)
 3115 113a 4FEF      		ldi r20,lo8(-1)
 3116 113c 0E94 0000 		call lcd_graphics_plot_pixel
 3117               	.LM305:
 3118 1140 83E1      		ldi r24,lo8(19)
 3119 1142 90E0      		ldi r25,hi8(19)
 3120 1144 6FE0      		ldi r22,lo8(15)
 3121 1146 70E0      		ldi r23,hi8(15)
 3122 1148 4FEF      		ldi r20,lo8(-1)
 3123 114a 0E94 0000 		call lcd_graphics_plot_pixel
 3124               	.LM306:
 3125 114e 83E1      		ldi r24,lo8(19)
 3126 1150 90E0      		ldi r25,hi8(19)
 3127 1152 60E1      		ldi r22,lo8(16)
 3128 1154 70E0      		ldi r23,hi8(16)
 3129 1156 4FEF      		ldi r20,lo8(-1)
 3130 1158 0E94 0000 		call lcd_graphics_plot_pixel
 3131               	.LM307:
 3132 115c 83E1      		ldi r24,lo8(19)
 3133 115e 90E0      		ldi r25,hi8(19)
 3134 1160 61E1      		ldi r22,lo8(17)
 3135 1162 70E0      		ldi r23,hi8(17)
 3136 1164 4FEF      		ldi r20,lo8(-1)
 3137 1166 0E94 0000 		call lcd_graphics_plot_pixel
 3138               	.LM308:
 3139 116a 83E1      		ldi r24,lo8(19)
 3140 116c 90E0      		ldi r25,hi8(19)
 3141 116e 62E1      		ldi r22,lo8(18)
 3142 1170 70E0      		ldi r23,hi8(18)
 3143 1172 4FEF      		ldi r20,lo8(-1)
 3144 1174 0E94 0000 		call lcd_graphics_plot_pixel
 3145               	.LM309:
 3146 1178 83E1      		ldi r24,lo8(19)
 3147 117a 90E0      		ldi r25,hi8(19)
 3148 117c 63E1      		ldi r22,lo8(19)
 3149 117e 70E0      		ldi r23,hi8(19)
 3150 1180 4FEF      		ldi r20,lo8(-1)
 3151 1182 0E94 0000 		call lcd_graphics_plot_pixel
 3152               	.LM310:
 3153 1186 83E1      		ldi r24,lo8(19)
 3154 1188 90E0      		ldi r25,hi8(19)
 3155 118a 64E1      		ldi r22,lo8(20)
 3156 118c 70E0      		ldi r23,hi8(20)
 3157 118e 4FEF      		ldi r20,lo8(-1)
 3158 1190 0E94 0000 		call lcd_graphics_plot_pixel
 3159               	.LM311:
 3160 1194 83E1      		ldi r24,lo8(19)
 3161 1196 90E0      		ldi r25,hi8(19)
 3162 1198 65E1      		ldi r22,lo8(21)
 3163 119a 70E0      		ldi r23,hi8(21)
 3164 119c 4FEF      		ldi r20,lo8(-1)
 3165 119e 0E94 0000 		call lcd_graphics_plot_pixel
 3166               	.LM312:
 3167 11a2 83E1      		ldi r24,lo8(19)
 3168 11a4 90E0      		ldi r25,hi8(19)
 3169 11a6 66E1      		ldi r22,lo8(22)
 3170 11a8 70E0      		ldi r23,hi8(22)
 3171 11aa 4FEF      		ldi r20,lo8(-1)
 3172 11ac 0E94 0000 		call lcd_graphics_plot_pixel
 3173               	.LM313:
 3174 11b0 83E1      		ldi r24,lo8(19)
 3175 11b2 90E0      		ldi r25,hi8(19)
 3176 11b4 67E1      		ldi r22,lo8(23)
 3177 11b6 70E0      		ldi r23,hi8(23)
 3178 11b8 4FEF      		ldi r20,lo8(-1)
 3179 11ba 0E94 0000 		call lcd_graphics_plot_pixel
 3180               	.LM314:
 3181 11be 83E1      		ldi r24,lo8(19)
 3182 11c0 90E0      		ldi r25,hi8(19)
 3183 11c2 68E1      		ldi r22,lo8(24)
 3184 11c4 70E0      		ldi r23,hi8(24)
 3185 11c6 4FEF      		ldi r20,lo8(-1)
 3186 11c8 0E94 0000 		call lcd_graphics_plot_pixel
 3187               	.LM315:
 3188 11cc 83E1      		ldi r24,lo8(19)
 3189 11ce 90E0      		ldi r25,hi8(19)
 3190 11d0 6AE1      		ldi r22,lo8(26)
 3191 11d2 70E0      		ldi r23,hi8(26)
 3192 11d4 4FEF      		ldi r20,lo8(-1)
 3193 11d6 0E94 0000 		call lcd_graphics_plot_pixel
 3194               	.LM316:
 3195 11da 83E1      		ldi r24,lo8(19)
 3196 11dc 90E0      		ldi r25,hi8(19)
 3197 11de 6BE1      		ldi r22,lo8(27)
 3198 11e0 70E0      		ldi r23,hi8(27)
 3199 11e2 4FEF      		ldi r20,lo8(-1)
 3200 11e4 0E94 0000 		call lcd_graphics_plot_pixel
 3201               	.LM317:
 3202 11e8 83E1      		ldi r24,lo8(19)
 3203 11ea 90E0      		ldi r25,hi8(19)
 3204 11ec 65E2      		ldi r22,lo8(37)
 3205 11ee 70E0      		ldi r23,hi8(37)
 3206 11f0 4FEF      		ldi r20,lo8(-1)
 3207 11f2 0E94 0000 		call lcd_graphics_plot_pixel
 3208               	.LM318:
 3209 11f6 83E1      		ldi r24,lo8(19)
 3210 11f8 90E0      		ldi r25,hi8(19)
 3211 11fa 66E2      		ldi r22,lo8(38)
 3212 11fc 70E0      		ldi r23,hi8(38)
 3213 11fe 4FEF      		ldi r20,lo8(-1)
 3214 1200 0E94 0000 		call lcd_graphics_plot_pixel
 3215               	.LM319:
 3216 1204 83E1      		ldi r24,lo8(19)
 3217 1206 90E0      		ldi r25,hi8(19)
 3218 1208 67E2      		ldi r22,lo8(39)
 3219 120a 70E0      		ldi r23,hi8(39)
 3220 120c 4FEF      		ldi r20,lo8(-1)
 3221 120e 0E94 0000 		call lcd_graphics_plot_pixel
 3222               	.LM320:
 3223 1212 84E1      		ldi r24,lo8(20)
 3224 1214 90E0      		ldi r25,hi8(20)
 3225 1216 67E0      		ldi r22,lo8(7)
 3226 1218 70E0      		ldi r23,hi8(7)
 3227 121a 4FEF      		ldi r20,lo8(-1)
 3228 121c 0E94 0000 		call lcd_graphics_plot_pixel
 3229               	.LM321:
 3230 1220 84E1      		ldi r24,lo8(20)
 3231 1222 90E0      		ldi r25,hi8(20)
 3232 1224 68E0      		ldi r22,lo8(8)
 3233 1226 70E0      		ldi r23,hi8(8)
 3234 1228 4FEF      		ldi r20,lo8(-1)
 3235 122a 0E94 0000 		call lcd_graphics_plot_pixel
 3236               	.LM322:
 3237 122e 84E1      		ldi r24,lo8(20)
 3238 1230 90E0      		ldi r25,hi8(20)
 3239 1232 69E0      		ldi r22,lo8(9)
 3240 1234 70E0      		ldi r23,hi8(9)
 3241 1236 4FEF      		ldi r20,lo8(-1)
 3242 1238 0E94 0000 		call lcd_graphics_plot_pixel
 3243               	.LM323:
 3244 123c 84E1      		ldi r24,lo8(20)
 3245 123e 90E0      		ldi r25,hi8(20)
 3246 1240 6AE0      		ldi r22,lo8(10)
 3247 1242 70E0      		ldi r23,hi8(10)
 3248 1244 4FEF      		ldi r20,lo8(-1)
 3249 1246 0E94 0000 		call lcd_graphics_plot_pixel
 3250               	.LM324:
 3251 124a 84E1      		ldi r24,lo8(20)
 3252 124c 90E0      		ldi r25,hi8(20)
 3253 124e 6BE0      		ldi r22,lo8(11)
 3254 1250 70E0      		ldi r23,hi8(11)
 3255 1252 4FEF      		ldi r20,lo8(-1)
 3256 1254 0E94 0000 		call lcd_graphics_plot_pixel
 3257               	.LM325:
 3258 1258 84E1      		ldi r24,lo8(20)
 3259 125a 90E0      		ldi r25,hi8(20)
 3260 125c 6CE0      		ldi r22,lo8(12)
 3261 125e 70E0      		ldi r23,hi8(12)
 3262 1260 4FEF      		ldi r20,lo8(-1)
 3263 1262 0E94 0000 		call lcd_graphics_plot_pixel
 3264               	.LM326:
 3265 1266 84E1      		ldi r24,lo8(20)
 3266 1268 90E0      		ldi r25,hi8(20)
 3267 126a 6DE0      		ldi r22,lo8(13)
 3268 126c 70E0      		ldi r23,hi8(13)
 3269 126e 4FEF      		ldi r20,lo8(-1)
 3270 1270 0E94 0000 		call lcd_graphics_plot_pixel
 3271               	.LM327:
 3272 1274 84E1      		ldi r24,lo8(20)
 3273 1276 90E0      		ldi r25,hi8(20)
 3274 1278 6EE0      		ldi r22,lo8(14)
 3275 127a 70E0      		ldi r23,hi8(14)
 3276 127c 4FEF      		ldi r20,lo8(-1)
 3277 127e 0E94 0000 		call lcd_graphics_plot_pixel
 3278               	.LM328:
 3279 1282 84E1      		ldi r24,lo8(20)
 3280 1284 90E0      		ldi r25,hi8(20)
 3281 1286 6FE0      		ldi r22,lo8(15)
 3282 1288 70E0      		ldi r23,hi8(15)
 3283 128a 4FEF      		ldi r20,lo8(-1)
 3284 128c 0E94 0000 		call lcd_graphics_plot_pixel
 3285               	.LM329:
 3286 1290 84E1      		ldi r24,lo8(20)
 3287 1292 90E0      		ldi r25,hi8(20)
 3288 1294 60E1      		ldi r22,lo8(16)
 3289 1296 70E0      		ldi r23,hi8(16)
 3290 1298 4FEF      		ldi r20,lo8(-1)
 3291 129a 0E94 0000 		call lcd_graphics_plot_pixel
 3292               	.LM330:
 3293 129e 84E1      		ldi r24,lo8(20)
 3294 12a0 90E0      		ldi r25,hi8(20)
 3295 12a2 61E1      		ldi r22,lo8(17)
 3296 12a4 70E0      		ldi r23,hi8(17)
 3297 12a6 4FEF      		ldi r20,lo8(-1)
 3298 12a8 0E94 0000 		call lcd_graphics_plot_pixel
 3299               	.LM331:
 3300 12ac 84E1      		ldi r24,lo8(20)
 3301 12ae 90E0      		ldi r25,hi8(20)
 3302 12b0 62E1      		ldi r22,lo8(18)
 3303 12b2 70E0      		ldi r23,hi8(18)
 3304 12b4 4FEF      		ldi r20,lo8(-1)
 3305 12b6 0E94 0000 		call lcd_graphics_plot_pixel
 3306               	.LM332:
 3307 12ba 84E1      		ldi r24,lo8(20)
 3308 12bc 90E0      		ldi r25,hi8(20)
 3309 12be 63E1      		ldi r22,lo8(19)
 3310 12c0 70E0      		ldi r23,hi8(19)
 3311 12c2 4FEF      		ldi r20,lo8(-1)
 3312 12c4 0E94 0000 		call lcd_graphics_plot_pixel
 3313               	.LM333:
 3314 12c8 84E1      		ldi r24,lo8(20)
 3315 12ca 90E0      		ldi r25,hi8(20)
 3316 12cc 64E1      		ldi r22,lo8(20)
 3317 12ce 70E0      		ldi r23,hi8(20)
 3318 12d0 4FEF      		ldi r20,lo8(-1)
 3319 12d2 0E94 0000 		call lcd_graphics_plot_pixel
 3320               	.LM334:
 3321 12d6 84E1      		ldi r24,lo8(20)
 3322 12d8 90E0      		ldi r25,hi8(20)
 3323 12da 65E1      		ldi r22,lo8(21)
 3324 12dc 70E0      		ldi r23,hi8(21)
 3325 12de 4FEF      		ldi r20,lo8(-1)
 3326 12e0 0E94 0000 		call lcd_graphics_plot_pixel
 3327               	.LM335:
 3328 12e4 84E1      		ldi r24,lo8(20)
 3329 12e6 90E0      		ldi r25,hi8(20)
 3330 12e8 66E1      		ldi r22,lo8(22)
 3331 12ea 70E0      		ldi r23,hi8(22)
 3332 12ec 4FEF      		ldi r20,lo8(-1)
 3333 12ee 0E94 0000 		call lcd_graphics_plot_pixel
 3334               	.LM336:
 3335 12f2 84E1      		ldi r24,lo8(20)
 3336 12f4 90E0      		ldi r25,hi8(20)
 3337 12f6 67E1      		ldi r22,lo8(23)
 3338 12f8 70E0      		ldi r23,hi8(23)
 3339 12fa 4FEF      		ldi r20,lo8(-1)
 3340 12fc 0E94 0000 		call lcd_graphics_plot_pixel
 3341               	.LM337:
 3342 1300 84E1      		ldi r24,lo8(20)
 3343 1302 90E0      		ldi r25,hi8(20)
 3344 1304 68E1      		ldi r22,lo8(24)
 3345 1306 70E0      		ldi r23,hi8(24)
 3346 1308 4FEF      		ldi r20,lo8(-1)
 3347 130a 0E94 0000 		call lcd_graphics_plot_pixel
 3348               	.LM338:
 3349 130e 84E1      		ldi r24,lo8(20)
 3350 1310 90E0      		ldi r25,hi8(20)
 3351 1312 6AE1      		ldi r22,lo8(26)
 3352 1314 70E0      		ldi r23,hi8(26)
 3353 1316 4FEF      		ldi r20,lo8(-1)
 3354 1318 0E94 0000 		call lcd_graphics_plot_pixel
 3355               	.LM339:
 3356 131c 84E1      		ldi r24,lo8(20)
 3357 131e 90E0      		ldi r25,hi8(20)
 3358 1320 6BE1      		ldi r22,lo8(27)
 3359 1322 70E0      		ldi r23,hi8(27)
 3360 1324 4FEF      		ldi r20,lo8(-1)
 3361 1326 0E94 0000 		call lcd_graphics_plot_pixel
 3362               	.LM340:
 3363 132a 84E1      		ldi r24,lo8(20)
 3364 132c 90E0      		ldi r25,hi8(20)
 3365 132e 6CE1      		ldi r22,lo8(28)
 3366 1330 70E0      		ldi r23,hi8(28)
 3367 1332 4FEF      		ldi r20,lo8(-1)
 3368 1334 0E94 0000 		call lcd_graphics_plot_pixel
 3369               	.LM341:
 3370 1338 84E1      		ldi r24,lo8(20)
 3371 133a 90E0      		ldi r25,hi8(20)
 3372 133c 6DE1      		ldi r22,lo8(29)
 3373 133e 70E0      		ldi r23,hi8(29)
 3374 1340 4FEF      		ldi r20,lo8(-1)
 3375 1342 0E94 0000 		call lcd_graphics_plot_pixel
 3376               	.LM342:
 3377 1346 84E1      		ldi r24,lo8(20)
 3378 1348 90E0      		ldi r25,hi8(20)
 3379 134a 6EE1      		ldi r22,lo8(30)
 3380 134c 70E0      		ldi r23,hi8(30)
 3381 134e 4FEF      		ldi r20,lo8(-1)
 3382 1350 0E94 0000 		call lcd_graphics_plot_pixel
 3383               	.LM343:
 3384 1354 84E1      		ldi r24,lo8(20)
 3385 1356 90E0      		ldi r25,hi8(20)
 3386 1358 6FE1      		ldi r22,lo8(31)
 3387 135a 70E0      		ldi r23,hi8(31)
 3388 135c 4FEF      		ldi r20,lo8(-1)
 3389 135e 0E94 0000 		call lcd_graphics_plot_pixel
 3390               	.LM344:
 3391 1362 84E1      		ldi r24,lo8(20)
 3392 1364 90E0      		ldi r25,hi8(20)
 3393 1366 65E2      		ldi r22,lo8(37)
 3394 1368 70E0      		ldi r23,hi8(37)
 3395 136a 4FEF      		ldi r20,lo8(-1)
 3396 136c 0E94 0000 		call lcd_graphics_plot_pixel
 3397               	.LM345:
 3398 1370 84E1      		ldi r24,lo8(20)
 3399 1372 90E0      		ldi r25,hi8(20)
 3400 1374 66E2      		ldi r22,lo8(38)
 3401 1376 70E0      		ldi r23,hi8(38)
 3402 1378 4FEF      		ldi r20,lo8(-1)
 3403 137a 0E94 0000 		call lcd_graphics_plot_pixel
 3404               	.LM346:
 3405 137e 84E1      		ldi r24,lo8(20)
 3406 1380 90E0      		ldi r25,hi8(20)
 3407 1382 67E2      		ldi r22,lo8(39)
 3408 1384 70E0      		ldi r23,hi8(39)
 3409 1386 4FEF      		ldi r20,lo8(-1)
 3410 1388 0E94 0000 		call lcd_graphics_plot_pixel
 3411               	.LM347:
 3412 138c 85E1      		ldi r24,lo8(21)
 3413 138e 90E0      		ldi r25,hi8(21)
 3414 1390 63E0      		ldi r22,lo8(3)
 3415 1392 70E0      		ldi r23,hi8(3)
 3416 1394 4FEF      		ldi r20,lo8(-1)
 3417 1396 0E94 0000 		call lcd_graphics_plot_pixel
 3418               	.LM348:
 3419 139a 85E1      		ldi r24,lo8(21)
 3420 139c 90E0      		ldi r25,hi8(21)
 3421 139e 64E0      		ldi r22,lo8(4)
 3422 13a0 70E0      		ldi r23,hi8(4)
 3423 13a2 4FEF      		ldi r20,lo8(-1)
 3424 13a4 0E94 0000 		call lcd_graphics_plot_pixel
 3425               	.LM349:
 3426 13a8 85E1      		ldi r24,lo8(21)
 3427 13aa 90E0      		ldi r25,hi8(21)
 3428 13ac 65E0      		ldi r22,lo8(5)
 3429 13ae 70E0      		ldi r23,hi8(5)
 3430 13b0 4FEF      		ldi r20,lo8(-1)
 3431 13b2 0E94 0000 		call lcd_graphics_plot_pixel
 3432               	.LM350:
 3433 13b6 85E1      		ldi r24,lo8(21)
 3434 13b8 90E0      		ldi r25,hi8(21)
 3435 13ba 66E0      		ldi r22,lo8(6)
 3436 13bc 70E0      		ldi r23,hi8(6)
 3437 13be 4FEF      		ldi r20,lo8(-1)
 3438 13c0 0E94 0000 		call lcd_graphics_plot_pixel
 3439               	.LM351:
 3440 13c4 85E1      		ldi r24,lo8(21)
 3441 13c6 90E0      		ldi r25,hi8(21)
 3442 13c8 67E0      		ldi r22,lo8(7)
 3443 13ca 70E0      		ldi r23,hi8(7)
 3444 13cc 4FEF      		ldi r20,lo8(-1)
 3445 13ce 0E94 0000 		call lcd_graphics_plot_pixel
 3446               	.LM352:
 3447 13d2 85E1      		ldi r24,lo8(21)
 3448 13d4 90E0      		ldi r25,hi8(21)
 3449 13d6 68E0      		ldi r22,lo8(8)
 3450 13d8 70E0      		ldi r23,hi8(8)
 3451 13da 4FEF      		ldi r20,lo8(-1)
 3452 13dc 0E94 0000 		call lcd_graphics_plot_pixel
 3453               	.LM353:
 3454 13e0 85E1      		ldi r24,lo8(21)
 3455 13e2 90E0      		ldi r25,hi8(21)
 3456 13e4 69E0      		ldi r22,lo8(9)
 3457 13e6 70E0      		ldi r23,hi8(9)
 3458 13e8 4FEF      		ldi r20,lo8(-1)
 3459 13ea 0E94 0000 		call lcd_graphics_plot_pixel
 3460               	.LM354:
 3461 13ee 85E1      		ldi r24,lo8(21)
 3462 13f0 90E0      		ldi r25,hi8(21)
 3463 13f2 6AE0      		ldi r22,lo8(10)
 3464 13f4 70E0      		ldi r23,hi8(10)
 3465 13f6 4FEF      		ldi r20,lo8(-1)
 3466 13f8 0E94 0000 		call lcd_graphics_plot_pixel
 3467               	.LM355:
 3468 13fc 85E1      		ldi r24,lo8(21)
 3469 13fe 90E0      		ldi r25,hi8(21)
 3470 1400 6BE0      		ldi r22,lo8(11)
 3471 1402 70E0      		ldi r23,hi8(11)
 3472 1404 4FEF      		ldi r20,lo8(-1)
 3473 1406 0E94 0000 		call lcd_graphics_plot_pixel
 3474               	.LM356:
 3475 140a 85E1      		ldi r24,lo8(21)
 3476 140c 90E0      		ldi r25,hi8(21)
 3477 140e 6CE0      		ldi r22,lo8(12)
 3478 1410 70E0      		ldi r23,hi8(12)
 3479 1412 4FEF      		ldi r20,lo8(-1)
 3480 1414 0E94 0000 		call lcd_graphics_plot_pixel
 3481               	.LM357:
 3482 1418 85E1      		ldi r24,lo8(21)
 3483 141a 90E0      		ldi r25,hi8(21)
 3484 141c 6DE0      		ldi r22,lo8(13)
 3485 141e 70E0      		ldi r23,hi8(13)
 3486 1420 4FEF      		ldi r20,lo8(-1)
 3487 1422 0E94 0000 		call lcd_graphics_plot_pixel
 3488               	.LM358:
 3489 1426 85E1      		ldi r24,lo8(21)
 3490 1428 90E0      		ldi r25,hi8(21)
 3491 142a 6EE0      		ldi r22,lo8(14)
 3492 142c 70E0      		ldi r23,hi8(14)
 3493 142e 4FEF      		ldi r20,lo8(-1)
 3494 1430 0E94 0000 		call lcd_graphics_plot_pixel
 3495               	.LM359:
 3496 1434 85E1      		ldi r24,lo8(21)
 3497 1436 90E0      		ldi r25,hi8(21)
 3498 1438 6FE0      		ldi r22,lo8(15)
 3499 143a 70E0      		ldi r23,hi8(15)
 3500 143c 4FEF      		ldi r20,lo8(-1)
 3501 143e 0E94 0000 		call lcd_graphics_plot_pixel
 3502               	.LM360:
 3503 1442 85E1      		ldi r24,lo8(21)
 3504 1444 90E0      		ldi r25,hi8(21)
 3505 1446 60E1      		ldi r22,lo8(16)
 3506 1448 70E0      		ldi r23,hi8(16)
 3507 144a 4FEF      		ldi r20,lo8(-1)
 3508 144c 0E94 0000 		call lcd_graphics_plot_pixel
 3509               	.LM361:
 3510 1450 85E1      		ldi r24,lo8(21)
 3511 1452 90E0      		ldi r25,hi8(21)
 3512 1454 61E1      		ldi r22,lo8(17)
 3513 1456 70E0      		ldi r23,hi8(17)
 3514 1458 4FEF      		ldi r20,lo8(-1)
 3515 145a 0E94 0000 		call lcd_graphics_plot_pixel
 3516               	.LM362:
 3517 145e 85E1      		ldi r24,lo8(21)
 3518 1460 90E0      		ldi r25,hi8(21)
 3519 1462 62E1      		ldi r22,lo8(18)
 3520 1464 70E0      		ldi r23,hi8(18)
 3521 1466 4FEF      		ldi r20,lo8(-1)
 3522 1468 0E94 0000 		call lcd_graphics_plot_pixel
 3523               	.LM363:
 3524 146c 85E1      		ldi r24,lo8(21)
 3525 146e 90E0      		ldi r25,hi8(21)
 3526 1470 63E1      		ldi r22,lo8(19)
 3527 1472 70E0      		ldi r23,hi8(19)
 3528 1474 4FEF      		ldi r20,lo8(-1)
 3529 1476 0E94 0000 		call lcd_graphics_plot_pixel
 3530               	.LM364:
 3531 147a 85E1      		ldi r24,lo8(21)
 3532 147c 90E0      		ldi r25,hi8(21)
 3533 147e 64E1      		ldi r22,lo8(20)
 3534 1480 70E0      		ldi r23,hi8(20)
 3535 1482 4FEF      		ldi r20,lo8(-1)
 3536 1484 0E94 0000 		call lcd_graphics_plot_pixel
 3537               	.LM365:
 3538 1488 85E1      		ldi r24,lo8(21)
 3539 148a 90E0      		ldi r25,hi8(21)
 3540 148c 65E1      		ldi r22,lo8(21)
 3541 148e 70E0      		ldi r23,hi8(21)
 3542 1490 4FEF      		ldi r20,lo8(-1)
 3543 1492 0E94 0000 		call lcd_graphics_plot_pixel
 3544               	.LM366:
 3545 1496 85E1      		ldi r24,lo8(21)
 3546 1498 90E0      		ldi r25,hi8(21)
 3547 149a 66E1      		ldi r22,lo8(22)
 3548 149c 70E0      		ldi r23,hi8(22)
 3549 149e 4FEF      		ldi r20,lo8(-1)
 3550 14a0 0E94 0000 		call lcd_graphics_plot_pixel
 3551               	.LM367:
 3552 14a4 85E1      		ldi r24,lo8(21)
 3553 14a6 90E0      		ldi r25,hi8(21)
 3554 14a8 67E1      		ldi r22,lo8(23)
 3555 14aa 70E0      		ldi r23,hi8(23)
 3556 14ac 4FEF      		ldi r20,lo8(-1)
 3557 14ae 0E94 0000 		call lcd_graphics_plot_pixel
 3558               	.LM368:
 3559 14b2 85E1      		ldi r24,lo8(21)
 3560 14b4 90E0      		ldi r25,hi8(21)
 3561 14b6 68E1      		ldi r22,lo8(24)
 3562 14b8 70E0      		ldi r23,hi8(24)
 3563 14ba 4FEF      		ldi r20,lo8(-1)
 3564 14bc 0E94 0000 		call lcd_graphics_plot_pixel
 3565               	.LM369:
 3566 14c0 85E1      		ldi r24,lo8(21)
 3567 14c2 90E0      		ldi r25,hi8(21)
 3568 14c4 6AE1      		ldi r22,lo8(26)
 3569 14c6 70E0      		ldi r23,hi8(26)
 3570 14c8 4FEF      		ldi r20,lo8(-1)
 3571 14ca 0E94 0000 		call lcd_graphics_plot_pixel
 3572               	.LM370:
 3573 14ce 85E1      		ldi r24,lo8(21)
 3574 14d0 90E0      		ldi r25,hi8(21)
 3575 14d2 6BE1      		ldi r22,lo8(27)
 3576 14d4 70E0      		ldi r23,hi8(27)
 3577 14d6 4FEF      		ldi r20,lo8(-1)
 3578 14d8 0E94 0000 		call lcd_graphics_plot_pixel
 3579               	.LM371:
 3580 14dc 85E1      		ldi r24,lo8(21)
 3581 14de 90E0      		ldi r25,hi8(21)
 3582 14e0 6CE1      		ldi r22,lo8(28)
 3583 14e2 70E0      		ldi r23,hi8(28)
 3584 14e4 4FEF      		ldi r20,lo8(-1)
 3585 14e6 0E94 0000 		call lcd_graphics_plot_pixel
 3586               	.LM372:
 3587 14ea 85E1      		ldi r24,lo8(21)
 3588 14ec 90E0      		ldi r25,hi8(21)
 3589 14ee 6DE1      		ldi r22,lo8(29)
 3590 14f0 70E0      		ldi r23,hi8(29)
 3591 14f2 4FEF      		ldi r20,lo8(-1)
 3592 14f4 0E94 0000 		call lcd_graphics_plot_pixel
 3593               	.LM373:
 3594 14f8 85E1      		ldi r24,lo8(21)
 3595 14fa 90E0      		ldi r25,hi8(21)
 3596 14fc 6EE1      		ldi r22,lo8(30)
 3597 14fe 70E0      		ldi r23,hi8(30)
 3598 1500 4FEF      		ldi r20,lo8(-1)
 3599 1502 0E94 0000 		call lcd_graphics_plot_pixel
 3600               	.LM374:
 3601 1506 85E1      		ldi r24,lo8(21)
 3602 1508 90E0      		ldi r25,hi8(21)
 3603 150a 6FE1      		ldi r22,lo8(31)
 3604 150c 70E0      		ldi r23,hi8(31)
 3605 150e 4FEF      		ldi r20,lo8(-1)
 3606 1510 0E94 0000 		call lcd_graphics_plot_pixel
 3607               	.LM375:
 3608 1514 85E1      		ldi r24,lo8(21)
 3609 1516 90E0      		ldi r25,hi8(21)
 3610 1518 65E2      		ldi r22,lo8(37)
 3611 151a 70E0      		ldi r23,hi8(37)
 3612 151c 4FEF      		ldi r20,lo8(-1)
 3613 151e 0E94 0000 		call lcd_graphics_plot_pixel
 3614               	.LM376:
 3615 1522 85E1      		ldi r24,lo8(21)
 3616 1524 90E0      		ldi r25,hi8(21)
 3617 1526 66E2      		ldi r22,lo8(38)
 3618 1528 70E0      		ldi r23,hi8(38)
 3619 152a 4FEF      		ldi r20,lo8(-1)
 3620 152c 0E94 0000 		call lcd_graphics_plot_pixel
 3621               	.LM377:
 3622 1530 85E1      		ldi r24,lo8(21)
 3623 1532 90E0      		ldi r25,hi8(21)
 3624 1534 67E2      		ldi r22,lo8(39)
 3625 1536 70E0      		ldi r23,hi8(39)
 3626 1538 4FEF      		ldi r20,lo8(-1)
 3627 153a 0E94 0000 		call lcd_graphics_plot_pixel
 3628               	.LM378:
 3629 153e 85E1      		ldi r24,lo8(21)
 3630 1540 90E0      		ldi r25,hi8(21)
 3631 1542 6EE2      		ldi r22,lo8(46)
 3632 1544 70E0      		ldi r23,hi8(46)
 3633 1546 4FEF      		ldi r20,lo8(-1)
 3634 1548 0E94 0000 		call lcd_graphics_plot_pixel
 3635               	.LM379:
 3636 154c 85E1      		ldi r24,lo8(21)
 3637 154e 90E0      		ldi r25,hi8(21)
 3638 1550 6FE2      		ldi r22,lo8(47)
 3639 1552 70E0      		ldi r23,hi8(47)
 3640 1554 4FEF      		ldi r20,lo8(-1)
 3641 1556 0E94 0000 		call lcd_graphics_plot_pixel
 3642               	.LM380:
 3643 155a 85E1      		ldi r24,lo8(21)
 3644 155c 90E0      		ldi r25,hi8(21)
 3645 155e 60E3      		ldi r22,lo8(48)
 3646 1560 70E0      		ldi r23,hi8(48)
 3647 1562 4FEF      		ldi r20,lo8(-1)
 3648 1564 0E94 0000 		call lcd_graphics_plot_pixel
 3649               	.LM381:
 3650 1568 85E1      		ldi r24,lo8(21)
 3651 156a 90E0      		ldi r25,hi8(21)
 3652 156c 61E3      		ldi r22,lo8(49)
 3653 156e 70E0      		ldi r23,hi8(49)
 3654 1570 4FEF      		ldi r20,lo8(-1)
 3655 1572 0E94 0000 		call lcd_graphics_plot_pixel
 3656               	.LM382:
 3657 1576 85E1      		ldi r24,lo8(21)
 3658 1578 90E0      		ldi r25,hi8(21)
 3659 157a 62E3      		ldi r22,lo8(50)
 3660 157c 70E0      		ldi r23,hi8(50)
 3661 157e 4FEF      		ldi r20,lo8(-1)
 3662 1580 0E94 0000 		call lcd_graphics_plot_pixel
 3663               	.LM383:
 3664 1584 85E1      		ldi r24,lo8(21)
 3665 1586 90E0      		ldi r25,hi8(21)
 3666 1588 63E3      		ldi r22,lo8(51)
 3667 158a 70E0      		ldi r23,hi8(51)
 3668 158c 4FEF      		ldi r20,lo8(-1)
 3669 158e 0E94 0000 		call lcd_graphics_plot_pixel
 3670               	.LM384:
 3671 1592 85E1      		ldi r24,lo8(21)
 3672 1594 90E0      		ldi r25,hi8(21)
 3673 1596 64E3      		ldi r22,lo8(52)
 3674 1598 70E0      		ldi r23,hi8(52)
 3675 159a 4FEF      		ldi r20,lo8(-1)
 3676 159c 0E94 0000 		call lcd_graphics_plot_pixel
 3677               	.LM385:
 3678 15a0 85E1      		ldi r24,lo8(21)
 3679 15a2 90E0      		ldi r25,hi8(21)
 3680 15a4 65E3      		ldi r22,lo8(53)
 3681 15a6 70E0      		ldi r23,hi8(53)
 3682 15a8 4FEF      		ldi r20,lo8(-1)
 3683 15aa 0E94 0000 		call lcd_graphics_plot_pixel
 3684               	.LM386:
 3685 15ae 85E1      		ldi r24,lo8(21)
 3686 15b0 90E0      		ldi r25,hi8(21)
 3687 15b2 66E3      		ldi r22,lo8(54)
 3688 15b4 70E0      		ldi r23,hi8(54)
 3689 15b6 4FEF      		ldi r20,lo8(-1)
 3690 15b8 0E94 0000 		call lcd_graphics_plot_pixel
 3691               	.LM387:
 3692 15bc 85E1      		ldi r24,lo8(21)
 3693 15be 90E0      		ldi r25,hi8(21)
 3694 15c0 67E3      		ldi r22,lo8(55)
 3695 15c2 70E0      		ldi r23,hi8(55)
 3696 15c4 4FEF      		ldi r20,lo8(-1)
 3697 15c6 0E94 0000 		call lcd_graphics_plot_pixel
 3698               	.LM388:
 3699 15ca 86E1      		ldi r24,lo8(22)
 3700 15cc 90E0      		ldi r25,hi8(22)
 3701 15ce 63E0      		ldi r22,lo8(3)
 3702 15d0 70E0      		ldi r23,hi8(3)
 3703 15d2 4FEF      		ldi r20,lo8(-1)
 3704 15d4 0E94 0000 		call lcd_graphics_plot_pixel
 3705               	.LM389:
 3706 15d8 86E1      		ldi r24,lo8(22)
 3707 15da 90E0      		ldi r25,hi8(22)
 3708 15dc 64E0      		ldi r22,lo8(4)
 3709 15de 70E0      		ldi r23,hi8(4)
 3710 15e0 4FEF      		ldi r20,lo8(-1)
 3711 15e2 0E94 0000 		call lcd_graphics_plot_pixel
 3712               	.LM390:
 3713 15e6 86E1      		ldi r24,lo8(22)
 3714 15e8 90E0      		ldi r25,hi8(22)
 3715 15ea 65E0      		ldi r22,lo8(5)
 3716 15ec 70E0      		ldi r23,hi8(5)
 3717 15ee 4FEF      		ldi r20,lo8(-1)
 3718 15f0 0E94 0000 		call lcd_graphics_plot_pixel
 3719               	.LM391:
 3720 15f4 86E1      		ldi r24,lo8(22)
 3721 15f6 90E0      		ldi r25,hi8(22)
 3722 15f8 66E0      		ldi r22,lo8(6)
 3723 15fa 70E0      		ldi r23,hi8(6)
 3724 15fc 4FEF      		ldi r20,lo8(-1)
 3725 15fe 0E94 0000 		call lcd_graphics_plot_pixel
 3726               	.LM392:
 3727 1602 86E1      		ldi r24,lo8(22)
 3728 1604 90E0      		ldi r25,hi8(22)
 3729 1606 67E0      		ldi r22,lo8(7)
 3730 1608 70E0      		ldi r23,hi8(7)
 3731 160a 4FEF      		ldi r20,lo8(-1)
 3732 160c 0E94 0000 		call lcd_graphics_plot_pixel
 3733               	.LM393:
 3734 1610 86E1      		ldi r24,lo8(22)
 3735 1612 90E0      		ldi r25,hi8(22)
 3736 1614 68E0      		ldi r22,lo8(8)
 3737 1616 70E0      		ldi r23,hi8(8)
 3738 1618 4FEF      		ldi r20,lo8(-1)
 3739 161a 0E94 0000 		call lcd_graphics_plot_pixel
 3740               	.LM394:
 3741 161e 86E1      		ldi r24,lo8(22)
 3742 1620 90E0      		ldi r25,hi8(22)
 3743 1622 69E0      		ldi r22,lo8(9)
 3744 1624 70E0      		ldi r23,hi8(9)
 3745 1626 4FEF      		ldi r20,lo8(-1)
 3746 1628 0E94 0000 		call lcd_graphics_plot_pixel
 3747               	.LM395:
 3748 162c 86E1      		ldi r24,lo8(22)
 3749 162e 90E0      		ldi r25,hi8(22)
 3750 1630 6AE0      		ldi r22,lo8(10)
 3751 1632 70E0      		ldi r23,hi8(10)
 3752 1634 4FEF      		ldi r20,lo8(-1)
 3753 1636 0E94 0000 		call lcd_graphics_plot_pixel
 3754               	.LM396:
 3755 163a 86E1      		ldi r24,lo8(22)
 3756 163c 90E0      		ldi r25,hi8(22)
 3757 163e 6BE0      		ldi r22,lo8(11)
 3758 1640 70E0      		ldi r23,hi8(11)
 3759 1642 4FEF      		ldi r20,lo8(-1)
 3760 1644 0E94 0000 		call lcd_graphics_plot_pixel
 3761               	.LM397:
 3762 1648 86E1      		ldi r24,lo8(22)
 3763 164a 90E0      		ldi r25,hi8(22)
 3764 164c 6CE0      		ldi r22,lo8(12)
 3765 164e 70E0      		ldi r23,hi8(12)
 3766 1650 4FEF      		ldi r20,lo8(-1)
 3767 1652 0E94 0000 		call lcd_graphics_plot_pixel
 3768               	.LM398:
 3769 1656 86E1      		ldi r24,lo8(22)
 3770 1658 90E0      		ldi r25,hi8(22)
 3771 165a 6DE0      		ldi r22,lo8(13)
 3772 165c 70E0      		ldi r23,hi8(13)
 3773 165e 4FEF      		ldi r20,lo8(-1)
 3774 1660 0E94 0000 		call lcd_graphics_plot_pixel
 3775               	.LM399:
 3776 1664 86E1      		ldi r24,lo8(22)
 3777 1666 90E0      		ldi r25,hi8(22)
 3778 1668 6EE0      		ldi r22,lo8(14)
 3779 166a 70E0      		ldi r23,hi8(14)
 3780 166c 4FEF      		ldi r20,lo8(-1)
 3781 166e 0E94 0000 		call lcd_graphics_plot_pixel
 3782               	.LM400:
 3783 1672 86E1      		ldi r24,lo8(22)
 3784 1674 90E0      		ldi r25,hi8(22)
 3785 1676 6FE0      		ldi r22,lo8(15)
 3786 1678 70E0      		ldi r23,hi8(15)
 3787 167a 4FEF      		ldi r20,lo8(-1)
 3788 167c 0E94 0000 		call lcd_graphics_plot_pixel
 3789               	.LM401:
 3790 1680 86E1      		ldi r24,lo8(22)
 3791 1682 90E0      		ldi r25,hi8(22)
 3792 1684 60E1      		ldi r22,lo8(16)
 3793 1686 70E0      		ldi r23,hi8(16)
 3794 1688 4FEF      		ldi r20,lo8(-1)
 3795 168a 0E94 0000 		call lcd_graphics_plot_pixel
 3796               	.LM402:
 3797 168e 86E1      		ldi r24,lo8(22)
 3798 1690 90E0      		ldi r25,hi8(22)
 3799 1692 61E1      		ldi r22,lo8(17)
 3800 1694 70E0      		ldi r23,hi8(17)
 3801 1696 4FEF      		ldi r20,lo8(-1)
 3802 1698 0E94 0000 		call lcd_graphics_plot_pixel
 3803               	.LM403:
 3804 169c 86E1      		ldi r24,lo8(22)
 3805 169e 90E0      		ldi r25,hi8(22)
 3806 16a0 62E1      		ldi r22,lo8(18)
 3807 16a2 70E0      		ldi r23,hi8(18)
 3808 16a4 4FEF      		ldi r20,lo8(-1)
 3809 16a6 0E94 0000 		call lcd_graphics_plot_pixel
 3810               	.LM404:
 3811 16aa 86E1      		ldi r24,lo8(22)
 3812 16ac 90E0      		ldi r25,hi8(22)
 3813 16ae 63E1      		ldi r22,lo8(19)
 3814 16b0 70E0      		ldi r23,hi8(19)
 3815 16b2 4FEF      		ldi r20,lo8(-1)
 3816 16b4 0E94 0000 		call lcd_graphics_plot_pixel
 3817               	.LM405:
 3818 16b8 86E1      		ldi r24,lo8(22)
 3819 16ba 90E0      		ldi r25,hi8(22)
 3820 16bc 64E1      		ldi r22,lo8(20)
 3821 16be 70E0      		ldi r23,hi8(20)
 3822 16c0 4FEF      		ldi r20,lo8(-1)
 3823 16c2 0E94 0000 		call lcd_graphics_plot_pixel
 3824               	.LM406:
 3825 16c6 86E1      		ldi r24,lo8(22)
 3826 16c8 90E0      		ldi r25,hi8(22)
 3827 16ca 65E1      		ldi r22,lo8(21)
 3828 16cc 70E0      		ldi r23,hi8(21)
 3829 16ce 4FEF      		ldi r20,lo8(-1)
 3830 16d0 0E94 0000 		call lcd_graphics_plot_pixel
 3831               	.LM407:
 3832 16d4 86E1      		ldi r24,lo8(22)
 3833 16d6 90E0      		ldi r25,hi8(22)
 3834 16d8 66E1      		ldi r22,lo8(22)
 3835 16da 70E0      		ldi r23,hi8(22)
 3836 16dc 4FEF      		ldi r20,lo8(-1)
 3837 16de 0E94 0000 		call lcd_graphics_plot_pixel
 3838               	.LM408:
 3839 16e2 86E1      		ldi r24,lo8(22)
 3840 16e4 90E0      		ldi r25,hi8(22)
 3841 16e6 67E1      		ldi r22,lo8(23)
 3842 16e8 70E0      		ldi r23,hi8(23)
 3843 16ea 4FEF      		ldi r20,lo8(-1)
 3844 16ec 0E94 0000 		call lcd_graphics_plot_pixel
 3845               	.LM409:
 3846 16f0 86E1      		ldi r24,lo8(22)
 3847 16f2 90E0      		ldi r25,hi8(22)
 3848 16f4 68E1      		ldi r22,lo8(24)
 3849 16f6 70E0      		ldi r23,hi8(24)
 3850 16f8 4FEF      		ldi r20,lo8(-1)
 3851 16fa 0E94 0000 		call lcd_graphics_plot_pixel
 3852               	.LM410:
 3853 16fe 86E1      		ldi r24,lo8(22)
 3854 1700 90E0      		ldi r25,hi8(22)
 3855 1702 6AE1      		ldi r22,lo8(26)
 3856 1704 70E0      		ldi r23,hi8(26)
 3857 1706 4FEF      		ldi r20,lo8(-1)
 3858 1708 0E94 0000 		call lcd_graphics_plot_pixel
 3859               	.LM411:
 3860 170c 86E1      		ldi r24,lo8(22)
 3861 170e 90E0      		ldi r25,hi8(22)
 3862 1710 6BE1      		ldi r22,lo8(27)
 3863 1712 70E0      		ldi r23,hi8(27)
 3864 1714 4FEF      		ldi r20,lo8(-1)
 3865 1716 0E94 0000 		call lcd_graphics_plot_pixel
 3866               	.LM412:
 3867 171a 86E1      		ldi r24,lo8(22)
 3868 171c 90E0      		ldi r25,hi8(22)
 3869 171e 65E2      		ldi r22,lo8(37)
 3870 1720 70E0      		ldi r23,hi8(37)
 3871 1722 4FEF      		ldi r20,lo8(-1)
 3872 1724 0E94 0000 		call lcd_graphics_plot_pixel
 3873               	.LM413:
 3874 1728 86E1      		ldi r24,lo8(22)
 3875 172a 90E0      		ldi r25,hi8(22)
 3876 172c 66E2      		ldi r22,lo8(38)
 3877 172e 70E0      		ldi r23,hi8(38)
 3878 1730 4FEF      		ldi r20,lo8(-1)
 3879 1732 0E94 0000 		call lcd_graphics_plot_pixel
 3880               	.LM414:
 3881 1736 86E1      		ldi r24,lo8(22)
 3882 1738 90E0      		ldi r25,hi8(22)
 3883 173a 67E2      		ldi r22,lo8(39)
 3884 173c 70E0      		ldi r23,hi8(39)
 3885 173e 4FEF      		ldi r20,lo8(-1)
 3886 1740 0E94 0000 		call lcd_graphics_plot_pixel
 3887               	.LM415:
 3888 1744 86E1      		ldi r24,lo8(22)
 3889 1746 90E0      		ldi r25,hi8(22)
 3890 1748 6EE2      		ldi r22,lo8(46)
 3891 174a 70E0      		ldi r23,hi8(46)
 3892 174c 4FEF      		ldi r20,lo8(-1)
 3893 174e 0E94 0000 		call lcd_graphics_plot_pixel
 3894               	.LM416:
 3895 1752 86E1      		ldi r24,lo8(22)
 3896 1754 90E0      		ldi r25,hi8(22)
 3897 1756 6FE2      		ldi r22,lo8(47)
 3898 1758 70E0      		ldi r23,hi8(47)
 3899 175a 4FEF      		ldi r20,lo8(-1)
 3900 175c 0E94 0000 		call lcd_graphics_plot_pixel
 3901               	.LM417:
 3902 1760 86E1      		ldi r24,lo8(22)
 3903 1762 90E0      		ldi r25,hi8(22)
 3904 1764 60E3      		ldi r22,lo8(48)
 3905 1766 70E0      		ldi r23,hi8(48)
 3906 1768 4FEF      		ldi r20,lo8(-1)
 3907 176a 0E94 0000 		call lcd_graphics_plot_pixel
 3908               	.LM418:
 3909 176e 86E1      		ldi r24,lo8(22)
 3910 1770 90E0      		ldi r25,hi8(22)
 3911 1772 61E3      		ldi r22,lo8(49)
 3912 1774 70E0      		ldi r23,hi8(49)
 3913 1776 4FEF      		ldi r20,lo8(-1)
 3914 1778 0E94 0000 		call lcd_graphics_plot_pixel
 3915               	.LM419:
 3916 177c 86E1      		ldi r24,lo8(22)
 3917 177e 90E0      		ldi r25,hi8(22)
 3918 1780 62E3      		ldi r22,lo8(50)
 3919 1782 70E0      		ldi r23,hi8(50)
 3920 1784 4FEF      		ldi r20,lo8(-1)
 3921 1786 0E94 0000 		call lcd_graphics_plot_pixel
 3922               	.LM420:
 3923 178a 86E1      		ldi r24,lo8(22)
 3924 178c 90E0      		ldi r25,hi8(22)
 3925 178e 63E3      		ldi r22,lo8(51)
 3926 1790 70E0      		ldi r23,hi8(51)
 3927 1792 4FEF      		ldi r20,lo8(-1)
 3928 1794 0E94 0000 		call lcd_graphics_plot_pixel
 3929               	.LM421:
 3930 1798 86E1      		ldi r24,lo8(22)
 3931 179a 90E0      		ldi r25,hi8(22)
 3932 179c 64E3      		ldi r22,lo8(52)
 3933 179e 70E0      		ldi r23,hi8(52)
 3934 17a0 4FEF      		ldi r20,lo8(-1)
 3935 17a2 0E94 0000 		call lcd_graphics_plot_pixel
 3936               	.LM422:
 3937 17a6 86E1      		ldi r24,lo8(22)
 3938 17a8 90E0      		ldi r25,hi8(22)
 3939 17aa 65E3      		ldi r22,lo8(53)
 3940 17ac 70E0      		ldi r23,hi8(53)
 3941 17ae 4FEF      		ldi r20,lo8(-1)
 3942 17b0 0E94 0000 		call lcd_graphics_plot_pixel
 3943               	.LM423:
 3944 17b4 86E1      		ldi r24,lo8(22)
 3945 17b6 90E0      		ldi r25,hi8(22)
 3946 17b8 66E3      		ldi r22,lo8(54)
 3947 17ba 70E0      		ldi r23,hi8(54)
 3948 17bc 4FEF      		ldi r20,lo8(-1)
 3949 17be 0E94 0000 		call lcd_graphics_plot_pixel
 3950               	.LM424:
 3951 17c2 86E1      		ldi r24,lo8(22)
 3952 17c4 90E0      		ldi r25,hi8(22)
 3953 17c6 67E3      		ldi r22,lo8(55)
 3954 17c8 70E0      		ldi r23,hi8(55)
 3955 17ca 4FEF      		ldi r20,lo8(-1)
 3956 17cc 0E94 0000 		call lcd_graphics_plot_pixel
 3957               	.LM425:
 3958 17d0 87E1      		ldi r24,lo8(23)
 3959 17d2 90E0      		ldi r25,hi8(23)
 3960 17d4 63E0      		ldi r22,lo8(3)
 3961 17d6 70E0      		ldi r23,hi8(3)
 3962 17d8 4FEF      		ldi r20,lo8(-1)
 3963 17da 0E94 0000 		call lcd_graphics_plot_pixel
 3964               	.LM426:
 3965 17de 87E1      		ldi r24,lo8(23)
 3966 17e0 90E0      		ldi r25,hi8(23)
 3967 17e2 64E0      		ldi r22,lo8(4)
 3968 17e4 70E0      		ldi r23,hi8(4)
 3969 17e6 4FEF      		ldi r20,lo8(-1)
 3970 17e8 0E94 0000 		call lcd_graphics_plot_pixel
 3971               	.LM427:
 3972 17ec 87E1      		ldi r24,lo8(23)
 3973 17ee 90E0      		ldi r25,hi8(23)
 3974 17f0 65E0      		ldi r22,lo8(5)
 3975 17f2 70E0      		ldi r23,hi8(5)
 3976 17f4 4FEF      		ldi r20,lo8(-1)
 3977 17f6 0E94 0000 		call lcd_graphics_plot_pixel
 3978               	.LM428:
 3979 17fa 87E1      		ldi r24,lo8(23)
 3980 17fc 90E0      		ldi r25,hi8(23)
 3981 17fe 66E0      		ldi r22,lo8(6)
 3982 1800 70E0      		ldi r23,hi8(6)
 3983 1802 4FEF      		ldi r20,lo8(-1)
 3984 1804 0E94 0000 		call lcd_graphics_plot_pixel
 3985               	.LM429:
 3986 1808 87E1      		ldi r24,lo8(23)
 3987 180a 90E0      		ldi r25,hi8(23)
 3988 180c 67E0      		ldi r22,lo8(7)
 3989 180e 70E0      		ldi r23,hi8(7)
 3990 1810 4FEF      		ldi r20,lo8(-1)
 3991 1812 0E94 0000 		call lcd_graphics_plot_pixel
 3992               	.LM430:
 3993 1816 87E1      		ldi r24,lo8(23)
 3994 1818 90E0      		ldi r25,hi8(23)
 3995 181a 68E0      		ldi r22,lo8(8)
 3996 181c 70E0      		ldi r23,hi8(8)
 3997 181e 4FEF      		ldi r20,lo8(-1)
 3998 1820 0E94 0000 		call lcd_graphics_plot_pixel
 3999               	.LM431:
 4000 1824 87E1      		ldi r24,lo8(23)
 4001 1826 90E0      		ldi r25,hi8(23)
 4002 1828 69E0      		ldi r22,lo8(9)
 4003 182a 70E0      		ldi r23,hi8(9)
 4004 182c 4FEF      		ldi r20,lo8(-1)
 4005 182e 0E94 0000 		call lcd_graphics_plot_pixel
 4006               	.LM432:
 4007 1832 87E1      		ldi r24,lo8(23)
 4008 1834 90E0      		ldi r25,hi8(23)
 4009 1836 6AE0      		ldi r22,lo8(10)
 4010 1838 70E0      		ldi r23,hi8(10)
 4011 183a 4FEF      		ldi r20,lo8(-1)
 4012 183c 0E94 0000 		call lcd_graphics_plot_pixel
 4013               	.LM433:
 4014 1840 87E1      		ldi r24,lo8(23)
 4015 1842 90E0      		ldi r25,hi8(23)
 4016 1844 6BE0      		ldi r22,lo8(11)
 4017 1846 70E0      		ldi r23,hi8(11)
 4018 1848 4FEF      		ldi r20,lo8(-1)
 4019 184a 0E94 0000 		call lcd_graphics_plot_pixel
 4020               	.LM434:
 4021 184e 87E1      		ldi r24,lo8(23)
 4022 1850 90E0      		ldi r25,hi8(23)
 4023 1852 6CE0      		ldi r22,lo8(12)
 4024 1854 70E0      		ldi r23,hi8(12)
 4025 1856 4FEF      		ldi r20,lo8(-1)
 4026 1858 0E94 0000 		call lcd_graphics_plot_pixel
 4027               	.LM435:
 4028 185c 87E1      		ldi r24,lo8(23)
 4029 185e 90E0      		ldi r25,hi8(23)
 4030 1860 6DE0      		ldi r22,lo8(13)
 4031 1862 70E0      		ldi r23,hi8(13)
 4032 1864 4FEF      		ldi r20,lo8(-1)
 4033 1866 0E94 0000 		call lcd_graphics_plot_pixel
 4034               	.LM436:
 4035 186a 87E1      		ldi r24,lo8(23)
 4036 186c 90E0      		ldi r25,hi8(23)
 4037 186e 6EE0      		ldi r22,lo8(14)
 4038 1870 70E0      		ldi r23,hi8(14)
 4039 1872 4FEF      		ldi r20,lo8(-1)
 4040 1874 0E94 0000 		call lcd_graphics_plot_pixel
 4041               	.LM437:
 4042 1878 87E1      		ldi r24,lo8(23)
 4043 187a 90E0      		ldi r25,hi8(23)
 4044 187c 6FE0      		ldi r22,lo8(15)
 4045 187e 70E0      		ldi r23,hi8(15)
 4046 1880 4FEF      		ldi r20,lo8(-1)
 4047 1882 0E94 0000 		call lcd_graphics_plot_pixel
 4048               	.LM438:
 4049 1886 87E1      		ldi r24,lo8(23)
 4050 1888 90E0      		ldi r25,hi8(23)
 4051 188a 60E1      		ldi r22,lo8(16)
 4052 188c 70E0      		ldi r23,hi8(16)
 4053 188e 4FEF      		ldi r20,lo8(-1)
 4054 1890 0E94 0000 		call lcd_graphics_plot_pixel
 4055               	.LM439:
 4056 1894 87E1      		ldi r24,lo8(23)
 4057 1896 90E0      		ldi r25,hi8(23)
 4058 1898 61E1      		ldi r22,lo8(17)
 4059 189a 70E0      		ldi r23,hi8(17)
 4060 189c 4FEF      		ldi r20,lo8(-1)
 4061 189e 0E94 0000 		call lcd_graphics_plot_pixel
 4062               	.LM440:
 4063 18a2 87E1      		ldi r24,lo8(23)
 4064 18a4 90E0      		ldi r25,hi8(23)
 4065 18a6 62E1      		ldi r22,lo8(18)
 4066 18a8 70E0      		ldi r23,hi8(18)
 4067 18aa 4FEF      		ldi r20,lo8(-1)
 4068 18ac 0E94 0000 		call lcd_graphics_plot_pixel
 4069               	.LM441:
 4070 18b0 87E1      		ldi r24,lo8(23)
 4071 18b2 90E0      		ldi r25,hi8(23)
 4072 18b4 63E1      		ldi r22,lo8(19)
 4073 18b6 70E0      		ldi r23,hi8(19)
 4074 18b8 4FEF      		ldi r20,lo8(-1)
 4075 18ba 0E94 0000 		call lcd_graphics_plot_pixel
 4076               	.LM442:
 4077 18be 87E1      		ldi r24,lo8(23)
 4078 18c0 90E0      		ldi r25,hi8(23)
 4079 18c2 64E1      		ldi r22,lo8(20)
 4080 18c4 70E0      		ldi r23,hi8(20)
 4081 18c6 4FEF      		ldi r20,lo8(-1)
 4082 18c8 0E94 0000 		call lcd_graphics_plot_pixel
 4083               	.LM443:
 4084 18cc 87E1      		ldi r24,lo8(23)
 4085 18ce 90E0      		ldi r25,hi8(23)
 4086 18d0 65E1      		ldi r22,lo8(21)
 4087 18d2 70E0      		ldi r23,hi8(21)
 4088 18d4 4FEF      		ldi r20,lo8(-1)
 4089 18d6 0E94 0000 		call lcd_graphics_plot_pixel
 4090               	.LM444:
 4091 18da 87E1      		ldi r24,lo8(23)
 4092 18dc 90E0      		ldi r25,hi8(23)
 4093 18de 66E1      		ldi r22,lo8(22)
 4094 18e0 70E0      		ldi r23,hi8(22)
 4095 18e2 4FEF      		ldi r20,lo8(-1)
 4096 18e4 0E94 0000 		call lcd_graphics_plot_pixel
 4097               	.LM445:
 4098 18e8 87E1      		ldi r24,lo8(23)
 4099 18ea 90E0      		ldi r25,hi8(23)
 4100 18ec 67E1      		ldi r22,lo8(23)
 4101 18ee 70E0      		ldi r23,hi8(23)
 4102 18f0 4FEF      		ldi r20,lo8(-1)
 4103 18f2 0E94 0000 		call lcd_graphics_plot_pixel
 4104               	.LM446:
 4105 18f6 87E1      		ldi r24,lo8(23)
 4106 18f8 90E0      		ldi r25,hi8(23)
 4107 18fa 68E1      		ldi r22,lo8(24)
 4108 18fc 70E0      		ldi r23,hi8(24)
 4109 18fe 4FEF      		ldi r20,lo8(-1)
 4110 1900 0E94 0000 		call lcd_graphics_plot_pixel
 4111               	.LM447:
 4112 1904 87E1      		ldi r24,lo8(23)
 4113 1906 90E0      		ldi r25,hi8(23)
 4114 1908 6AE1      		ldi r22,lo8(26)
 4115 190a 70E0      		ldi r23,hi8(26)
 4116 190c 4FEF      		ldi r20,lo8(-1)
 4117 190e 0E94 0000 		call lcd_graphics_plot_pixel
 4118               	.LM448:
 4119 1912 87E1      		ldi r24,lo8(23)
 4120 1914 90E0      		ldi r25,hi8(23)
 4121 1916 6BE1      		ldi r22,lo8(27)
 4122 1918 70E0      		ldi r23,hi8(27)
 4123 191a 4FEF      		ldi r20,lo8(-1)
 4124 191c 0E94 0000 		call lcd_graphics_plot_pixel
 4125               	.LM449:
 4126 1920 87E1      		ldi r24,lo8(23)
 4127 1922 90E0      		ldi r25,hi8(23)
 4128 1924 6CE1      		ldi r22,lo8(28)
 4129 1926 70E0      		ldi r23,hi8(28)
 4130 1928 4FEF      		ldi r20,lo8(-1)
 4131 192a 0E94 0000 		call lcd_graphics_plot_pixel
 4132               	.LM450:
 4133 192e 87E1      		ldi r24,lo8(23)
 4134 1930 90E0      		ldi r25,hi8(23)
 4135 1932 6DE1      		ldi r22,lo8(29)
 4136 1934 70E0      		ldi r23,hi8(29)
 4137 1936 4FEF      		ldi r20,lo8(-1)
 4138 1938 0E94 0000 		call lcd_graphics_plot_pixel
 4139               	.LM451:
 4140 193c 87E1      		ldi r24,lo8(23)
 4141 193e 90E0      		ldi r25,hi8(23)
 4142 1940 6EE1      		ldi r22,lo8(30)
 4143 1942 70E0      		ldi r23,hi8(30)
 4144 1944 4FEF      		ldi r20,lo8(-1)
 4145 1946 0E94 0000 		call lcd_graphics_plot_pixel
 4146               	.LM452:
 4147 194a 87E1      		ldi r24,lo8(23)
 4148 194c 90E0      		ldi r25,hi8(23)
 4149 194e 6FE1      		ldi r22,lo8(31)
 4150 1950 70E0      		ldi r23,hi8(31)
 4151 1952 4FEF      		ldi r20,lo8(-1)
 4152 1954 0E94 0000 		call lcd_graphics_plot_pixel
 4153               	.LM453:
 4154 1958 87E1      		ldi r24,lo8(23)
 4155 195a 90E0      		ldi r25,hi8(23)
 4156 195c 60E2      		ldi r22,lo8(32)
 4157 195e 70E0      		ldi r23,hi8(32)
 4158 1960 4FEF      		ldi r20,lo8(-1)
 4159 1962 0E94 0000 		call lcd_graphics_plot_pixel
 4160               	.LM454:
 4161 1966 87E1      		ldi r24,lo8(23)
 4162 1968 90E0      		ldi r25,hi8(23)
 4163 196a 61E2      		ldi r22,lo8(33)
 4164 196c 70E0      		ldi r23,hi8(33)
 4165 196e 4FEF      		ldi r20,lo8(-1)
 4166 1970 0E94 0000 		call lcd_graphics_plot_pixel
 4167               	.LM455:
 4168 1974 87E1      		ldi r24,lo8(23)
 4169 1976 90E0      		ldi r25,hi8(23)
 4170 1978 62E2      		ldi r22,lo8(34)
 4171 197a 70E0      		ldi r23,hi8(34)
 4172 197c 4FEF      		ldi r20,lo8(-1)
 4173 197e 0E94 0000 		call lcd_graphics_plot_pixel
 4174               	.LM456:
 4175 1982 87E1      		ldi r24,lo8(23)
 4176 1984 90E0      		ldi r25,hi8(23)
 4177 1986 63E2      		ldi r22,lo8(35)
 4178 1988 70E0      		ldi r23,hi8(35)
 4179 198a 4FEF      		ldi r20,lo8(-1)
 4180 198c 0E94 0000 		call lcd_graphics_plot_pixel
 4181               	.LM457:
 4182 1990 87E1      		ldi r24,lo8(23)
 4183 1992 90E0      		ldi r25,hi8(23)
 4184 1994 65E2      		ldi r22,lo8(37)
 4185 1996 70E0      		ldi r23,hi8(37)
 4186 1998 4FEF      		ldi r20,lo8(-1)
 4187 199a 0E94 0000 		call lcd_graphics_plot_pixel
 4188               	.LM458:
 4189 199e 87E1      		ldi r24,lo8(23)
 4190 19a0 90E0      		ldi r25,hi8(23)
 4191 19a2 66E2      		ldi r22,lo8(38)
 4192 19a4 70E0      		ldi r23,hi8(38)
 4193 19a6 4FEF      		ldi r20,lo8(-1)
 4194 19a8 0E94 0000 		call lcd_graphics_plot_pixel
 4195               	.LM459:
 4196 19ac 87E1      		ldi r24,lo8(23)
 4197 19ae 90E0      		ldi r25,hi8(23)
 4198 19b0 67E2      		ldi r22,lo8(39)
 4199 19b2 70E0      		ldi r23,hi8(39)
 4200 19b4 4FEF      		ldi r20,lo8(-1)
 4201 19b6 0E94 0000 		call lcd_graphics_plot_pixel
 4202               	.LM460:
 4203 19ba 87E1      		ldi r24,lo8(23)
 4204 19bc 90E0      		ldi r25,hi8(23)
 4205 19be 6EE2      		ldi r22,lo8(46)
 4206 19c0 70E0      		ldi r23,hi8(46)
 4207 19c2 4FEF      		ldi r20,lo8(-1)
 4208 19c4 0E94 0000 		call lcd_graphics_plot_pixel
 4209               	.LM461:
 4210 19c8 87E1      		ldi r24,lo8(23)
 4211 19ca 90E0      		ldi r25,hi8(23)
 4212 19cc 6FE2      		ldi r22,lo8(47)
 4213 19ce 70E0      		ldi r23,hi8(47)
 4214 19d0 4FEF      		ldi r20,lo8(-1)
 4215 19d2 0E94 0000 		call lcd_graphics_plot_pixel
 4216               	.LM462:
 4217 19d6 87E1      		ldi r24,lo8(23)
 4218 19d8 90E0      		ldi r25,hi8(23)
 4219 19da 62E3      		ldi r22,lo8(50)
 4220 19dc 70E0      		ldi r23,hi8(50)
 4221 19de 4FEF      		ldi r20,lo8(-1)
 4222 19e0 0E94 0000 		call lcd_graphics_plot_pixel
 4223               	.LM463:
 4224 19e4 87E1      		ldi r24,lo8(23)
 4225 19e6 90E0      		ldi r25,hi8(23)
 4226 19e8 63E3      		ldi r22,lo8(51)
 4227 19ea 70E0      		ldi r23,hi8(51)
 4228 19ec 4FEF      		ldi r20,lo8(-1)
 4229 19ee 0E94 0000 		call lcd_graphics_plot_pixel
 4230               	.LM464:
 4231 19f2 88E1      		ldi r24,lo8(24)
 4232 19f4 90E0      		ldi r25,hi8(24)
 4233 19f6 63E0      		ldi r22,lo8(3)
 4234 19f8 70E0      		ldi r23,hi8(3)
 4235 19fa 4FEF      		ldi r20,lo8(-1)
 4236 19fc 0E94 0000 		call lcd_graphics_plot_pixel
 4237               	.LM465:
 4238 1a00 88E1      		ldi r24,lo8(24)
 4239 1a02 90E0      		ldi r25,hi8(24)
 4240 1a04 64E0      		ldi r22,lo8(4)
 4241 1a06 70E0      		ldi r23,hi8(4)
 4242 1a08 4FEF      		ldi r20,lo8(-1)
 4243 1a0a 0E94 0000 		call lcd_graphics_plot_pixel
 4244               	.LM466:
 4245 1a0e 88E1      		ldi r24,lo8(24)
 4246 1a10 90E0      		ldi r25,hi8(24)
 4247 1a12 65E0      		ldi r22,lo8(5)
 4248 1a14 70E0      		ldi r23,hi8(5)
 4249 1a16 4FEF      		ldi r20,lo8(-1)
 4250 1a18 0E94 0000 		call lcd_graphics_plot_pixel
 4251               	.LM467:
 4252 1a1c 88E1      		ldi r24,lo8(24)
 4253 1a1e 90E0      		ldi r25,hi8(24)
 4254 1a20 66E0      		ldi r22,lo8(6)
 4255 1a22 70E0      		ldi r23,hi8(6)
 4256 1a24 4FEF      		ldi r20,lo8(-1)
 4257 1a26 0E94 0000 		call lcd_graphics_plot_pixel
 4258               	.LM468:
 4259 1a2a 88E1      		ldi r24,lo8(24)
 4260 1a2c 90E0      		ldi r25,hi8(24)
 4261 1a2e 67E0      		ldi r22,lo8(7)
 4262 1a30 70E0      		ldi r23,hi8(7)
 4263 1a32 4FEF      		ldi r20,lo8(-1)
 4264 1a34 0E94 0000 		call lcd_graphics_plot_pixel
 4265               	.LM469:
 4266 1a38 88E1      		ldi r24,lo8(24)
 4267 1a3a 90E0      		ldi r25,hi8(24)
 4268 1a3c 68E0      		ldi r22,lo8(8)
 4269 1a3e 70E0      		ldi r23,hi8(8)
 4270 1a40 4FEF      		ldi r20,lo8(-1)
 4271 1a42 0E94 0000 		call lcd_graphics_plot_pixel
 4272               	.LM470:
 4273 1a46 88E1      		ldi r24,lo8(24)
 4274 1a48 90E0      		ldi r25,hi8(24)
 4275 1a4a 69E0      		ldi r22,lo8(9)
 4276 1a4c 70E0      		ldi r23,hi8(9)
 4277 1a4e 4FEF      		ldi r20,lo8(-1)
 4278 1a50 0E94 0000 		call lcd_graphics_plot_pixel
 4279               	.LM471:
 4280 1a54 88E1      		ldi r24,lo8(24)
 4281 1a56 90E0      		ldi r25,hi8(24)
 4282 1a58 6AE0      		ldi r22,lo8(10)
 4283 1a5a 70E0      		ldi r23,hi8(10)
 4284 1a5c 4FEF      		ldi r20,lo8(-1)
 4285 1a5e 0E94 0000 		call lcd_graphics_plot_pixel
 4286               	.LM472:
 4287 1a62 88E1      		ldi r24,lo8(24)
 4288 1a64 90E0      		ldi r25,hi8(24)
 4289 1a66 6BE0      		ldi r22,lo8(11)
 4290 1a68 70E0      		ldi r23,hi8(11)
 4291 1a6a 4FEF      		ldi r20,lo8(-1)
 4292 1a6c 0E94 0000 		call lcd_graphics_plot_pixel
 4293               	.LM473:
 4294 1a70 88E1      		ldi r24,lo8(24)
 4295 1a72 90E0      		ldi r25,hi8(24)
 4296 1a74 6CE0      		ldi r22,lo8(12)
 4297 1a76 70E0      		ldi r23,hi8(12)
 4298 1a78 4FEF      		ldi r20,lo8(-1)
 4299 1a7a 0E94 0000 		call lcd_graphics_plot_pixel
 4300               	.LM474:
 4301 1a7e 88E1      		ldi r24,lo8(24)
 4302 1a80 90E0      		ldi r25,hi8(24)
 4303 1a82 6DE0      		ldi r22,lo8(13)
 4304 1a84 70E0      		ldi r23,hi8(13)
 4305 1a86 4FEF      		ldi r20,lo8(-1)
 4306 1a88 0E94 0000 		call lcd_graphics_plot_pixel
 4307               	.LM475:
 4308 1a8c 88E1      		ldi r24,lo8(24)
 4309 1a8e 90E0      		ldi r25,hi8(24)
 4310 1a90 6EE0      		ldi r22,lo8(14)
 4311 1a92 70E0      		ldi r23,hi8(14)
 4312 1a94 4FEF      		ldi r20,lo8(-1)
 4313 1a96 0E94 0000 		call lcd_graphics_plot_pixel
 4314               	.LM476:
 4315 1a9a 88E1      		ldi r24,lo8(24)
 4316 1a9c 90E0      		ldi r25,hi8(24)
 4317 1a9e 6FE0      		ldi r22,lo8(15)
 4318 1aa0 70E0      		ldi r23,hi8(15)
 4319 1aa2 4FEF      		ldi r20,lo8(-1)
 4320 1aa4 0E94 0000 		call lcd_graphics_plot_pixel
 4321               	.LM477:
 4322 1aa8 88E1      		ldi r24,lo8(24)
 4323 1aaa 90E0      		ldi r25,hi8(24)
 4324 1aac 60E1      		ldi r22,lo8(16)
 4325 1aae 70E0      		ldi r23,hi8(16)
 4326 1ab0 4FEF      		ldi r20,lo8(-1)
 4327 1ab2 0E94 0000 		call lcd_graphics_plot_pixel
 4328               	.LM478:
 4329 1ab6 88E1      		ldi r24,lo8(24)
 4330 1ab8 90E0      		ldi r25,hi8(24)
 4331 1aba 61E1      		ldi r22,lo8(17)
 4332 1abc 70E0      		ldi r23,hi8(17)
 4333 1abe 4FEF      		ldi r20,lo8(-1)
 4334 1ac0 0E94 0000 		call lcd_graphics_plot_pixel
 4335               	.LM479:
 4336 1ac4 88E1      		ldi r24,lo8(24)
 4337 1ac6 90E0      		ldi r25,hi8(24)
 4338 1ac8 62E1      		ldi r22,lo8(18)
 4339 1aca 70E0      		ldi r23,hi8(18)
 4340 1acc 4FEF      		ldi r20,lo8(-1)
 4341 1ace 0E94 0000 		call lcd_graphics_plot_pixel
 4342               	.LM480:
 4343 1ad2 88E1      		ldi r24,lo8(24)
 4344 1ad4 90E0      		ldi r25,hi8(24)
 4345 1ad6 63E1      		ldi r22,lo8(19)
 4346 1ad8 70E0      		ldi r23,hi8(19)
 4347 1ada 4FEF      		ldi r20,lo8(-1)
 4348 1adc 0E94 0000 		call lcd_graphics_plot_pixel
 4349               	.LM481:
 4350 1ae0 88E1      		ldi r24,lo8(24)
 4351 1ae2 90E0      		ldi r25,hi8(24)
 4352 1ae4 64E1      		ldi r22,lo8(20)
 4353 1ae6 70E0      		ldi r23,hi8(20)
 4354 1ae8 4FEF      		ldi r20,lo8(-1)
 4355 1aea 0E94 0000 		call lcd_graphics_plot_pixel
 4356               	.LM482:
 4357 1aee 88E1      		ldi r24,lo8(24)
 4358 1af0 90E0      		ldi r25,hi8(24)
 4359 1af2 65E1      		ldi r22,lo8(21)
 4360 1af4 70E0      		ldi r23,hi8(21)
 4361 1af6 4FEF      		ldi r20,lo8(-1)
 4362 1af8 0E94 0000 		call lcd_graphics_plot_pixel
 4363               	.LM483:
 4364 1afc 88E1      		ldi r24,lo8(24)
 4365 1afe 90E0      		ldi r25,hi8(24)
 4366 1b00 66E1      		ldi r22,lo8(22)
 4367 1b02 70E0      		ldi r23,hi8(22)
 4368 1b04 4FEF      		ldi r20,lo8(-1)
 4369 1b06 0E94 0000 		call lcd_graphics_plot_pixel
 4370               	.LM484:
 4371 1b0a 88E1      		ldi r24,lo8(24)
 4372 1b0c 90E0      		ldi r25,hi8(24)
 4373 1b0e 67E1      		ldi r22,lo8(23)
 4374 1b10 70E0      		ldi r23,hi8(23)
 4375 1b12 4FEF      		ldi r20,lo8(-1)
 4376 1b14 0E94 0000 		call lcd_graphics_plot_pixel
 4377               	.LM485:
 4378 1b18 88E1      		ldi r24,lo8(24)
 4379 1b1a 90E0      		ldi r25,hi8(24)
 4380 1b1c 68E1      		ldi r22,lo8(24)
 4381 1b1e 70E0      		ldi r23,hi8(24)
 4382 1b20 4FEF      		ldi r20,lo8(-1)
 4383 1b22 0E94 0000 		call lcd_graphics_plot_pixel
 4384               	.LM486:
 4385 1b26 88E1      		ldi r24,lo8(24)
 4386 1b28 90E0      		ldi r25,hi8(24)
 4387 1b2a 6AE1      		ldi r22,lo8(26)
 4388 1b2c 70E0      		ldi r23,hi8(26)
 4389 1b2e 4FEF      		ldi r20,lo8(-1)
 4390 1b30 0E94 0000 		call lcd_graphics_plot_pixel
 4391               	.LM487:
 4392 1b34 88E1      		ldi r24,lo8(24)
 4393 1b36 90E0      		ldi r25,hi8(24)
 4394 1b38 6BE1      		ldi r22,lo8(27)
 4395 1b3a 70E0      		ldi r23,hi8(27)
 4396 1b3c 4FEF      		ldi r20,lo8(-1)
 4397 1b3e 0E94 0000 		call lcd_graphics_plot_pixel
 4398               	.LM488:
 4399 1b42 88E1      		ldi r24,lo8(24)
 4400 1b44 90E0      		ldi r25,hi8(24)
 4401 1b46 6CE1      		ldi r22,lo8(28)
 4402 1b48 70E0      		ldi r23,hi8(28)
 4403 1b4a 4FEF      		ldi r20,lo8(-1)
 4404 1b4c 0E94 0000 		call lcd_graphics_plot_pixel
 4405               	.LM489:
 4406 1b50 88E1      		ldi r24,lo8(24)
 4407 1b52 90E0      		ldi r25,hi8(24)
 4408 1b54 6DE1      		ldi r22,lo8(29)
 4409 1b56 70E0      		ldi r23,hi8(29)
 4410 1b58 4FEF      		ldi r20,lo8(-1)
 4411 1b5a 0E94 0000 		call lcd_graphics_plot_pixel
 4412               	.LM490:
 4413 1b5e 88E1      		ldi r24,lo8(24)
 4414 1b60 90E0      		ldi r25,hi8(24)
 4415 1b62 6EE1      		ldi r22,lo8(30)
 4416 1b64 70E0      		ldi r23,hi8(30)
 4417 1b66 4FEF      		ldi r20,lo8(-1)
 4418 1b68 0E94 0000 		call lcd_graphics_plot_pixel
 4419               	.LM491:
 4420 1b6c 88E1      		ldi r24,lo8(24)
 4421 1b6e 90E0      		ldi r25,hi8(24)
 4422 1b70 6FE1      		ldi r22,lo8(31)
 4423 1b72 70E0      		ldi r23,hi8(31)
 4424 1b74 4FEF      		ldi r20,lo8(-1)
 4425 1b76 0E94 0000 		call lcd_graphics_plot_pixel
 4426               	.LM492:
 4427 1b7a 88E1      		ldi r24,lo8(24)
 4428 1b7c 90E0      		ldi r25,hi8(24)
 4429 1b7e 60E2      		ldi r22,lo8(32)
 4430 1b80 70E0      		ldi r23,hi8(32)
 4431 1b82 4FEF      		ldi r20,lo8(-1)
 4432 1b84 0E94 0000 		call lcd_graphics_plot_pixel
 4433               	.LM493:
 4434 1b88 88E1      		ldi r24,lo8(24)
 4435 1b8a 90E0      		ldi r25,hi8(24)
 4436 1b8c 61E2      		ldi r22,lo8(33)
 4437 1b8e 70E0      		ldi r23,hi8(33)
 4438 1b90 4FEF      		ldi r20,lo8(-1)
 4439 1b92 0E94 0000 		call lcd_graphics_plot_pixel
 4440               	.LM494:
 4441 1b96 88E1      		ldi r24,lo8(24)
 4442 1b98 90E0      		ldi r25,hi8(24)
 4443 1b9a 62E2      		ldi r22,lo8(34)
 4444 1b9c 70E0      		ldi r23,hi8(34)
 4445 1b9e 4FEF      		ldi r20,lo8(-1)
 4446 1ba0 0E94 0000 		call lcd_graphics_plot_pixel
 4447               	.LM495:
 4448 1ba4 88E1      		ldi r24,lo8(24)
 4449 1ba6 90E0      		ldi r25,hi8(24)
 4450 1ba8 63E2      		ldi r22,lo8(35)
 4451 1baa 70E0      		ldi r23,hi8(35)
 4452 1bac 4FEF      		ldi r20,lo8(-1)
 4453 1bae 0E94 0000 		call lcd_graphics_plot_pixel
 4454               	.LM496:
 4455 1bb2 88E1      		ldi r24,lo8(24)
 4456 1bb4 90E0      		ldi r25,hi8(24)
 4457 1bb6 65E2      		ldi r22,lo8(37)
 4458 1bb8 70E0      		ldi r23,hi8(37)
 4459 1bba 4FEF      		ldi r20,lo8(-1)
 4460 1bbc 0E94 0000 		call lcd_graphics_plot_pixel
 4461               	.LM497:
 4462 1bc0 88E1      		ldi r24,lo8(24)
 4463 1bc2 90E0      		ldi r25,hi8(24)
 4464 1bc4 66E2      		ldi r22,lo8(38)
 4465 1bc6 70E0      		ldi r23,hi8(38)
 4466 1bc8 4FEF      		ldi r20,lo8(-1)
 4467 1bca 0E94 0000 		call lcd_graphics_plot_pixel
 4468               	.LM498:
 4469 1bce 88E1      		ldi r24,lo8(24)
 4470 1bd0 90E0      		ldi r25,hi8(24)
 4471 1bd2 67E2      		ldi r22,lo8(39)
 4472 1bd4 70E0      		ldi r23,hi8(39)
 4473 1bd6 4FEF      		ldi r20,lo8(-1)
 4474 1bd8 0E94 0000 		call lcd_graphics_plot_pixel
 4475               	.LM499:
 4476 1bdc 88E1      		ldi r24,lo8(24)
 4477 1bde 90E0      		ldi r25,hi8(24)
 4478 1be0 6EE2      		ldi r22,lo8(46)
 4479 1be2 70E0      		ldi r23,hi8(46)
 4480 1be4 4FEF      		ldi r20,lo8(-1)
 4481 1be6 0E94 0000 		call lcd_graphics_plot_pixel
 4482               	.LM500:
 4483 1bea 88E1      		ldi r24,lo8(24)
 4484 1bec 90E0      		ldi r25,hi8(24)
 4485 1bee 6FE2      		ldi r22,lo8(47)
 4486 1bf0 70E0      		ldi r23,hi8(47)
 4487 1bf2 4FEF      		ldi r20,lo8(-1)
 4488 1bf4 0E94 0000 		call lcd_graphics_plot_pixel
 4489               	.LM501:
 4490 1bf8 88E1      		ldi r24,lo8(24)
 4491 1bfa 90E0      		ldi r25,hi8(24)
 4492 1bfc 62E3      		ldi r22,lo8(50)
 4493 1bfe 70E0      		ldi r23,hi8(50)
 4494 1c00 4FEF      		ldi r20,lo8(-1)
 4495 1c02 0E94 0000 		call lcd_graphics_plot_pixel
 4496               	.LM502:
 4497 1c06 88E1      		ldi r24,lo8(24)
 4498 1c08 90E0      		ldi r25,hi8(24)
 4499 1c0a 63E3      		ldi r22,lo8(51)
 4500 1c0c 70E0      		ldi r23,hi8(51)
 4501 1c0e 4FEF      		ldi r20,lo8(-1)
 4502 1c10 0E94 0000 		call lcd_graphics_plot_pixel
 4503               	.LM503:
 4504 1c14 89E1      		ldi r24,lo8(25)
 4505 1c16 90E0      		ldi r25,hi8(25)
 4506 1c18 63E0      		ldi r22,lo8(3)
 4507 1c1a 70E0      		ldi r23,hi8(3)
 4508 1c1c 4FEF      		ldi r20,lo8(-1)
 4509 1c1e 0E94 0000 		call lcd_graphics_plot_pixel
 4510               	.LM504:
 4511 1c22 89E1      		ldi r24,lo8(25)
 4512 1c24 90E0      		ldi r25,hi8(25)
 4513 1c26 64E0      		ldi r22,lo8(4)
 4514 1c28 70E0      		ldi r23,hi8(4)
 4515 1c2a 4FEF      		ldi r20,lo8(-1)
 4516 1c2c 0E94 0000 		call lcd_graphics_plot_pixel
 4517               	.LM505:
 4518 1c30 89E1      		ldi r24,lo8(25)
 4519 1c32 90E0      		ldi r25,hi8(25)
 4520 1c34 65E0      		ldi r22,lo8(5)
 4521 1c36 70E0      		ldi r23,hi8(5)
 4522 1c38 4FEF      		ldi r20,lo8(-1)
 4523 1c3a 0E94 0000 		call lcd_graphics_plot_pixel
 4524               	.LM506:
 4525 1c3e 89E1      		ldi r24,lo8(25)
 4526 1c40 90E0      		ldi r25,hi8(25)
 4527 1c42 66E0      		ldi r22,lo8(6)
 4528 1c44 70E0      		ldi r23,hi8(6)
 4529 1c46 4FEF      		ldi r20,lo8(-1)
 4530 1c48 0E94 0000 		call lcd_graphics_plot_pixel
 4531               	.LM507:
 4532 1c4c 89E1      		ldi r24,lo8(25)
 4533 1c4e 90E0      		ldi r25,hi8(25)
 4534 1c50 67E0      		ldi r22,lo8(7)
 4535 1c52 70E0      		ldi r23,hi8(7)
 4536 1c54 4FEF      		ldi r20,lo8(-1)
 4537 1c56 0E94 0000 		call lcd_graphics_plot_pixel
 4538               	.LM508:
 4539 1c5a 89E1      		ldi r24,lo8(25)
 4540 1c5c 90E0      		ldi r25,hi8(25)
 4541 1c5e 68E0      		ldi r22,lo8(8)
 4542 1c60 70E0      		ldi r23,hi8(8)
 4543 1c62 4FEF      		ldi r20,lo8(-1)
 4544 1c64 0E94 0000 		call lcd_graphics_plot_pixel
 4545               	.LM509:
 4546 1c68 89E1      		ldi r24,lo8(25)
 4547 1c6a 90E0      		ldi r25,hi8(25)
 4548 1c6c 69E0      		ldi r22,lo8(9)
 4549 1c6e 70E0      		ldi r23,hi8(9)
 4550 1c70 4FEF      		ldi r20,lo8(-1)
 4551 1c72 0E94 0000 		call lcd_graphics_plot_pixel
 4552               	.LM510:
 4553 1c76 89E1      		ldi r24,lo8(25)
 4554 1c78 90E0      		ldi r25,hi8(25)
 4555 1c7a 6AE0      		ldi r22,lo8(10)
 4556 1c7c 70E0      		ldi r23,hi8(10)
 4557 1c7e 4FEF      		ldi r20,lo8(-1)
 4558 1c80 0E94 0000 		call lcd_graphics_plot_pixel
 4559               	.LM511:
 4560 1c84 89E1      		ldi r24,lo8(25)
 4561 1c86 90E0      		ldi r25,hi8(25)
 4562 1c88 6BE0      		ldi r22,lo8(11)
 4563 1c8a 70E0      		ldi r23,hi8(11)
 4564 1c8c 4FEF      		ldi r20,lo8(-1)
 4565 1c8e 0E94 0000 		call lcd_graphics_plot_pixel
 4566               	.LM512:
 4567 1c92 89E1      		ldi r24,lo8(25)
 4568 1c94 90E0      		ldi r25,hi8(25)
 4569 1c96 6CE0      		ldi r22,lo8(12)
 4570 1c98 70E0      		ldi r23,hi8(12)
 4571 1c9a 4FEF      		ldi r20,lo8(-1)
 4572 1c9c 0E94 0000 		call lcd_graphics_plot_pixel
 4573               	.LM513:
 4574 1ca0 89E1      		ldi r24,lo8(25)
 4575 1ca2 90E0      		ldi r25,hi8(25)
 4576 1ca4 6DE0      		ldi r22,lo8(13)
 4577 1ca6 70E0      		ldi r23,hi8(13)
 4578 1ca8 4FEF      		ldi r20,lo8(-1)
 4579 1caa 0E94 0000 		call lcd_graphics_plot_pixel
 4580               	.LM514:
 4581 1cae 89E1      		ldi r24,lo8(25)
 4582 1cb0 90E0      		ldi r25,hi8(25)
 4583 1cb2 6EE0      		ldi r22,lo8(14)
 4584 1cb4 70E0      		ldi r23,hi8(14)
 4585 1cb6 4FEF      		ldi r20,lo8(-1)
 4586 1cb8 0E94 0000 		call lcd_graphics_plot_pixel
 4587               	.LM515:
 4588 1cbc 89E1      		ldi r24,lo8(25)
 4589 1cbe 90E0      		ldi r25,hi8(25)
 4590 1cc0 6FE0      		ldi r22,lo8(15)
 4591 1cc2 70E0      		ldi r23,hi8(15)
 4592 1cc4 4FEF      		ldi r20,lo8(-1)
 4593 1cc6 0E94 0000 		call lcd_graphics_plot_pixel
 4594               	.LM516:
 4595 1cca 89E1      		ldi r24,lo8(25)
 4596 1ccc 90E0      		ldi r25,hi8(25)
 4597 1cce 60E1      		ldi r22,lo8(16)
 4598 1cd0 70E0      		ldi r23,hi8(16)
 4599 1cd2 4FEF      		ldi r20,lo8(-1)
 4600 1cd4 0E94 0000 		call lcd_graphics_plot_pixel
 4601               	.LM517:
 4602 1cd8 89E1      		ldi r24,lo8(25)
 4603 1cda 90E0      		ldi r25,hi8(25)
 4604 1cdc 61E1      		ldi r22,lo8(17)
 4605 1cde 70E0      		ldi r23,hi8(17)
 4606 1ce0 4FEF      		ldi r20,lo8(-1)
 4607 1ce2 0E94 0000 		call lcd_graphics_plot_pixel
 4608               	.LM518:
 4609 1ce6 89E1      		ldi r24,lo8(25)
 4610 1ce8 90E0      		ldi r25,hi8(25)
 4611 1cea 62E1      		ldi r22,lo8(18)
 4612 1cec 70E0      		ldi r23,hi8(18)
 4613 1cee 4FEF      		ldi r20,lo8(-1)
 4614 1cf0 0E94 0000 		call lcd_graphics_plot_pixel
 4615               	.LM519:
 4616 1cf4 89E1      		ldi r24,lo8(25)
 4617 1cf6 90E0      		ldi r25,hi8(25)
 4618 1cf8 63E1      		ldi r22,lo8(19)
 4619 1cfa 70E0      		ldi r23,hi8(19)
 4620 1cfc 4FEF      		ldi r20,lo8(-1)
 4621 1cfe 0E94 0000 		call lcd_graphics_plot_pixel
 4622               	.LM520:
 4623 1d02 89E1      		ldi r24,lo8(25)
 4624 1d04 90E0      		ldi r25,hi8(25)
 4625 1d06 64E1      		ldi r22,lo8(20)
 4626 1d08 70E0      		ldi r23,hi8(20)
 4627 1d0a 4FEF      		ldi r20,lo8(-1)
 4628 1d0c 0E94 0000 		call lcd_graphics_plot_pixel
 4629               	.LM521:
 4630 1d10 89E1      		ldi r24,lo8(25)
 4631 1d12 90E0      		ldi r25,hi8(25)
 4632 1d14 65E1      		ldi r22,lo8(21)
 4633 1d16 70E0      		ldi r23,hi8(21)
 4634 1d18 4FEF      		ldi r20,lo8(-1)
 4635 1d1a 0E94 0000 		call lcd_graphics_plot_pixel
 4636               	.LM522:
 4637 1d1e 89E1      		ldi r24,lo8(25)
 4638 1d20 90E0      		ldi r25,hi8(25)
 4639 1d22 66E1      		ldi r22,lo8(22)
 4640 1d24 70E0      		ldi r23,hi8(22)
 4641 1d26 4FEF      		ldi r20,lo8(-1)
 4642 1d28 0E94 0000 		call lcd_graphics_plot_pixel
 4643               	.LM523:
 4644 1d2c 89E1      		ldi r24,lo8(25)
 4645 1d2e 90E0      		ldi r25,hi8(25)
 4646 1d30 67E1      		ldi r22,lo8(23)
 4647 1d32 70E0      		ldi r23,hi8(23)
 4648 1d34 4FEF      		ldi r20,lo8(-1)
 4649 1d36 0E94 0000 		call lcd_graphics_plot_pixel
 4650               	.LM524:
 4651 1d3a 89E1      		ldi r24,lo8(25)
 4652 1d3c 90E0      		ldi r25,hi8(25)
 4653 1d3e 68E1      		ldi r22,lo8(24)
 4654 1d40 70E0      		ldi r23,hi8(24)
 4655 1d42 4FEF      		ldi r20,lo8(-1)
 4656 1d44 0E94 0000 		call lcd_graphics_plot_pixel
 4657               	.LM525:
 4658 1d48 89E1      		ldi r24,lo8(25)
 4659 1d4a 90E0      		ldi r25,hi8(25)
 4660 1d4c 65E2      		ldi r22,lo8(37)
 4661 1d4e 70E0      		ldi r23,hi8(37)
 4662 1d50 4FEF      		ldi r20,lo8(-1)
 4663 1d52 0E94 0000 		call lcd_graphics_plot_pixel
 4664               	.LM526:
 4665 1d56 89E1      		ldi r24,lo8(25)
 4666 1d58 90E0      		ldi r25,hi8(25)
 4667 1d5a 66E2      		ldi r22,lo8(38)
 4668 1d5c 70E0      		ldi r23,hi8(38)
 4669 1d5e 4FEF      		ldi r20,lo8(-1)
 4670 1d60 0E94 0000 		call lcd_graphics_plot_pixel
 4671               	.LM527:
 4672 1d64 89E1      		ldi r24,lo8(25)
 4673 1d66 90E0      		ldi r25,hi8(25)
 4674 1d68 67E2      		ldi r22,lo8(39)
 4675 1d6a 70E0      		ldi r23,hi8(39)
 4676 1d6c 4FEF      		ldi r20,lo8(-1)
 4677 1d6e 0E94 0000 		call lcd_graphics_plot_pixel
 4678               	.LM528:
 4679 1d72 89E1      		ldi r24,lo8(25)
 4680 1d74 90E0      		ldi r25,hi8(25)
 4681 1d76 6EE2      		ldi r22,lo8(46)
 4682 1d78 70E0      		ldi r23,hi8(46)
 4683 1d7a 4FEF      		ldi r20,lo8(-1)
 4684 1d7c 0E94 0000 		call lcd_graphics_plot_pixel
 4685               	.LM529:
 4686 1d80 89E1      		ldi r24,lo8(25)
 4687 1d82 90E0      		ldi r25,hi8(25)
 4688 1d84 6FE2      		ldi r22,lo8(47)
 4689 1d86 70E0      		ldi r23,hi8(47)
 4690 1d88 4FEF      		ldi r20,lo8(-1)
 4691 1d8a 0E94 0000 		call lcd_graphics_plot_pixel
 4692               	.LM530:
 4693 1d8e 89E1      		ldi r24,lo8(25)
 4694 1d90 90E0      		ldi r25,hi8(25)
 4695 1d92 62E3      		ldi r22,lo8(50)
 4696 1d94 70E0      		ldi r23,hi8(50)
 4697 1d96 4FEF      		ldi r20,lo8(-1)
 4698 1d98 0E94 0000 		call lcd_graphics_plot_pixel
 4699               	.LM531:
 4700 1d9c 89E1      		ldi r24,lo8(25)
 4701 1d9e 90E0      		ldi r25,hi8(25)
 4702 1da0 63E3      		ldi r22,lo8(51)
 4703 1da2 70E0      		ldi r23,hi8(51)
 4704 1da4 4FEF      		ldi r20,lo8(-1)
 4705 1da6 0E94 0000 		call lcd_graphics_plot_pixel
 4706               	.LM532:
 4707 1daa 89E1      		ldi r24,lo8(25)
 4708 1dac 90E0      		ldi r25,hi8(25)
 4709 1dae 64E3      		ldi r22,lo8(52)
 4710 1db0 70E0      		ldi r23,hi8(52)
 4711 1db2 4FEF      		ldi r20,lo8(-1)
 4712 1db4 0E94 0000 		call lcd_graphics_plot_pixel
 4713               	.LM533:
 4714 1db8 89E1      		ldi r24,lo8(25)
 4715 1dba 90E0      		ldi r25,hi8(25)
 4716 1dbc 65E3      		ldi r22,lo8(53)
 4717 1dbe 70E0      		ldi r23,hi8(53)
 4718 1dc0 4FEF      		ldi r20,lo8(-1)
 4719 1dc2 0E94 0000 		call lcd_graphics_plot_pixel
 4720               	.LM534:
 4721 1dc6 8AE1      		ldi r24,lo8(26)
 4722 1dc8 90E0      		ldi r25,hi8(26)
 4723 1dca 63E0      		ldi r22,lo8(3)
 4724 1dcc 70E0      		ldi r23,hi8(3)
 4725 1dce 4FEF      		ldi r20,lo8(-1)
 4726 1dd0 0E94 0000 		call lcd_graphics_plot_pixel
 4727               	.LM535:
 4728 1dd4 8AE1      		ldi r24,lo8(26)
 4729 1dd6 90E0      		ldi r25,hi8(26)
 4730 1dd8 64E0      		ldi r22,lo8(4)
 4731 1dda 70E0      		ldi r23,hi8(4)
 4732 1ddc 4FEF      		ldi r20,lo8(-1)
 4733 1dde 0E94 0000 		call lcd_graphics_plot_pixel
 4734               	.LM536:
 4735 1de2 8AE1      		ldi r24,lo8(26)
 4736 1de4 90E0      		ldi r25,hi8(26)
 4737 1de6 65E0      		ldi r22,lo8(5)
 4738 1de8 70E0      		ldi r23,hi8(5)
 4739 1dea 4FEF      		ldi r20,lo8(-1)
 4740 1dec 0E94 0000 		call lcd_graphics_plot_pixel
 4741               	.LM537:
 4742 1df0 8AE1      		ldi r24,lo8(26)
 4743 1df2 90E0      		ldi r25,hi8(26)
 4744 1df4 66E0      		ldi r22,lo8(6)
 4745 1df6 70E0      		ldi r23,hi8(6)
 4746 1df8 4FEF      		ldi r20,lo8(-1)
 4747 1dfa 0E94 0000 		call lcd_graphics_plot_pixel
 4748               	.LM538:
 4749 1dfe 8AE1      		ldi r24,lo8(26)
 4750 1e00 90E0      		ldi r25,hi8(26)
 4751 1e02 67E0      		ldi r22,lo8(7)
 4752 1e04 70E0      		ldi r23,hi8(7)
 4753 1e06 4FEF      		ldi r20,lo8(-1)
 4754 1e08 0E94 0000 		call lcd_graphics_plot_pixel
 4755               	.LM539:
 4756 1e0c 8AE1      		ldi r24,lo8(26)
 4757 1e0e 90E0      		ldi r25,hi8(26)
 4758 1e10 68E0      		ldi r22,lo8(8)
 4759 1e12 70E0      		ldi r23,hi8(8)
 4760 1e14 4FEF      		ldi r20,lo8(-1)
 4761 1e16 0E94 0000 		call lcd_graphics_plot_pixel
 4762               	.LM540:
 4763 1e1a 8AE1      		ldi r24,lo8(26)
 4764 1e1c 90E0      		ldi r25,hi8(26)
 4765 1e1e 69E0      		ldi r22,lo8(9)
 4766 1e20 70E0      		ldi r23,hi8(9)
 4767 1e22 4FEF      		ldi r20,lo8(-1)
 4768 1e24 0E94 0000 		call lcd_graphics_plot_pixel
 4769               	.LM541:
 4770 1e28 8AE1      		ldi r24,lo8(26)
 4771 1e2a 90E0      		ldi r25,hi8(26)
 4772 1e2c 6AE0      		ldi r22,lo8(10)
 4773 1e2e 70E0      		ldi r23,hi8(10)
 4774 1e30 4FEF      		ldi r20,lo8(-1)
 4775 1e32 0E94 0000 		call lcd_graphics_plot_pixel
 4776               	.LM542:
 4777 1e36 8AE1      		ldi r24,lo8(26)
 4778 1e38 90E0      		ldi r25,hi8(26)
 4779 1e3a 6BE0      		ldi r22,lo8(11)
 4780 1e3c 70E0      		ldi r23,hi8(11)
 4781 1e3e 4FEF      		ldi r20,lo8(-1)
 4782 1e40 0E94 0000 		call lcd_graphics_plot_pixel
 4783               	.LM543:
 4784 1e44 8AE1      		ldi r24,lo8(26)
 4785 1e46 90E0      		ldi r25,hi8(26)
 4786 1e48 6CE0      		ldi r22,lo8(12)
 4787 1e4a 70E0      		ldi r23,hi8(12)
 4788 1e4c 4FEF      		ldi r20,lo8(-1)
 4789 1e4e 0E94 0000 		call lcd_graphics_plot_pixel
 4790               	.LM544:
 4791 1e52 8AE1      		ldi r24,lo8(26)
 4792 1e54 90E0      		ldi r25,hi8(26)
 4793 1e56 6DE0      		ldi r22,lo8(13)
 4794 1e58 70E0      		ldi r23,hi8(13)
 4795 1e5a 4FEF      		ldi r20,lo8(-1)
 4796 1e5c 0E94 0000 		call lcd_graphics_plot_pixel
 4797               	.LM545:
 4798 1e60 8AE1      		ldi r24,lo8(26)
 4799 1e62 90E0      		ldi r25,hi8(26)
 4800 1e64 6EE0      		ldi r22,lo8(14)
 4801 1e66 70E0      		ldi r23,hi8(14)
 4802 1e68 4FEF      		ldi r20,lo8(-1)
 4803 1e6a 0E94 0000 		call lcd_graphics_plot_pixel
 4804               	.LM546:
 4805 1e6e 8AE1      		ldi r24,lo8(26)
 4806 1e70 90E0      		ldi r25,hi8(26)
 4807 1e72 6FE0      		ldi r22,lo8(15)
 4808 1e74 70E0      		ldi r23,hi8(15)
 4809 1e76 4FEF      		ldi r20,lo8(-1)
 4810 1e78 0E94 0000 		call lcd_graphics_plot_pixel
 4811               	.LM547:
 4812 1e7c 8AE1      		ldi r24,lo8(26)
 4813 1e7e 90E0      		ldi r25,hi8(26)
 4814 1e80 60E1      		ldi r22,lo8(16)
 4815 1e82 70E0      		ldi r23,hi8(16)
 4816 1e84 4FEF      		ldi r20,lo8(-1)
 4817 1e86 0E94 0000 		call lcd_graphics_plot_pixel
 4818               	.LM548:
 4819 1e8a 8AE1      		ldi r24,lo8(26)
 4820 1e8c 90E0      		ldi r25,hi8(26)
 4821 1e8e 61E1      		ldi r22,lo8(17)
 4822 1e90 70E0      		ldi r23,hi8(17)
 4823 1e92 4FEF      		ldi r20,lo8(-1)
 4824 1e94 0E94 0000 		call lcd_graphics_plot_pixel
 4825               	.LM549:
 4826 1e98 8AE1      		ldi r24,lo8(26)
 4827 1e9a 90E0      		ldi r25,hi8(26)
 4828 1e9c 62E1      		ldi r22,lo8(18)
 4829 1e9e 70E0      		ldi r23,hi8(18)
 4830 1ea0 4FEF      		ldi r20,lo8(-1)
 4831 1ea2 0E94 0000 		call lcd_graphics_plot_pixel
 4832               	.LM550:
 4833 1ea6 8AE1      		ldi r24,lo8(26)
 4834 1ea8 90E0      		ldi r25,hi8(26)
 4835 1eaa 63E1      		ldi r22,lo8(19)
 4836 1eac 70E0      		ldi r23,hi8(19)
 4837 1eae 4FEF      		ldi r20,lo8(-1)
 4838 1eb0 0E94 0000 		call lcd_graphics_plot_pixel
 4839               	.LM551:
 4840 1eb4 8AE1      		ldi r24,lo8(26)
 4841 1eb6 90E0      		ldi r25,hi8(26)
 4842 1eb8 64E1      		ldi r22,lo8(20)
 4843 1eba 70E0      		ldi r23,hi8(20)
 4844 1ebc 4FEF      		ldi r20,lo8(-1)
 4845 1ebe 0E94 0000 		call lcd_graphics_plot_pixel
 4846               	.LM552:
 4847 1ec2 8AE1      		ldi r24,lo8(26)
 4848 1ec4 90E0      		ldi r25,hi8(26)
 4849 1ec6 65E1      		ldi r22,lo8(21)
 4850 1ec8 70E0      		ldi r23,hi8(21)
 4851 1eca 4FEF      		ldi r20,lo8(-1)
 4852 1ecc 0E94 0000 		call lcd_graphics_plot_pixel
 4853               	.LM553:
 4854 1ed0 8AE1      		ldi r24,lo8(26)
 4855 1ed2 90E0      		ldi r25,hi8(26)
 4856 1ed4 66E1      		ldi r22,lo8(22)
 4857 1ed6 70E0      		ldi r23,hi8(22)
 4858 1ed8 4FEF      		ldi r20,lo8(-1)
 4859 1eda 0E94 0000 		call lcd_graphics_plot_pixel
 4860               	.LM554:
 4861 1ede 8AE1      		ldi r24,lo8(26)
 4862 1ee0 90E0      		ldi r25,hi8(26)
 4863 1ee2 67E1      		ldi r22,lo8(23)
 4864 1ee4 70E0      		ldi r23,hi8(23)
 4865 1ee6 4FEF      		ldi r20,lo8(-1)
 4866 1ee8 0E94 0000 		call lcd_graphics_plot_pixel
 4867               	.LM555:
 4868 1eec 8AE1      		ldi r24,lo8(26)
 4869 1eee 90E0      		ldi r25,hi8(26)
 4870 1ef0 68E1      		ldi r22,lo8(24)
 4871 1ef2 70E0      		ldi r23,hi8(24)
 4872 1ef4 4FEF      		ldi r20,lo8(-1)
 4873 1ef6 0E94 0000 		call lcd_graphics_plot_pixel
 4874               	.LM556:
 4875 1efa 8AE1      		ldi r24,lo8(26)
 4876 1efc 90E0      		ldi r25,hi8(26)
 4877 1efe 65E2      		ldi r22,lo8(37)
 4878 1f00 70E0      		ldi r23,hi8(37)
 4879 1f02 4FEF      		ldi r20,lo8(-1)
 4880 1f04 0E94 0000 		call lcd_graphics_plot_pixel
 4881               	.LM557:
 4882 1f08 8AE1      		ldi r24,lo8(26)
 4883 1f0a 90E0      		ldi r25,hi8(26)
 4884 1f0c 66E2      		ldi r22,lo8(38)
 4885 1f0e 70E0      		ldi r23,hi8(38)
 4886 1f10 4FEF      		ldi r20,lo8(-1)
 4887 1f12 0E94 0000 		call lcd_graphics_plot_pixel
 4888               	.LM558:
 4889 1f16 8AE1      		ldi r24,lo8(26)
 4890 1f18 90E0      		ldi r25,hi8(26)
 4891 1f1a 67E2      		ldi r22,lo8(39)
 4892 1f1c 70E0      		ldi r23,hi8(39)
 4893 1f1e 4FEF      		ldi r20,lo8(-1)
 4894 1f20 0E94 0000 		call lcd_graphics_plot_pixel
 4895               	.LM559:
 4896 1f24 8AE1      		ldi r24,lo8(26)
 4897 1f26 90E0      		ldi r25,hi8(26)
 4898 1f28 6EE2      		ldi r22,lo8(46)
 4899 1f2a 70E0      		ldi r23,hi8(46)
 4900 1f2c 4FEF      		ldi r20,lo8(-1)
 4901 1f2e 0E94 0000 		call lcd_graphics_plot_pixel
 4902               	.LM560:
 4903 1f32 8AE1      		ldi r24,lo8(26)
 4904 1f34 90E0      		ldi r25,hi8(26)
 4905 1f36 6FE2      		ldi r22,lo8(47)
 4906 1f38 70E0      		ldi r23,hi8(47)
 4907 1f3a 4FEF      		ldi r20,lo8(-1)
 4908 1f3c 0E94 0000 		call lcd_graphics_plot_pixel
 4909               	.LM561:
 4910 1f40 8AE1      		ldi r24,lo8(26)
 4911 1f42 90E0      		ldi r25,hi8(26)
 4912 1f44 62E3      		ldi r22,lo8(50)
 4913 1f46 70E0      		ldi r23,hi8(50)
 4914 1f48 4FEF      		ldi r20,lo8(-1)
 4915 1f4a 0E94 0000 		call lcd_graphics_plot_pixel
 4916               	.LM562:
 4917 1f4e 8AE1      		ldi r24,lo8(26)
 4918 1f50 90E0      		ldi r25,hi8(26)
 4919 1f52 63E3      		ldi r22,lo8(51)
 4920 1f54 70E0      		ldi r23,hi8(51)
 4921 1f56 4FEF      		ldi r20,lo8(-1)
 4922 1f58 0E94 0000 		call lcd_graphics_plot_pixel
 4923               	.LM563:
 4924 1f5c 8AE1      		ldi r24,lo8(26)
 4925 1f5e 90E0      		ldi r25,hi8(26)
 4926 1f60 64E3      		ldi r22,lo8(52)
 4927 1f62 70E0      		ldi r23,hi8(52)
 4928 1f64 4FEF      		ldi r20,lo8(-1)
 4929 1f66 0E94 0000 		call lcd_graphics_plot_pixel
 4930               	.LM564:
 4931 1f6a 8AE1      		ldi r24,lo8(26)
 4932 1f6c 90E0      		ldi r25,hi8(26)
 4933 1f6e 65E3      		ldi r22,lo8(53)
 4934 1f70 70E0      		ldi r23,hi8(53)
 4935 1f72 4FEF      		ldi r20,lo8(-1)
 4936 1f74 0E94 0000 		call lcd_graphics_plot_pixel
 4937               	.LM565:
 4938 1f78 8BE1      		ldi r24,lo8(27)
 4939 1f7a 90E0      		ldi r25,hi8(27)
 4940 1f7c 63E0      		ldi r22,lo8(3)
 4941 1f7e 70E0      		ldi r23,hi8(3)
 4942 1f80 4FEF      		ldi r20,lo8(-1)
 4943 1f82 0E94 0000 		call lcd_graphics_plot_pixel
 4944               	.LM566:
 4945 1f86 8BE1      		ldi r24,lo8(27)
 4946 1f88 90E0      		ldi r25,hi8(27)
 4947 1f8a 64E0      		ldi r22,lo8(4)
 4948 1f8c 70E0      		ldi r23,hi8(4)
 4949 1f8e 4FEF      		ldi r20,lo8(-1)
 4950 1f90 0E94 0000 		call lcd_graphics_plot_pixel
 4951               	.LM567:
 4952 1f94 8BE1      		ldi r24,lo8(27)
 4953 1f96 90E0      		ldi r25,hi8(27)
 4954 1f98 65E0      		ldi r22,lo8(5)
 4955 1f9a 70E0      		ldi r23,hi8(5)
 4956 1f9c 4FEF      		ldi r20,lo8(-1)
 4957 1f9e 0E94 0000 		call lcd_graphics_plot_pixel
 4958               	.LM568:
 4959 1fa2 8BE1      		ldi r24,lo8(27)
 4960 1fa4 90E0      		ldi r25,hi8(27)
 4961 1fa6 66E0      		ldi r22,lo8(6)
 4962 1fa8 70E0      		ldi r23,hi8(6)
 4963 1faa 4FEF      		ldi r20,lo8(-1)
 4964 1fac 0E94 0000 		call lcd_graphics_plot_pixel
 4965               	.LM569:
 4966 1fb0 8BE1      		ldi r24,lo8(27)
 4967 1fb2 90E0      		ldi r25,hi8(27)
 4968 1fb4 67E0      		ldi r22,lo8(7)
 4969 1fb6 70E0      		ldi r23,hi8(7)
 4970 1fb8 4FEF      		ldi r20,lo8(-1)
 4971 1fba 0E94 0000 		call lcd_graphics_plot_pixel
 4972               	.LM570:
 4973 1fbe 8BE1      		ldi r24,lo8(27)
 4974 1fc0 90E0      		ldi r25,hi8(27)
 4975 1fc2 68E0      		ldi r22,lo8(8)
 4976 1fc4 70E0      		ldi r23,hi8(8)
 4977 1fc6 4FEF      		ldi r20,lo8(-1)
 4978 1fc8 0E94 0000 		call lcd_graphics_plot_pixel
 4979               	.LM571:
 4980 1fcc 8BE1      		ldi r24,lo8(27)
 4981 1fce 90E0      		ldi r25,hi8(27)
 4982 1fd0 69E0      		ldi r22,lo8(9)
 4983 1fd2 70E0      		ldi r23,hi8(9)
 4984 1fd4 4FEF      		ldi r20,lo8(-1)
 4985 1fd6 0E94 0000 		call lcd_graphics_plot_pixel
 4986               	.LM572:
 4987 1fda 8BE1      		ldi r24,lo8(27)
 4988 1fdc 90E0      		ldi r25,hi8(27)
 4989 1fde 6AE0      		ldi r22,lo8(10)
 4990 1fe0 70E0      		ldi r23,hi8(10)
 4991 1fe2 4FEF      		ldi r20,lo8(-1)
 4992 1fe4 0E94 0000 		call lcd_graphics_plot_pixel
 4993               	.LM573:
 4994 1fe8 8BE1      		ldi r24,lo8(27)
 4995 1fea 90E0      		ldi r25,hi8(27)
 4996 1fec 6BE0      		ldi r22,lo8(11)
 4997 1fee 70E0      		ldi r23,hi8(11)
 4998 1ff0 4FEF      		ldi r20,lo8(-1)
 4999 1ff2 0E94 0000 		call lcd_graphics_plot_pixel
 5000               	.LM574:
 5001 1ff6 8BE1      		ldi r24,lo8(27)
 5002 1ff8 90E0      		ldi r25,hi8(27)
 5003 1ffa 6CE0      		ldi r22,lo8(12)
 5004 1ffc 70E0      		ldi r23,hi8(12)
 5005 1ffe 4FEF      		ldi r20,lo8(-1)
 5006 2000 0E94 0000 		call lcd_graphics_plot_pixel
 5007               	.LM575:
 5008 2004 8BE1      		ldi r24,lo8(27)
 5009 2006 90E0      		ldi r25,hi8(27)
 5010 2008 6DE0      		ldi r22,lo8(13)
 5011 200a 70E0      		ldi r23,hi8(13)
 5012 200c 4FEF      		ldi r20,lo8(-1)
 5013 200e 0E94 0000 		call lcd_graphics_plot_pixel
 5014               	.LM576:
 5015 2012 8BE1      		ldi r24,lo8(27)
 5016 2014 90E0      		ldi r25,hi8(27)
 5017 2016 6EE0      		ldi r22,lo8(14)
 5018 2018 70E0      		ldi r23,hi8(14)
 5019 201a 4FEF      		ldi r20,lo8(-1)
 5020 201c 0E94 0000 		call lcd_graphics_plot_pixel
 5021               	.LM577:
 5022 2020 8BE1      		ldi r24,lo8(27)
 5023 2022 90E0      		ldi r25,hi8(27)
 5024 2024 6FE0      		ldi r22,lo8(15)
 5025 2026 70E0      		ldi r23,hi8(15)
 5026 2028 4FEF      		ldi r20,lo8(-1)
 5027 202a 0E94 0000 		call lcd_graphics_plot_pixel
 5028               	.LM578:
 5029 202e 8BE1      		ldi r24,lo8(27)
 5030 2030 90E0      		ldi r25,hi8(27)
 5031 2032 60E1      		ldi r22,lo8(16)
 5032 2034 70E0      		ldi r23,hi8(16)
 5033 2036 4FEF      		ldi r20,lo8(-1)
 5034 2038 0E94 0000 		call lcd_graphics_plot_pixel
 5035               	.LM579:
 5036 203c 8BE1      		ldi r24,lo8(27)
 5037 203e 90E0      		ldi r25,hi8(27)
 5038 2040 61E1      		ldi r22,lo8(17)
 5039 2042 70E0      		ldi r23,hi8(17)
 5040 2044 4FEF      		ldi r20,lo8(-1)
 5041 2046 0E94 0000 		call lcd_graphics_plot_pixel
 5042               	.LM580:
 5043 204a 8BE1      		ldi r24,lo8(27)
 5044 204c 90E0      		ldi r25,hi8(27)
 5045 204e 62E1      		ldi r22,lo8(18)
 5046 2050 70E0      		ldi r23,hi8(18)
 5047 2052 4FEF      		ldi r20,lo8(-1)
 5048 2054 0E94 0000 		call lcd_graphics_plot_pixel
 5049               	.LM581:
 5050 2058 8BE1      		ldi r24,lo8(27)
 5051 205a 90E0      		ldi r25,hi8(27)
 5052 205c 63E1      		ldi r22,lo8(19)
 5053 205e 70E0      		ldi r23,hi8(19)
 5054 2060 4FEF      		ldi r20,lo8(-1)
 5055 2062 0E94 0000 		call lcd_graphics_plot_pixel
 5056               	.LM582:
 5057 2066 8BE1      		ldi r24,lo8(27)
 5058 2068 90E0      		ldi r25,hi8(27)
 5059 206a 64E1      		ldi r22,lo8(20)
 5060 206c 70E0      		ldi r23,hi8(20)
 5061 206e 4FEF      		ldi r20,lo8(-1)
 5062 2070 0E94 0000 		call lcd_graphics_plot_pixel
 5063               	.LM583:
 5064 2074 8BE1      		ldi r24,lo8(27)
 5065 2076 90E0      		ldi r25,hi8(27)
 5066 2078 65E1      		ldi r22,lo8(21)
 5067 207a 70E0      		ldi r23,hi8(21)
 5068 207c 4FEF      		ldi r20,lo8(-1)
 5069 207e 0E94 0000 		call lcd_graphics_plot_pixel
 5070               	.LM584:
 5071 2082 8BE1      		ldi r24,lo8(27)
 5072 2084 90E0      		ldi r25,hi8(27)
 5073 2086 66E1      		ldi r22,lo8(22)
 5074 2088 70E0      		ldi r23,hi8(22)
 5075 208a 4FEF      		ldi r20,lo8(-1)
 5076 208c 0E94 0000 		call lcd_graphics_plot_pixel
 5077               	.LM585:
 5078 2090 8BE1      		ldi r24,lo8(27)
 5079 2092 90E0      		ldi r25,hi8(27)
 5080 2094 67E1      		ldi r22,lo8(23)
 5081 2096 70E0      		ldi r23,hi8(23)
 5082 2098 4FEF      		ldi r20,lo8(-1)
 5083 209a 0E94 0000 		call lcd_graphics_plot_pixel
 5084               	.LM586:
 5085 209e 8BE1      		ldi r24,lo8(27)
 5086 20a0 90E0      		ldi r25,hi8(27)
 5087 20a2 68E1      		ldi r22,lo8(24)
 5088 20a4 70E0      		ldi r23,hi8(24)
 5089 20a6 4FEF      		ldi r20,lo8(-1)
 5090 20a8 0E94 0000 		call lcd_graphics_plot_pixel
 5091               	.LM587:
 5092 20ac 8BE1      		ldi r24,lo8(27)
 5093 20ae 90E0      		ldi r25,hi8(27)
 5094 20b0 6AE1      		ldi r22,lo8(26)
 5095 20b2 70E0      		ldi r23,hi8(26)
 5096 20b4 4FEF      		ldi r20,lo8(-1)
 5097 20b6 0E94 0000 		call lcd_graphics_plot_pixel
 5098               	.LM588:
 5099 20ba 8BE1      		ldi r24,lo8(27)
 5100 20bc 90E0      		ldi r25,hi8(27)
 5101 20be 6BE1      		ldi r22,lo8(27)
 5102 20c0 70E0      		ldi r23,hi8(27)
 5103 20c2 4FEF      		ldi r20,lo8(-1)
 5104 20c4 0E94 0000 		call lcd_graphics_plot_pixel
 5105               	.LM589:
 5106 20c8 8BE1      		ldi r24,lo8(27)
 5107 20ca 90E0      		ldi r25,hi8(27)
 5108 20cc 6CE1      		ldi r22,lo8(28)
 5109 20ce 70E0      		ldi r23,hi8(28)
 5110 20d0 4FEF      		ldi r20,lo8(-1)
 5111 20d2 0E94 0000 		call lcd_graphics_plot_pixel
 5112               	.LM590:
 5113 20d6 8BE1      		ldi r24,lo8(27)
 5114 20d8 90E0      		ldi r25,hi8(27)
 5115 20da 6DE1      		ldi r22,lo8(29)
 5116 20dc 70E0      		ldi r23,hi8(29)
 5117 20de 4FEF      		ldi r20,lo8(-1)
 5118 20e0 0E94 0000 		call lcd_graphics_plot_pixel
 5119               	.LM591:
 5120 20e4 8BE1      		ldi r24,lo8(27)
 5121 20e6 90E0      		ldi r25,hi8(27)
 5122 20e8 6EE1      		ldi r22,lo8(30)
 5123 20ea 70E0      		ldi r23,hi8(30)
 5124 20ec 4FEF      		ldi r20,lo8(-1)
 5125 20ee 0E94 0000 		call lcd_graphics_plot_pixel
 5126               	.LM592:
 5127 20f2 8BE1      		ldi r24,lo8(27)
 5128 20f4 90E0      		ldi r25,hi8(27)
 5129 20f6 6FE1      		ldi r22,lo8(31)
 5130 20f8 70E0      		ldi r23,hi8(31)
 5131 20fa 4FEF      		ldi r20,lo8(-1)
 5132 20fc 0E94 0000 		call lcd_graphics_plot_pixel
 5133               	.LM593:
 5134 2100 8BE1      		ldi r24,lo8(27)
 5135 2102 90E0      		ldi r25,hi8(27)
 5136 2104 60E2      		ldi r22,lo8(32)
 5137 2106 70E0      		ldi r23,hi8(32)
 5138 2108 4FEF      		ldi r20,lo8(-1)
 5139 210a 0E94 0000 		call lcd_graphics_plot_pixel
 5140               	.LM594:
 5141 210e 8BE1      		ldi r24,lo8(27)
 5142 2110 90E0      		ldi r25,hi8(27)
 5143 2112 61E2      		ldi r22,lo8(33)
 5144 2114 70E0      		ldi r23,hi8(33)
 5145 2116 4FEF      		ldi r20,lo8(-1)
 5146 2118 0E94 0000 		call lcd_graphics_plot_pixel
 5147               	.LM595:
 5148 211c 8BE1      		ldi r24,lo8(27)
 5149 211e 90E0      		ldi r25,hi8(27)
 5150 2120 62E2      		ldi r22,lo8(34)
 5151 2122 70E0      		ldi r23,hi8(34)
 5152 2124 4FEF      		ldi r20,lo8(-1)
 5153 2126 0E94 0000 		call lcd_graphics_plot_pixel
 5154               	.LM596:
 5155 212a 8BE1      		ldi r24,lo8(27)
 5156 212c 90E0      		ldi r25,hi8(27)
 5157 212e 63E2      		ldi r22,lo8(35)
 5158 2130 70E0      		ldi r23,hi8(35)
 5159 2132 4FEF      		ldi r20,lo8(-1)
 5160 2134 0E94 0000 		call lcd_graphics_plot_pixel
 5161               	.LM597:
 5162 2138 8BE1      		ldi r24,lo8(27)
 5163 213a 90E0      		ldi r25,hi8(27)
 5164 213c 65E2      		ldi r22,lo8(37)
 5165 213e 70E0      		ldi r23,hi8(37)
 5166 2140 4FEF      		ldi r20,lo8(-1)
 5167 2142 0E94 0000 		call lcd_graphics_plot_pixel
 5168               	.LM598:
 5169 2146 8BE1      		ldi r24,lo8(27)
 5170 2148 90E0      		ldi r25,hi8(27)
 5171 214a 66E2      		ldi r22,lo8(38)
 5172 214c 70E0      		ldi r23,hi8(38)
 5173 214e 4FEF      		ldi r20,lo8(-1)
 5174 2150 0E94 0000 		call lcd_graphics_plot_pixel
 5175               	.LM599:
 5176 2154 8BE1      		ldi r24,lo8(27)
 5177 2156 90E0      		ldi r25,hi8(27)
 5178 2158 67E2      		ldi r22,lo8(39)
 5179 215a 70E0      		ldi r23,hi8(39)
 5180 215c 4FEF      		ldi r20,lo8(-1)
 5181 215e 0E94 0000 		call lcd_graphics_plot_pixel
 5182               	.LM600:
 5183 2162 8BE1      		ldi r24,lo8(27)
 5184 2164 90E0      		ldi r25,hi8(27)
 5185 2166 68E2      		ldi r22,lo8(40)
 5186 2168 70E0      		ldi r23,hi8(40)
 5187 216a 4FEF      		ldi r20,lo8(-1)
 5188 216c 0E94 0000 		call lcd_graphics_plot_pixel
 5189               	.LM601:
 5190 2170 8BE1      		ldi r24,lo8(27)
 5191 2172 90E0      		ldi r25,hi8(27)
 5192 2174 69E2      		ldi r22,lo8(41)
 5193 2176 70E0      		ldi r23,hi8(41)
 5194 2178 4FEF      		ldi r20,lo8(-1)
 5195 217a 0E94 0000 		call lcd_graphics_plot_pixel
 5196               	.LM602:
 5197 217e 8BE1      		ldi r24,lo8(27)
 5198 2180 90E0      		ldi r25,hi8(27)
 5199 2182 6AE2      		ldi r22,lo8(42)
 5200 2184 70E0      		ldi r23,hi8(42)
 5201 2186 4FEF      		ldi r20,lo8(-1)
 5202 2188 0E94 0000 		call lcd_graphics_plot_pixel
 5203               	.LM603:
 5204 218c 8BE1      		ldi r24,lo8(27)
 5205 218e 90E0      		ldi r25,hi8(27)
 5206 2190 6EE2      		ldi r22,lo8(46)
 5207 2192 70E0      		ldi r23,hi8(46)
 5208 2194 4FEF      		ldi r20,lo8(-1)
 5209 2196 0E94 0000 		call lcd_graphics_plot_pixel
 5210               	.LM604:
 5211 219a 8BE1      		ldi r24,lo8(27)
 5212 219c 90E0      		ldi r25,hi8(27)
 5213 219e 6FE2      		ldi r22,lo8(47)
 5214 21a0 70E0      		ldi r23,hi8(47)
 5215 21a2 4FEF      		ldi r20,lo8(-1)
 5216 21a4 0E94 0000 		call lcd_graphics_plot_pixel
 5217               	.LM605:
 5218 21a8 8BE1      		ldi r24,lo8(27)
 5219 21aa 90E0      		ldi r25,hi8(27)
 5220 21ac 60E3      		ldi r22,lo8(48)
 5221 21ae 70E0      		ldi r23,hi8(48)
 5222 21b0 4FEF      		ldi r20,lo8(-1)
 5223 21b2 0E94 0000 		call lcd_graphics_plot_pixel
 5224               	.LM606:
 5225 21b6 8BE1      		ldi r24,lo8(27)
 5226 21b8 90E0      		ldi r25,hi8(27)
 5227 21ba 61E3      		ldi r22,lo8(49)
 5228 21bc 70E0      		ldi r23,hi8(49)
 5229 21be 4FEF      		ldi r20,lo8(-1)
 5230 21c0 0E94 0000 		call lcd_graphics_plot_pixel
 5231               	.LM607:
 5232 21c4 8BE1      		ldi r24,lo8(27)
 5233 21c6 90E0      		ldi r25,hi8(27)
 5234 21c8 62E3      		ldi r22,lo8(50)
 5235 21ca 70E0      		ldi r23,hi8(50)
 5236 21cc 4FEF      		ldi r20,lo8(-1)
 5237 21ce 0E94 0000 		call lcd_graphics_plot_pixel
 5238               	.LM608:
 5239 21d2 8BE1      		ldi r24,lo8(27)
 5240 21d4 90E0      		ldi r25,hi8(27)
 5241 21d6 63E3      		ldi r22,lo8(51)
 5242 21d8 70E0      		ldi r23,hi8(51)
 5243 21da 4FEF      		ldi r20,lo8(-1)
 5244 21dc 0E94 0000 		call lcd_graphics_plot_pixel
 5245               	.LM609:
 5246 21e0 8BE1      		ldi r24,lo8(27)
 5247 21e2 90E0      		ldi r25,hi8(27)
 5248 21e4 66E3      		ldi r22,lo8(54)
 5249 21e6 70E0      		ldi r23,hi8(54)
 5250 21e8 4FEF      		ldi r20,lo8(-1)
 5251 21ea 0E94 0000 		call lcd_graphics_plot_pixel
 5252               	.LM610:
 5253 21ee 8BE1      		ldi r24,lo8(27)
 5254 21f0 90E0      		ldi r25,hi8(27)
 5255 21f2 67E3      		ldi r22,lo8(55)
 5256 21f4 70E0      		ldi r23,hi8(55)
 5257 21f6 4FEF      		ldi r20,lo8(-1)
 5258 21f8 0E94 0000 		call lcd_graphics_plot_pixel
 5259               	.LM611:
 5260 21fc 8CE1      		ldi r24,lo8(28)
 5261 21fe 90E0      		ldi r25,hi8(28)
 5262 2200 63E0      		ldi r22,lo8(3)
 5263 2202 70E0      		ldi r23,hi8(3)
 5264 2204 4FEF      		ldi r20,lo8(-1)
 5265 2206 0E94 0000 		call lcd_graphics_plot_pixel
 5266               	.LM612:
 5267 220a 8CE1      		ldi r24,lo8(28)
 5268 220c 90E0      		ldi r25,hi8(28)
 5269 220e 64E0      		ldi r22,lo8(4)
 5270 2210 70E0      		ldi r23,hi8(4)
 5271 2212 4FEF      		ldi r20,lo8(-1)
 5272 2214 0E94 0000 		call lcd_graphics_plot_pixel
 5273               	.LM613:
 5274 2218 8CE1      		ldi r24,lo8(28)
 5275 221a 90E0      		ldi r25,hi8(28)
 5276 221c 65E0      		ldi r22,lo8(5)
 5277 221e 70E0      		ldi r23,hi8(5)
 5278 2220 4FEF      		ldi r20,lo8(-1)
 5279 2222 0E94 0000 		call lcd_graphics_plot_pixel
 5280               	.LM614:
 5281 2226 8CE1      		ldi r24,lo8(28)
 5282 2228 90E0      		ldi r25,hi8(28)
 5283 222a 66E0      		ldi r22,lo8(6)
 5284 222c 70E0      		ldi r23,hi8(6)
 5285 222e 4FEF      		ldi r20,lo8(-1)
 5286 2230 0E94 0000 		call lcd_graphics_plot_pixel
 5287               	.LM615:
 5288 2234 8CE1      		ldi r24,lo8(28)
 5289 2236 90E0      		ldi r25,hi8(28)
 5290 2238 67E0      		ldi r22,lo8(7)
 5291 223a 70E0      		ldi r23,hi8(7)
 5292 223c 4FEF      		ldi r20,lo8(-1)
 5293 223e 0E94 0000 		call lcd_graphics_plot_pixel
 5294               	.LM616:
 5295 2242 8CE1      		ldi r24,lo8(28)
 5296 2244 90E0      		ldi r25,hi8(28)
 5297 2246 68E0      		ldi r22,lo8(8)
 5298 2248 70E0      		ldi r23,hi8(8)
 5299 224a 4FEF      		ldi r20,lo8(-1)
 5300 224c 0E94 0000 		call lcd_graphics_plot_pixel
 5301               	.LM617:
 5302 2250 8CE1      		ldi r24,lo8(28)
 5303 2252 90E0      		ldi r25,hi8(28)
 5304 2254 69E0      		ldi r22,lo8(9)
 5305 2256 70E0      		ldi r23,hi8(9)
 5306 2258 4FEF      		ldi r20,lo8(-1)
 5307 225a 0E94 0000 		call lcd_graphics_plot_pixel
 5308               	.LM618:
 5309 225e 8CE1      		ldi r24,lo8(28)
 5310 2260 90E0      		ldi r25,hi8(28)
 5311 2262 6AE0      		ldi r22,lo8(10)
 5312 2264 70E0      		ldi r23,hi8(10)
 5313 2266 4FEF      		ldi r20,lo8(-1)
 5314 2268 0E94 0000 		call lcd_graphics_plot_pixel
 5315               	.LM619:
 5316 226c 8CE1      		ldi r24,lo8(28)
 5317 226e 90E0      		ldi r25,hi8(28)
 5318 2270 6BE0      		ldi r22,lo8(11)
 5319 2272 70E0      		ldi r23,hi8(11)
 5320 2274 4FEF      		ldi r20,lo8(-1)
 5321 2276 0E94 0000 		call lcd_graphics_plot_pixel
 5322               	.LM620:
 5323 227a 8CE1      		ldi r24,lo8(28)
 5324 227c 90E0      		ldi r25,hi8(28)
 5325 227e 6CE0      		ldi r22,lo8(12)
 5326 2280 70E0      		ldi r23,hi8(12)
 5327 2282 4FEF      		ldi r20,lo8(-1)
 5328 2284 0E94 0000 		call lcd_graphics_plot_pixel
 5329               	.LM621:
 5330 2288 8CE1      		ldi r24,lo8(28)
 5331 228a 90E0      		ldi r25,hi8(28)
 5332 228c 6DE0      		ldi r22,lo8(13)
 5333 228e 70E0      		ldi r23,hi8(13)
 5334 2290 4FEF      		ldi r20,lo8(-1)
 5335 2292 0E94 0000 		call lcd_graphics_plot_pixel
 5336               	.LM622:
 5337 2296 8CE1      		ldi r24,lo8(28)
 5338 2298 90E0      		ldi r25,hi8(28)
 5339 229a 6EE0      		ldi r22,lo8(14)
 5340 229c 70E0      		ldi r23,hi8(14)
 5341 229e 4FEF      		ldi r20,lo8(-1)
 5342 22a0 0E94 0000 		call lcd_graphics_plot_pixel
 5343               	.LM623:
 5344 22a4 8CE1      		ldi r24,lo8(28)
 5345 22a6 90E0      		ldi r25,hi8(28)
 5346 22a8 6FE0      		ldi r22,lo8(15)
 5347 22aa 70E0      		ldi r23,hi8(15)
 5348 22ac 4FEF      		ldi r20,lo8(-1)
 5349 22ae 0E94 0000 		call lcd_graphics_plot_pixel
 5350               	.LM624:
 5351 22b2 8CE1      		ldi r24,lo8(28)
 5352 22b4 90E0      		ldi r25,hi8(28)
 5353 22b6 60E1      		ldi r22,lo8(16)
 5354 22b8 70E0      		ldi r23,hi8(16)
 5355 22ba 4FEF      		ldi r20,lo8(-1)
 5356 22bc 0E94 0000 		call lcd_graphics_plot_pixel
 5357               	.LM625:
 5358 22c0 8CE1      		ldi r24,lo8(28)
 5359 22c2 90E0      		ldi r25,hi8(28)
 5360 22c4 61E1      		ldi r22,lo8(17)
 5361 22c6 70E0      		ldi r23,hi8(17)
 5362 22c8 4FEF      		ldi r20,lo8(-1)
 5363 22ca 0E94 0000 		call lcd_graphics_plot_pixel
 5364               	.LM626:
 5365 22ce 8CE1      		ldi r24,lo8(28)
 5366 22d0 90E0      		ldi r25,hi8(28)
 5367 22d2 62E1      		ldi r22,lo8(18)
 5368 22d4 70E0      		ldi r23,hi8(18)
 5369 22d6 4FEF      		ldi r20,lo8(-1)
 5370 22d8 0E94 0000 		call lcd_graphics_plot_pixel
 5371               	.LM627:
 5372 22dc 8CE1      		ldi r24,lo8(28)
 5373 22de 90E0      		ldi r25,hi8(28)
 5374 22e0 63E1      		ldi r22,lo8(19)
 5375 22e2 70E0      		ldi r23,hi8(19)
 5376 22e4 4FEF      		ldi r20,lo8(-1)
 5377 22e6 0E94 0000 		call lcd_graphics_plot_pixel
 5378               	.LM628:
 5379 22ea 8CE1      		ldi r24,lo8(28)
 5380 22ec 90E0      		ldi r25,hi8(28)
 5381 22ee 64E1      		ldi r22,lo8(20)
 5382 22f0 70E0      		ldi r23,hi8(20)
 5383 22f2 4FEF      		ldi r20,lo8(-1)
 5384 22f4 0E94 0000 		call lcd_graphics_plot_pixel
 5385               	.LM629:
 5386 22f8 8CE1      		ldi r24,lo8(28)
 5387 22fa 90E0      		ldi r25,hi8(28)
 5388 22fc 65E1      		ldi r22,lo8(21)
 5389 22fe 70E0      		ldi r23,hi8(21)
 5390 2300 4FEF      		ldi r20,lo8(-1)
 5391 2302 0E94 0000 		call lcd_graphics_plot_pixel
 5392               	.LM630:
 5393 2306 8CE1      		ldi r24,lo8(28)
 5394 2308 90E0      		ldi r25,hi8(28)
 5395 230a 66E1      		ldi r22,lo8(22)
 5396 230c 70E0      		ldi r23,hi8(22)
 5397 230e 4FEF      		ldi r20,lo8(-1)
 5398 2310 0E94 0000 		call lcd_graphics_plot_pixel
 5399               	.LM631:
 5400 2314 8CE1      		ldi r24,lo8(28)
 5401 2316 90E0      		ldi r25,hi8(28)
 5402 2318 67E1      		ldi r22,lo8(23)
 5403 231a 70E0      		ldi r23,hi8(23)
 5404 231c 4FEF      		ldi r20,lo8(-1)
 5405 231e 0E94 0000 		call lcd_graphics_plot_pixel
 5406               	.LM632:
 5407 2322 8CE1      		ldi r24,lo8(28)
 5408 2324 90E0      		ldi r25,hi8(28)
 5409 2326 68E1      		ldi r22,lo8(24)
 5410 2328 70E0      		ldi r23,hi8(24)
 5411 232a 4FEF      		ldi r20,lo8(-1)
 5412 232c 0E94 0000 		call lcd_graphics_plot_pixel
 5413               	.LM633:
 5414 2330 8CE1      		ldi r24,lo8(28)
 5415 2332 90E0      		ldi r25,hi8(28)
 5416 2334 6AE1      		ldi r22,lo8(26)
 5417 2336 70E0      		ldi r23,hi8(26)
 5418 2338 4FEF      		ldi r20,lo8(-1)
 5419 233a 0E94 0000 		call lcd_graphics_plot_pixel
 5420               	.LM634:
 5421 233e 8CE1      		ldi r24,lo8(28)
 5422 2340 90E0      		ldi r25,hi8(28)
 5423 2342 6BE1      		ldi r22,lo8(27)
 5424 2344 70E0      		ldi r23,hi8(27)
 5425 2346 4FEF      		ldi r20,lo8(-1)
 5426 2348 0E94 0000 		call lcd_graphics_plot_pixel
 5427               	.LM635:
 5428 234c 8CE1      		ldi r24,lo8(28)
 5429 234e 90E0      		ldi r25,hi8(28)
 5430 2350 6CE1      		ldi r22,lo8(28)
 5431 2352 70E0      		ldi r23,hi8(28)
 5432 2354 4FEF      		ldi r20,lo8(-1)
 5433 2356 0E94 0000 		call lcd_graphics_plot_pixel
 5434               	.LM636:
 5435 235a 8CE1      		ldi r24,lo8(28)
 5436 235c 90E0      		ldi r25,hi8(28)
 5437 235e 6DE1      		ldi r22,lo8(29)
 5438 2360 70E0      		ldi r23,hi8(29)
 5439 2362 4FEF      		ldi r20,lo8(-1)
 5440 2364 0E94 0000 		call lcd_graphics_plot_pixel
 5441               	.LM637:
 5442 2368 8CE1      		ldi r24,lo8(28)
 5443 236a 90E0      		ldi r25,hi8(28)
 5444 236c 6EE1      		ldi r22,lo8(30)
 5445 236e 70E0      		ldi r23,hi8(30)
 5446 2370 4FEF      		ldi r20,lo8(-1)
 5447 2372 0E94 0000 		call lcd_graphics_plot_pixel
 5448               	.LM638:
 5449 2376 8CE1      		ldi r24,lo8(28)
 5450 2378 90E0      		ldi r25,hi8(28)
 5451 237a 6FE1      		ldi r22,lo8(31)
 5452 237c 70E0      		ldi r23,hi8(31)
 5453 237e 4FEF      		ldi r20,lo8(-1)
 5454 2380 0E94 0000 		call lcd_graphics_plot_pixel
 5455               	.LM639:
 5456 2384 8CE1      		ldi r24,lo8(28)
 5457 2386 90E0      		ldi r25,hi8(28)
 5458 2388 60E2      		ldi r22,lo8(32)
 5459 238a 70E0      		ldi r23,hi8(32)
 5460 238c 4FEF      		ldi r20,lo8(-1)
 5461 238e 0E94 0000 		call lcd_graphics_plot_pixel
 5462               	.LM640:
 5463 2392 8CE1      		ldi r24,lo8(28)
 5464 2394 90E0      		ldi r25,hi8(28)
 5465 2396 61E2      		ldi r22,lo8(33)
 5466 2398 70E0      		ldi r23,hi8(33)
 5467 239a 4FEF      		ldi r20,lo8(-1)
 5468 239c 0E94 0000 		call lcd_graphics_plot_pixel
 5469               	.LM641:
 5470 23a0 8CE1      		ldi r24,lo8(28)
 5471 23a2 90E0      		ldi r25,hi8(28)
 5472 23a4 62E2      		ldi r22,lo8(34)
 5473 23a6 70E0      		ldi r23,hi8(34)
 5474 23a8 4FEF      		ldi r20,lo8(-1)
 5475 23aa 0E94 0000 		call lcd_graphics_plot_pixel
 5476               	.LM642:
 5477 23ae 8CE1      		ldi r24,lo8(28)
 5478 23b0 90E0      		ldi r25,hi8(28)
 5479 23b2 63E2      		ldi r22,lo8(35)
 5480 23b4 70E0      		ldi r23,hi8(35)
 5481 23b6 4FEF      		ldi r20,lo8(-1)
 5482 23b8 0E94 0000 		call lcd_graphics_plot_pixel
 5483               	.LM643:
 5484 23bc 8CE1      		ldi r24,lo8(28)
 5485 23be 90E0      		ldi r25,hi8(28)
 5486 23c0 65E2      		ldi r22,lo8(37)
 5487 23c2 70E0      		ldi r23,hi8(37)
 5488 23c4 4FEF      		ldi r20,lo8(-1)
 5489 23c6 0E94 0000 		call lcd_graphics_plot_pixel
 5490               	.LM644:
 5491 23ca 8CE1      		ldi r24,lo8(28)
 5492 23cc 90E0      		ldi r25,hi8(28)
 5493 23ce 66E2      		ldi r22,lo8(38)
 5494 23d0 70E0      		ldi r23,hi8(38)
 5495 23d2 4FEF      		ldi r20,lo8(-1)
 5496 23d4 0E94 0000 		call lcd_graphics_plot_pixel
 5497               	.LM645:
 5498 23d8 8CE1      		ldi r24,lo8(28)
 5499 23da 90E0      		ldi r25,hi8(28)
 5500 23dc 67E2      		ldi r22,lo8(39)
 5501 23de 70E0      		ldi r23,hi8(39)
 5502 23e0 4FEF      		ldi r20,lo8(-1)
 5503 23e2 0E94 0000 		call lcd_graphics_plot_pixel
 5504               	.LM646:
 5505 23e6 8CE1      		ldi r24,lo8(28)
 5506 23e8 90E0      		ldi r25,hi8(28)
 5507 23ea 68E2      		ldi r22,lo8(40)
 5508 23ec 70E0      		ldi r23,hi8(40)
 5509 23ee 4FEF      		ldi r20,lo8(-1)
 5510 23f0 0E94 0000 		call lcd_graphics_plot_pixel
 5511               	.LM647:
 5512 23f4 8CE1      		ldi r24,lo8(28)
 5513 23f6 90E0      		ldi r25,hi8(28)
 5514 23f8 69E2      		ldi r22,lo8(41)
 5515 23fa 70E0      		ldi r23,hi8(41)
 5516 23fc 4FEF      		ldi r20,lo8(-1)
 5517 23fe 0E94 0000 		call lcd_graphics_plot_pixel
 5518               	.LM648:
 5519 2402 8CE1      		ldi r24,lo8(28)
 5520 2404 90E0      		ldi r25,hi8(28)
 5521 2406 6AE2      		ldi r22,lo8(42)
 5522 2408 70E0      		ldi r23,hi8(42)
 5523 240a 4FEF      		ldi r20,lo8(-1)
 5524 240c 0E94 0000 		call lcd_graphics_plot_pixel
 5525               	.LM649:
 5526 2410 8CE1      		ldi r24,lo8(28)
 5527 2412 90E0      		ldi r25,hi8(28)
 5528 2414 6BE2      		ldi r22,lo8(43)
 5529 2416 70E0      		ldi r23,hi8(43)
 5530 2418 4FEF      		ldi r20,lo8(-1)
 5531 241a 0E94 0000 		call lcd_graphics_plot_pixel
 5532               	.LM650:
 5533 241e 8CE1      		ldi r24,lo8(28)
 5534 2420 90E0      		ldi r25,hi8(28)
 5535 2422 6CE2      		ldi r22,lo8(44)
 5536 2424 70E0      		ldi r23,hi8(44)
 5537 2426 4FEF      		ldi r20,lo8(-1)
 5538 2428 0E94 0000 		call lcd_graphics_plot_pixel
 5539               	.LM651:
 5540 242c 8CE1      		ldi r24,lo8(28)
 5541 242e 90E0      		ldi r25,hi8(28)
 5542 2430 6EE2      		ldi r22,lo8(46)
 5543 2432 70E0      		ldi r23,hi8(46)
 5544 2434 4FEF      		ldi r20,lo8(-1)
 5545 2436 0E94 0000 		call lcd_graphics_plot_pixel
 5546               	.LM652:
 5547 243a 8CE1      		ldi r24,lo8(28)
 5548 243c 90E0      		ldi r25,hi8(28)
 5549 243e 6FE2      		ldi r22,lo8(47)
 5550 2440 70E0      		ldi r23,hi8(47)
 5551 2442 4FEF      		ldi r20,lo8(-1)
 5552 2444 0E94 0000 		call lcd_graphics_plot_pixel
 5553               	.LM653:
 5554 2448 8CE1      		ldi r24,lo8(28)
 5555 244a 90E0      		ldi r25,hi8(28)
 5556 244c 60E3      		ldi r22,lo8(48)
 5557 244e 70E0      		ldi r23,hi8(48)
 5558 2450 4FEF      		ldi r20,lo8(-1)
 5559 2452 0E94 0000 		call lcd_graphics_plot_pixel
 5560               	.LM654:
 5561 2456 8CE1      		ldi r24,lo8(28)
 5562 2458 90E0      		ldi r25,hi8(28)
 5563 245a 61E3      		ldi r22,lo8(49)
 5564 245c 70E0      		ldi r23,hi8(49)
 5565 245e 4FEF      		ldi r20,lo8(-1)
 5566 2460 0E94 0000 		call lcd_graphics_plot_pixel
 5567               	.LM655:
 5568 2464 8CE1      		ldi r24,lo8(28)
 5569 2466 90E0      		ldi r25,hi8(28)
 5570 2468 62E3      		ldi r22,lo8(50)
 5571 246a 70E0      		ldi r23,hi8(50)
 5572 246c 4FEF      		ldi r20,lo8(-1)
 5573 246e 0E94 0000 		call lcd_graphics_plot_pixel
 5574               	.LM656:
 5575 2472 8CE1      		ldi r24,lo8(28)
 5576 2474 90E0      		ldi r25,hi8(28)
 5577 2476 63E3      		ldi r22,lo8(51)
 5578 2478 70E0      		ldi r23,hi8(51)
 5579 247a 4FEF      		ldi r20,lo8(-1)
 5580 247c 0E94 0000 		call lcd_graphics_plot_pixel
 5581               	.LM657:
 5582 2480 8CE1      		ldi r24,lo8(28)
 5583 2482 90E0      		ldi r25,hi8(28)
 5584 2484 66E3      		ldi r22,lo8(54)
 5585 2486 70E0      		ldi r23,hi8(54)
 5586 2488 4FEF      		ldi r20,lo8(-1)
 5587 248a 0E94 0000 		call lcd_graphics_plot_pixel
 5588               	.LM658:
 5589 248e 8CE1      		ldi r24,lo8(28)
 5590 2490 90E0      		ldi r25,hi8(28)
 5591 2492 67E3      		ldi r22,lo8(55)
 5592 2494 70E0      		ldi r23,hi8(55)
 5593 2496 4FEF      		ldi r20,lo8(-1)
 5594 2498 0E94 0000 		call lcd_graphics_plot_pixel
 5595               	.LM659:
 5596 249c 8CE1      		ldi r24,lo8(28)
 5597 249e 90E0      		ldi r25,hi8(28)
 5598 24a0 69E3      		ldi r22,lo8(57)
 5599 24a2 70E0      		ldi r23,hi8(57)
 5600 24a4 4FEF      		ldi r20,lo8(-1)
 5601 24a6 0E94 0000 		call lcd_graphics_plot_pixel
 5602               	.LM660:
 5603 24aa 8CE1      		ldi r24,lo8(28)
 5604 24ac 90E0      		ldi r25,hi8(28)
 5605 24ae 6AE3      		ldi r22,lo8(58)
 5606 24b0 70E0      		ldi r23,hi8(58)
 5607 24b2 4FEF      		ldi r20,lo8(-1)
 5608 24b4 0E94 0000 		call lcd_graphics_plot_pixel
 5609               	.LM661:
 5610 24b8 8CE1      		ldi r24,lo8(28)
 5611 24ba 90E0      		ldi r25,hi8(28)
 5612 24bc 6BE3      		ldi r22,lo8(59)
 5613 24be 70E0      		ldi r23,hi8(59)
 5614 24c0 4FEF      		ldi r20,lo8(-1)
 5615 24c2 0E94 0000 		call lcd_graphics_plot_pixel
 5616               	.LM662:
 5617 24c6 8CE1      		ldi r24,lo8(28)
 5618 24c8 90E0      		ldi r25,hi8(28)
 5619 24ca 6CE3      		ldi r22,lo8(60)
 5620 24cc 70E0      		ldi r23,hi8(60)
 5621 24ce 4FEF      		ldi r20,lo8(-1)
 5622 24d0 0E94 0000 		call lcd_graphics_plot_pixel
 5623               	.LM663:
 5624 24d4 8CE1      		ldi r24,lo8(28)
 5625 24d6 90E0      		ldi r25,hi8(28)
 5626 24d8 6DE3      		ldi r22,lo8(61)
 5627 24da 70E0      		ldi r23,hi8(61)
 5628 24dc 4FEF      		ldi r20,lo8(-1)
 5629 24de 0E94 0000 		call lcd_graphics_plot_pixel
 5630               	.LM664:
 5631 24e2 8CE1      		ldi r24,lo8(28)
 5632 24e4 90E0      		ldi r25,hi8(28)
 5633 24e6 6EE3      		ldi r22,lo8(62)
 5634 24e8 70E0      		ldi r23,hi8(62)
 5635 24ea 4FEF      		ldi r20,lo8(-1)
 5636 24ec 0E94 0000 		call lcd_graphics_plot_pixel
 5637               	.LM665:
 5638 24f0 8CE1      		ldi r24,lo8(28)
 5639 24f2 90E0      		ldi r25,hi8(28)
 5640 24f4 6FE3      		ldi r22,lo8(63)
 5641 24f6 70E0      		ldi r23,hi8(63)
 5642 24f8 4FEF      		ldi r20,lo8(-1)
 5643 24fa 0E94 0000 		call lcd_graphics_plot_pixel
 5644               	.LM666:
 5645 24fe 8CE1      		ldi r24,lo8(28)
 5646 2500 90E0      		ldi r25,hi8(28)
 5647 2502 60E4      		ldi r22,lo8(64)
 5648 2504 70E0      		ldi r23,hi8(64)
 5649 2506 4FEF      		ldi r20,lo8(-1)
 5650 2508 0E94 0000 		call lcd_graphics_plot_pixel
 5651               	.LM667:
 5652 250c 8CE1      		ldi r24,lo8(28)
 5653 250e 90E0      		ldi r25,hi8(28)
 5654 2510 61E4      		ldi r22,lo8(65)
 5655 2512 70E0      		ldi r23,hi8(65)
 5656 2514 4FEF      		ldi r20,lo8(-1)
 5657 2516 0E94 0000 		call lcd_graphics_plot_pixel
 5658               	.LM668:
 5659 251a 8CE1      		ldi r24,lo8(28)
 5660 251c 90E0      		ldi r25,hi8(28)
 5661 251e 62E4      		ldi r22,lo8(66)
 5662 2520 70E0      		ldi r23,hi8(66)
 5663 2522 4FEF      		ldi r20,lo8(-1)
 5664 2524 0E94 0000 		call lcd_graphics_plot_pixel
 5665               	.LM669:
 5666 2528 8DE1      		ldi r24,lo8(29)
 5667 252a 90E0      		ldi r25,hi8(29)
 5668 252c 63E0      		ldi r22,lo8(3)
 5669 252e 70E0      		ldi r23,hi8(3)
 5670 2530 4FEF      		ldi r20,lo8(-1)
 5671 2532 0E94 0000 		call lcd_graphics_plot_pixel
 5672               	.LM670:
 5673 2536 8DE1      		ldi r24,lo8(29)
 5674 2538 90E0      		ldi r25,hi8(29)
 5675 253a 64E0      		ldi r22,lo8(4)
 5676 253c 70E0      		ldi r23,hi8(4)
 5677 253e 4FEF      		ldi r20,lo8(-1)
 5678 2540 0E94 0000 		call lcd_graphics_plot_pixel
 5679               	.LM671:
 5680 2544 8DE1      		ldi r24,lo8(29)
 5681 2546 90E0      		ldi r25,hi8(29)
 5682 2548 65E0      		ldi r22,lo8(5)
 5683 254a 70E0      		ldi r23,hi8(5)
 5684 254c 4FEF      		ldi r20,lo8(-1)
 5685 254e 0E94 0000 		call lcd_graphics_plot_pixel
 5686               	.LM672:
 5687 2552 8DE1      		ldi r24,lo8(29)
 5688 2554 90E0      		ldi r25,hi8(29)
 5689 2556 66E0      		ldi r22,lo8(6)
 5690 2558 70E0      		ldi r23,hi8(6)
 5691 255a 4FEF      		ldi r20,lo8(-1)
 5692 255c 0E94 0000 		call lcd_graphics_plot_pixel
 5693               	.LM673:
 5694 2560 8DE1      		ldi r24,lo8(29)
 5695 2562 90E0      		ldi r25,hi8(29)
 5696 2564 67E0      		ldi r22,lo8(7)
 5697 2566 70E0      		ldi r23,hi8(7)
 5698 2568 4FEF      		ldi r20,lo8(-1)
 5699 256a 0E94 0000 		call lcd_graphics_plot_pixel
 5700               	.LM674:
 5701 256e 8DE1      		ldi r24,lo8(29)
 5702 2570 90E0      		ldi r25,hi8(29)
 5703 2572 68E0      		ldi r22,lo8(8)
 5704 2574 70E0      		ldi r23,hi8(8)
 5705 2576 4FEF      		ldi r20,lo8(-1)
 5706 2578 0E94 0000 		call lcd_graphics_plot_pixel
 5707               	.LM675:
 5708 257c 8DE1      		ldi r24,lo8(29)
 5709 257e 90E0      		ldi r25,hi8(29)
 5710 2580 69E0      		ldi r22,lo8(9)
 5711 2582 70E0      		ldi r23,hi8(9)
 5712 2584 4FEF      		ldi r20,lo8(-1)
 5713 2586 0E94 0000 		call lcd_graphics_plot_pixel
 5714               	.LM676:
 5715 258a 8DE1      		ldi r24,lo8(29)
 5716 258c 90E0      		ldi r25,hi8(29)
 5717 258e 6AE0      		ldi r22,lo8(10)
 5718 2590 70E0      		ldi r23,hi8(10)
 5719 2592 4FEF      		ldi r20,lo8(-1)
 5720 2594 0E94 0000 		call lcd_graphics_plot_pixel
 5721               	.LM677:
 5722 2598 8DE1      		ldi r24,lo8(29)
 5723 259a 90E0      		ldi r25,hi8(29)
 5724 259c 6BE0      		ldi r22,lo8(11)
 5725 259e 70E0      		ldi r23,hi8(11)
 5726 25a0 4FEF      		ldi r20,lo8(-1)
 5727 25a2 0E94 0000 		call lcd_graphics_plot_pixel
 5728               	.LM678:
 5729 25a6 8DE1      		ldi r24,lo8(29)
 5730 25a8 90E0      		ldi r25,hi8(29)
 5731 25aa 6CE0      		ldi r22,lo8(12)
 5732 25ac 70E0      		ldi r23,hi8(12)
 5733 25ae 4FEF      		ldi r20,lo8(-1)
 5734 25b0 0E94 0000 		call lcd_graphics_plot_pixel
 5735               	.LM679:
 5736 25b4 8DE1      		ldi r24,lo8(29)
 5737 25b6 90E0      		ldi r25,hi8(29)
 5738 25b8 6DE0      		ldi r22,lo8(13)
 5739 25ba 70E0      		ldi r23,hi8(13)
 5740 25bc 4FEF      		ldi r20,lo8(-1)
 5741 25be 0E94 0000 		call lcd_graphics_plot_pixel
 5742               	.LM680:
 5743 25c2 8DE1      		ldi r24,lo8(29)
 5744 25c4 90E0      		ldi r25,hi8(29)
 5745 25c6 6EE0      		ldi r22,lo8(14)
 5746 25c8 70E0      		ldi r23,hi8(14)
 5747 25ca 4FEF      		ldi r20,lo8(-1)
 5748 25cc 0E94 0000 		call lcd_graphics_plot_pixel
 5749               	.LM681:
 5750 25d0 8DE1      		ldi r24,lo8(29)
 5751 25d2 90E0      		ldi r25,hi8(29)
 5752 25d4 6FE0      		ldi r22,lo8(15)
 5753 25d6 70E0      		ldi r23,hi8(15)
 5754 25d8 4FEF      		ldi r20,lo8(-1)
 5755 25da 0E94 0000 		call lcd_graphics_plot_pixel
 5756               	.LM682:
 5757 25de 8DE1      		ldi r24,lo8(29)
 5758 25e0 90E0      		ldi r25,hi8(29)
 5759 25e2 60E1      		ldi r22,lo8(16)
 5760 25e4 70E0      		ldi r23,hi8(16)
 5761 25e6 4FEF      		ldi r20,lo8(-1)
 5762 25e8 0E94 0000 		call lcd_graphics_plot_pixel
 5763               	.LM683:
 5764 25ec 8DE1      		ldi r24,lo8(29)
 5765 25ee 90E0      		ldi r25,hi8(29)
 5766 25f0 61E1      		ldi r22,lo8(17)
 5767 25f2 70E0      		ldi r23,hi8(17)
 5768 25f4 4FEF      		ldi r20,lo8(-1)
 5769 25f6 0E94 0000 		call lcd_graphics_plot_pixel
 5770               	.LM684:
 5771 25fa 8DE1      		ldi r24,lo8(29)
 5772 25fc 90E0      		ldi r25,hi8(29)
 5773 25fe 62E1      		ldi r22,lo8(18)
 5774 2600 70E0      		ldi r23,hi8(18)
 5775 2602 4FEF      		ldi r20,lo8(-1)
 5776 2604 0E94 0000 		call lcd_graphics_plot_pixel
 5777               	.LM685:
 5778 2608 8DE1      		ldi r24,lo8(29)
 5779 260a 90E0      		ldi r25,hi8(29)
 5780 260c 63E1      		ldi r22,lo8(19)
 5781 260e 70E0      		ldi r23,hi8(19)
 5782 2610 4FEF      		ldi r20,lo8(-1)
 5783 2612 0E94 0000 		call lcd_graphics_plot_pixel
 5784               	.LM686:
 5785 2616 8DE1      		ldi r24,lo8(29)
 5786 2618 90E0      		ldi r25,hi8(29)
 5787 261a 64E1      		ldi r22,lo8(20)
 5788 261c 70E0      		ldi r23,hi8(20)
 5789 261e 4FEF      		ldi r20,lo8(-1)
 5790 2620 0E94 0000 		call lcd_graphics_plot_pixel
 5791               	.LM687:
 5792 2624 8DE1      		ldi r24,lo8(29)
 5793 2626 90E0      		ldi r25,hi8(29)
 5794 2628 65E1      		ldi r22,lo8(21)
 5795 262a 70E0      		ldi r23,hi8(21)
 5796 262c 4FEF      		ldi r20,lo8(-1)
 5797 262e 0E94 0000 		call lcd_graphics_plot_pixel
 5798               	.LM688:
 5799 2632 8DE1      		ldi r24,lo8(29)
 5800 2634 90E0      		ldi r25,hi8(29)
 5801 2636 66E1      		ldi r22,lo8(22)
 5802 2638 70E0      		ldi r23,hi8(22)
 5803 263a 4FEF      		ldi r20,lo8(-1)
 5804 263c 0E94 0000 		call lcd_graphics_plot_pixel
 5805               	.LM689:
 5806 2640 8DE1      		ldi r24,lo8(29)
 5807 2642 90E0      		ldi r25,hi8(29)
 5808 2644 67E1      		ldi r22,lo8(23)
 5809 2646 70E0      		ldi r23,hi8(23)
 5810 2648 4FEF      		ldi r20,lo8(-1)
 5811 264a 0E94 0000 		call lcd_graphics_plot_pixel
 5812               	.LM690:
 5813 264e 8DE1      		ldi r24,lo8(29)
 5814 2650 90E0      		ldi r25,hi8(29)
 5815 2652 68E1      		ldi r22,lo8(24)
 5816 2654 70E0      		ldi r23,hi8(24)
 5817 2656 4FEF      		ldi r20,lo8(-1)
 5818 2658 0E94 0000 		call lcd_graphics_plot_pixel
 5819               	.LM691:
 5820 265c 8DE1      		ldi r24,lo8(29)
 5821 265e 90E0      		ldi r25,hi8(29)
 5822 2660 6AE1      		ldi r22,lo8(26)
 5823 2662 70E0      		ldi r23,hi8(26)
 5824 2664 4FEF      		ldi r20,lo8(-1)
 5825 2666 0E94 0000 		call lcd_graphics_plot_pixel
 5826               	.LM692:
 5827 266a 8DE1      		ldi r24,lo8(29)
 5828 266c 90E0      		ldi r25,hi8(29)
 5829 266e 6BE1      		ldi r22,lo8(27)
 5830 2670 70E0      		ldi r23,hi8(27)
 5831 2672 4FEF      		ldi r20,lo8(-1)
 5832 2674 0E94 0000 		call lcd_graphics_plot_pixel
 5833               	.LM693:
 5834 2678 8DE1      		ldi r24,lo8(29)
 5835 267a 90E0      		ldi r25,hi8(29)
 5836 267c 6EE1      		ldi r22,lo8(30)
 5837 267e 70E0      		ldi r23,hi8(30)
 5838 2680 4FEF      		ldi r20,lo8(-1)
 5839 2682 0E94 0000 		call lcd_graphics_plot_pixel
 5840               	.LM694:
 5841 2686 8DE1      		ldi r24,lo8(29)
 5842 2688 90E0      		ldi r25,hi8(29)
 5843 268a 6FE1      		ldi r22,lo8(31)
 5844 268c 70E0      		ldi r23,hi8(31)
 5845 268e 4FEF      		ldi r20,lo8(-1)
 5846 2690 0E94 0000 		call lcd_graphics_plot_pixel
 5847               	.LM695:
 5848 2694 8DE1      		ldi r24,lo8(29)
 5849 2696 90E0      		ldi r25,hi8(29)
 5850 2698 65E2      		ldi r22,lo8(37)
 5851 269a 70E0      		ldi r23,hi8(37)
 5852 269c 4FEF      		ldi r20,lo8(-1)
 5853 269e 0E94 0000 		call lcd_graphics_plot_pixel
 5854               	.LM696:
 5855 26a2 8DE1      		ldi r24,lo8(29)
 5856 26a4 90E0      		ldi r25,hi8(29)
 5857 26a6 66E2      		ldi r22,lo8(38)
 5858 26a8 70E0      		ldi r23,hi8(38)
 5859 26aa 4FEF      		ldi r20,lo8(-1)
 5860 26ac 0E94 0000 		call lcd_graphics_plot_pixel
 5861               	.LM697:
 5862 26b0 8DE1      		ldi r24,lo8(29)
 5863 26b2 90E0      		ldi r25,hi8(29)
 5864 26b4 67E2      		ldi r22,lo8(39)
 5865 26b6 70E0      		ldi r23,hi8(39)
 5866 26b8 4FEF      		ldi r20,lo8(-1)
 5867 26ba 0E94 0000 		call lcd_graphics_plot_pixel
 5868               	.LM698:
 5869 26be 8DE1      		ldi r24,lo8(29)
 5870 26c0 90E0      		ldi r25,hi8(29)
 5871 26c2 68E2      		ldi r22,lo8(40)
 5872 26c4 70E0      		ldi r23,hi8(40)
 5873 26c6 4FEF      		ldi r20,lo8(-1)
 5874 26c8 0E94 0000 		call lcd_graphics_plot_pixel
 5875               	.LM699:
 5876 26cc 8DE1      		ldi r24,lo8(29)
 5877 26ce 90E0      		ldi r25,hi8(29)
 5878 26d0 69E2      		ldi r22,lo8(41)
 5879 26d2 70E0      		ldi r23,hi8(41)
 5880 26d4 4FEF      		ldi r20,lo8(-1)
 5881 26d6 0E94 0000 		call lcd_graphics_plot_pixel
 5882               	.LM700:
 5883 26da 8DE1      		ldi r24,lo8(29)
 5884 26dc 90E0      		ldi r25,hi8(29)
 5885 26de 6AE2      		ldi r22,lo8(42)
 5886 26e0 70E0      		ldi r23,hi8(42)
 5887 26e2 4FEF      		ldi r20,lo8(-1)
 5888 26e4 0E94 0000 		call lcd_graphics_plot_pixel
 5889               	.LM701:
 5890 26e8 8DE1      		ldi r24,lo8(29)
 5891 26ea 90E0      		ldi r25,hi8(29)
 5892 26ec 6BE2      		ldi r22,lo8(43)
 5893 26ee 70E0      		ldi r23,hi8(43)
 5894 26f0 4FEF      		ldi r20,lo8(-1)
 5895 26f2 0E94 0000 		call lcd_graphics_plot_pixel
 5896               	.LM702:
 5897 26f6 8DE1      		ldi r24,lo8(29)
 5898 26f8 90E0      		ldi r25,hi8(29)
 5899 26fa 6CE2      		ldi r22,lo8(44)
 5900 26fc 70E0      		ldi r23,hi8(44)
 5901 26fe 4FEF      		ldi r20,lo8(-1)
 5902 2700 0E94 0000 		call lcd_graphics_plot_pixel
 5903               	.LM703:
 5904 2704 8DE1      		ldi r24,lo8(29)
 5905 2706 90E0      		ldi r25,hi8(29)
 5906 2708 69E3      		ldi r22,lo8(57)
 5907 270a 70E0      		ldi r23,hi8(57)
 5908 270c 4FEF      		ldi r20,lo8(-1)
 5909 270e 0E94 0000 		call lcd_graphics_plot_pixel
 5910               	.LM704:
 5911 2712 8DE1      		ldi r24,lo8(29)
 5912 2714 90E0      		ldi r25,hi8(29)
 5913 2716 6AE3      		ldi r22,lo8(58)
 5914 2718 70E0      		ldi r23,hi8(58)
 5915 271a 4FEF      		ldi r20,lo8(-1)
 5916 271c 0E94 0000 		call lcd_graphics_plot_pixel
 5917               	.LM705:
 5918 2720 8DE1      		ldi r24,lo8(29)
 5919 2722 90E0      		ldi r25,hi8(29)
 5920 2724 6BE3      		ldi r22,lo8(59)
 5921 2726 70E0      		ldi r23,hi8(59)
 5922 2728 4FEF      		ldi r20,lo8(-1)
 5923 272a 0E94 0000 		call lcd_graphics_plot_pixel
 5924               	.LM706:
 5925 272e 8DE1      		ldi r24,lo8(29)
 5926 2730 90E0      		ldi r25,hi8(29)
 5927 2732 6CE3      		ldi r22,lo8(60)
 5928 2734 70E0      		ldi r23,hi8(60)
 5929 2736 4FEF      		ldi r20,lo8(-1)
 5930 2738 0E94 0000 		call lcd_graphics_plot_pixel
 5931               	.LM707:
 5932 273c 8DE1      		ldi r24,lo8(29)
 5933 273e 90E0      		ldi r25,hi8(29)
 5934 2740 6DE3      		ldi r22,lo8(61)
 5935 2742 70E0      		ldi r23,hi8(61)
 5936 2744 4FEF      		ldi r20,lo8(-1)
 5937 2746 0E94 0000 		call lcd_graphics_plot_pixel
 5938               	.LM708:
 5939 274a 8DE1      		ldi r24,lo8(29)
 5940 274c 90E0      		ldi r25,hi8(29)
 5941 274e 6EE3      		ldi r22,lo8(62)
 5942 2750 70E0      		ldi r23,hi8(62)
 5943 2752 4FEF      		ldi r20,lo8(-1)
 5944 2754 0E94 0000 		call lcd_graphics_plot_pixel
 5945               	.LM709:
 5946 2758 8DE1      		ldi r24,lo8(29)
 5947 275a 90E0      		ldi r25,hi8(29)
 5948 275c 6FE3      		ldi r22,lo8(63)
 5949 275e 70E0      		ldi r23,hi8(63)
 5950 2760 4FEF      		ldi r20,lo8(-1)
 5951 2762 0E94 0000 		call lcd_graphics_plot_pixel
 5952               	.LM710:
 5953 2766 8DE1      		ldi r24,lo8(29)
 5954 2768 90E0      		ldi r25,hi8(29)
 5955 276a 60E4      		ldi r22,lo8(64)
 5956 276c 70E0      		ldi r23,hi8(64)
 5957 276e 4FEF      		ldi r20,lo8(-1)
 5958 2770 0E94 0000 		call lcd_graphics_plot_pixel
 5959               	.LM711:
 5960 2774 8DE1      		ldi r24,lo8(29)
 5961 2776 90E0      		ldi r25,hi8(29)
 5962 2778 61E4      		ldi r22,lo8(65)
 5963 277a 70E0      		ldi r23,hi8(65)
 5964 277c 4FEF      		ldi r20,lo8(-1)
 5965 277e 0E94 0000 		call lcd_graphics_plot_pixel
 5966               	.LM712:
 5967 2782 8DE1      		ldi r24,lo8(29)
 5968 2784 90E0      		ldi r25,hi8(29)
 5969 2786 62E4      		ldi r22,lo8(66)
 5970 2788 70E0      		ldi r23,hi8(66)
 5971 278a 4FEF      		ldi r20,lo8(-1)
 5972 278c 0E94 0000 		call lcd_graphics_plot_pixel
 5973               	.LM713:
 5974 2790 8DE1      		ldi r24,lo8(29)
 5975 2792 90E0      		ldi r25,hi8(29)
 5976 2794 63E4      		ldi r22,lo8(67)
 5977 2796 70E0      		ldi r23,hi8(67)
 5978 2798 4FEF      		ldi r20,lo8(-1)
 5979 279a 0E94 0000 		call lcd_graphics_plot_pixel
 5980               	.LM714:
 5981 279e 8DE1      		ldi r24,lo8(29)
 5982 27a0 90E0      		ldi r25,hi8(29)
 5983 27a2 64E4      		ldi r22,lo8(68)
 5984 27a4 70E0      		ldi r23,hi8(68)
 5985 27a6 4FEF      		ldi r20,lo8(-1)
 5986 27a8 0E94 0000 		call lcd_graphics_plot_pixel
 5987               	.LM715:
 5988 27ac 8DE1      		ldi r24,lo8(29)
 5989 27ae 90E0      		ldi r25,hi8(29)
 5990 27b0 65E4      		ldi r22,lo8(69)
 5991 27b2 70E0      		ldi r23,hi8(69)
 5992 27b4 4FEF      		ldi r20,lo8(-1)
 5993 27b6 0E94 0000 		call lcd_graphics_plot_pixel
 5994               	.LM716:
 5995 27ba 8DE1      		ldi r24,lo8(29)
 5996 27bc 90E0      		ldi r25,hi8(29)
 5997 27be 66E4      		ldi r22,lo8(70)
 5998 27c0 70E0      		ldi r23,hi8(70)
 5999 27c2 4FEF      		ldi r20,lo8(-1)
 6000 27c4 0E94 0000 		call lcd_graphics_plot_pixel
 6001               	.LM717:
 6002 27c8 8DE1      		ldi r24,lo8(29)
 6003 27ca 90E0      		ldi r25,hi8(29)
 6004 27cc 67E4      		ldi r22,lo8(71)
 6005 27ce 70E0      		ldi r23,hi8(71)
 6006 27d0 4FEF      		ldi r20,lo8(-1)
 6007 27d2 0E94 0000 		call lcd_graphics_plot_pixel
 6008               	.LM718:
 6009 27d6 8DE1      		ldi r24,lo8(29)
 6010 27d8 90E0      		ldi r25,hi8(29)
 6011 27da 68E4      		ldi r22,lo8(72)
 6012 27dc 70E0      		ldi r23,hi8(72)
 6013 27de 4FEF      		ldi r20,lo8(-1)
 6014 27e0 0E94 0000 		call lcd_graphics_plot_pixel
 6015               	.LM719:
 6016 27e4 8DE1      		ldi r24,lo8(29)
 6017 27e6 90E0      		ldi r25,hi8(29)
 6018 27e8 69E4      		ldi r22,lo8(73)
 6019 27ea 70E0      		ldi r23,hi8(73)
 6020 27ec 4FEF      		ldi r20,lo8(-1)
 6021 27ee 0E94 0000 		call lcd_graphics_plot_pixel
 6022               	.LM720:
 6023 27f2 8DE1      		ldi r24,lo8(29)
 6024 27f4 90E0      		ldi r25,hi8(29)
 6025 27f6 6AE4      		ldi r22,lo8(74)
 6026 27f8 70E0      		ldi r23,hi8(74)
 6027 27fa 4FEF      		ldi r20,lo8(-1)
 6028 27fc 0E94 0000 		call lcd_graphics_plot_pixel
 6029               	.LM721:
 6030 2800 8DE1      		ldi r24,lo8(29)
 6031 2802 90E0      		ldi r25,hi8(29)
 6032 2804 6BE4      		ldi r22,lo8(75)
 6033 2806 70E0      		ldi r23,hi8(75)
 6034 2808 4FEF      		ldi r20,lo8(-1)
 6035 280a 0E94 0000 		call lcd_graphics_plot_pixel
 6036               	.LM722:
 6037 280e 8DE1      		ldi r24,lo8(29)
 6038 2810 90E0      		ldi r25,hi8(29)
 6039 2812 6CE4      		ldi r22,lo8(76)
 6040 2814 70E0      		ldi r23,hi8(76)
 6041 2816 4FEF      		ldi r20,lo8(-1)
 6042 2818 0E94 0000 		call lcd_graphics_plot_pixel
 6043               	.LM723:
 6044 281c 8DE1      		ldi r24,lo8(29)
 6045 281e 90E0      		ldi r25,hi8(29)
 6046 2820 6DE4      		ldi r22,lo8(77)
 6047 2822 70E0      		ldi r23,hi8(77)
 6048 2824 4FEF      		ldi r20,lo8(-1)
 6049 2826 0E94 0000 		call lcd_graphics_plot_pixel
 6050               	.LM724:
 6051 282a 8EE1      		ldi r24,lo8(30)
 6052 282c 90E0      		ldi r25,hi8(30)
 6053 282e 63E0      		ldi r22,lo8(3)
 6054 2830 70E0      		ldi r23,hi8(3)
 6055 2832 4FEF      		ldi r20,lo8(-1)
 6056 2834 0E94 0000 		call lcd_graphics_plot_pixel
 6057               	.LM725:
 6058 2838 8EE1      		ldi r24,lo8(30)
 6059 283a 90E0      		ldi r25,hi8(30)
 6060 283c 64E0      		ldi r22,lo8(4)
 6061 283e 70E0      		ldi r23,hi8(4)
 6062 2840 4FEF      		ldi r20,lo8(-1)
 6063 2842 0E94 0000 		call lcd_graphics_plot_pixel
 6064               	.LM726:
 6065 2846 8EE1      		ldi r24,lo8(30)
 6066 2848 90E0      		ldi r25,hi8(30)
 6067 284a 65E0      		ldi r22,lo8(5)
 6068 284c 70E0      		ldi r23,hi8(5)
 6069 284e 4FEF      		ldi r20,lo8(-1)
 6070 2850 0E94 0000 		call lcd_graphics_plot_pixel
 6071               	.LM727:
 6072 2854 8EE1      		ldi r24,lo8(30)
 6073 2856 90E0      		ldi r25,hi8(30)
 6074 2858 66E0      		ldi r22,lo8(6)
 6075 285a 70E0      		ldi r23,hi8(6)
 6076 285c 4FEF      		ldi r20,lo8(-1)
 6077 285e 0E94 0000 		call lcd_graphics_plot_pixel
 6078               	.LM728:
 6079 2862 8EE1      		ldi r24,lo8(30)
 6080 2864 90E0      		ldi r25,hi8(30)
 6081 2866 67E0      		ldi r22,lo8(7)
 6082 2868 70E0      		ldi r23,hi8(7)
 6083 286a 4FEF      		ldi r20,lo8(-1)
 6084 286c 0E94 0000 		call lcd_graphics_plot_pixel
 6085               	.LM729:
 6086 2870 8EE1      		ldi r24,lo8(30)
 6087 2872 90E0      		ldi r25,hi8(30)
 6088 2874 68E0      		ldi r22,lo8(8)
 6089 2876 70E0      		ldi r23,hi8(8)
 6090 2878 4FEF      		ldi r20,lo8(-1)
 6091 287a 0E94 0000 		call lcd_graphics_plot_pixel
 6092               	.LM730:
 6093 287e 8EE1      		ldi r24,lo8(30)
 6094 2880 90E0      		ldi r25,hi8(30)
 6095 2882 69E0      		ldi r22,lo8(9)
 6096 2884 70E0      		ldi r23,hi8(9)
 6097 2886 4FEF      		ldi r20,lo8(-1)
 6098 2888 0E94 0000 		call lcd_graphics_plot_pixel
 6099               	.LM731:
 6100 288c 8EE1      		ldi r24,lo8(30)
 6101 288e 90E0      		ldi r25,hi8(30)
 6102 2890 6AE0      		ldi r22,lo8(10)
 6103 2892 70E0      		ldi r23,hi8(10)
 6104 2894 4FEF      		ldi r20,lo8(-1)
 6105 2896 0E94 0000 		call lcd_graphics_plot_pixel
 6106               	.LM732:
 6107 289a 8EE1      		ldi r24,lo8(30)
 6108 289c 90E0      		ldi r25,hi8(30)
 6109 289e 6BE0      		ldi r22,lo8(11)
 6110 28a0 70E0      		ldi r23,hi8(11)
 6111 28a2 4FEF      		ldi r20,lo8(-1)
 6112 28a4 0E94 0000 		call lcd_graphics_plot_pixel
 6113               	.LM733:
 6114 28a8 8EE1      		ldi r24,lo8(30)
 6115 28aa 90E0      		ldi r25,hi8(30)
 6116 28ac 6CE0      		ldi r22,lo8(12)
 6117 28ae 70E0      		ldi r23,hi8(12)
 6118 28b0 4FEF      		ldi r20,lo8(-1)
 6119 28b2 0E94 0000 		call lcd_graphics_plot_pixel
 6120               	.LM734:
 6121 28b6 8EE1      		ldi r24,lo8(30)
 6122 28b8 90E0      		ldi r25,hi8(30)
 6123 28ba 6DE0      		ldi r22,lo8(13)
 6124 28bc 70E0      		ldi r23,hi8(13)
 6125 28be 4FEF      		ldi r20,lo8(-1)
 6126 28c0 0E94 0000 		call lcd_graphics_plot_pixel
 6127               	.LM735:
 6128 28c4 8EE1      		ldi r24,lo8(30)
 6129 28c6 90E0      		ldi r25,hi8(30)
 6130 28c8 6EE0      		ldi r22,lo8(14)
 6131 28ca 70E0      		ldi r23,hi8(14)
 6132 28cc 4FEF      		ldi r20,lo8(-1)
 6133 28ce 0E94 0000 		call lcd_graphics_plot_pixel
 6134               	.LM736:
 6135 28d2 8EE1      		ldi r24,lo8(30)
 6136 28d4 90E0      		ldi r25,hi8(30)
 6137 28d6 6FE0      		ldi r22,lo8(15)
 6138 28d8 70E0      		ldi r23,hi8(15)
 6139 28da 4FEF      		ldi r20,lo8(-1)
 6140 28dc 0E94 0000 		call lcd_graphics_plot_pixel
 6141               	.LM737:
 6142 28e0 8EE1      		ldi r24,lo8(30)
 6143 28e2 90E0      		ldi r25,hi8(30)
 6144 28e4 60E1      		ldi r22,lo8(16)
 6145 28e6 70E0      		ldi r23,hi8(16)
 6146 28e8 4FEF      		ldi r20,lo8(-1)
 6147 28ea 0E94 0000 		call lcd_graphics_plot_pixel
 6148               	.LM738:
 6149 28ee 8EE1      		ldi r24,lo8(30)
 6150 28f0 90E0      		ldi r25,hi8(30)
 6151 28f2 61E1      		ldi r22,lo8(17)
 6152 28f4 70E0      		ldi r23,hi8(17)
 6153 28f6 4FEF      		ldi r20,lo8(-1)
 6154 28f8 0E94 0000 		call lcd_graphics_plot_pixel
 6155               	.LM739:
 6156 28fc 8EE1      		ldi r24,lo8(30)
 6157 28fe 90E0      		ldi r25,hi8(30)
 6158 2900 62E1      		ldi r22,lo8(18)
 6159 2902 70E0      		ldi r23,hi8(18)
 6160 2904 4FEF      		ldi r20,lo8(-1)
 6161 2906 0E94 0000 		call lcd_graphics_plot_pixel
 6162               	.LM740:
 6163 290a 8EE1      		ldi r24,lo8(30)
 6164 290c 90E0      		ldi r25,hi8(30)
 6165 290e 63E1      		ldi r22,lo8(19)
 6166 2910 70E0      		ldi r23,hi8(19)
 6167 2912 4FEF      		ldi r20,lo8(-1)
 6168 2914 0E94 0000 		call lcd_graphics_plot_pixel
 6169               	.LM741:
 6170 2918 8EE1      		ldi r24,lo8(30)
 6171 291a 90E0      		ldi r25,hi8(30)
 6172 291c 64E1      		ldi r22,lo8(20)
 6173 291e 70E0      		ldi r23,hi8(20)
 6174 2920 4FEF      		ldi r20,lo8(-1)
 6175 2922 0E94 0000 		call lcd_graphics_plot_pixel
 6176               	.LM742:
 6177 2926 8EE1      		ldi r24,lo8(30)
 6178 2928 90E0      		ldi r25,hi8(30)
 6179 292a 65E1      		ldi r22,lo8(21)
 6180 292c 70E0      		ldi r23,hi8(21)
 6181 292e 4FEF      		ldi r20,lo8(-1)
 6182 2930 0E94 0000 		call lcd_graphics_plot_pixel
 6183               	.LM743:
 6184 2934 8EE1      		ldi r24,lo8(30)
 6185 2936 90E0      		ldi r25,hi8(30)
 6186 2938 66E1      		ldi r22,lo8(22)
 6187 293a 70E0      		ldi r23,hi8(22)
 6188 293c 4FEF      		ldi r20,lo8(-1)
 6189 293e 0E94 0000 		call lcd_graphics_plot_pixel
 6190               	.LM744:
 6191 2942 8EE1      		ldi r24,lo8(30)
 6192 2944 90E0      		ldi r25,hi8(30)
 6193 2946 67E1      		ldi r22,lo8(23)
 6194 2948 70E0      		ldi r23,hi8(23)
 6195 294a 4FEF      		ldi r20,lo8(-1)
 6196 294c 0E94 0000 		call lcd_graphics_plot_pixel
 6197               	.LM745:
 6198 2950 8EE1      		ldi r24,lo8(30)
 6199 2952 90E0      		ldi r25,hi8(30)
 6200 2954 68E1      		ldi r22,lo8(24)
 6201 2956 70E0      		ldi r23,hi8(24)
 6202 2958 4FEF      		ldi r20,lo8(-1)
 6203 295a 0E94 0000 		call lcd_graphics_plot_pixel
 6204               	.LM746:
 6205 295e 8EE1      		ldi r24,lo8(30)
 6206 2960 90E0      		ldi r25,hi8(30)
 6207 2962 6AE1      		ldi r22,lo8(26)
 6208 2964 70E0      		ldi r23,hi8(26)
 6209 2966 4FEF      		ldi r20,lo8(-1)
 6210 2968 0E94 0000 		call lcd_graphics_plot_pixel
 6211               	.LM747:
 6212 296c 8EE1      		ldi r24,lo8(30)
 6213 296e 90E0      		ldi r25,hi8(30)
 6214 2970 6BE1      		ldi r22,lo8(27)
 6215 2972 70E0      		ldi r23,hi8(27)
 6216 2974 4FEF      		ldi r20,lo8(-1)
 6217 2976 0E94 0000 		call lcd_graphics_plot_pixel
 6218               	.LM748:
 6219 297a 8EE1      		ldi r24,lo8(30)
 6220 297c 90E0      		ldi r25,hi8(30)
 6221 297e 6EE1      		ldi r22,lo8(30)
 6222 2980 70E0      		ldi r23,hi8(30)
 6223 2982 4FEF      		ldi r20,lo8(-1)
 6224 2984 0E94 0000 		call lcd_graphics_plot_pixel
 6225               	.LM749:
 6226 2988 8EE1      		ldi r24,lo8(30)
 6227 298a 90E0      		ldi r25,hi8(30)
 6228 298c 6FE1      		ldi r22,lo8(31)
 6229 298e 70E0      		ldi r23,hi8(31)
 6230 2990 4FEF      		ldi r20,lo8(-1)
 6231 2992 0E94 0000 		call lcd_graphics_plot_pixel
 6232               	.LM750:
 6233 2996 8EE1      		ldi r24,lo8(30)
 6234 2998 90E0      		ldi r25,hi8(30)
 6235 299a 65E2      		ldi r22,lo8(37)
 6236 299c 70E0      		ldi r23,hi8(37)
 6237 299e 4FEF      		ldi r20,lo8(-1)
 6238 29a0 0E94 0000 		call lcd_graphics_plot_pixel
 6239               	.LM751:
 6240 29a4 8EE1      		ldi r24,lo8(30)
 6241 29a6 90E0      		ldi r25,hi8(30)
 6242 29a8 66E2      		ldi r22,lo8(38)
 6243 29aa 70E0      		ldi r23,hi8(38)
 6244 29ac 4FEF      		ldi r20,lo8(-1)
 6245 29ae 0E94 0000 		call lcd_graphics_plot_pixel
 6246               	.LM752:
 6247 29b2 8EE1      		ldi r24,lo8(30)
 6248 29b4 90E0      		ldi r25,hi8(30)
 6249 29b6 67E2      		ldi r22,lo8(39)
 6250 29b8 70E0      		ldi r23,hi8(39)
 6251 29ba 4FEF      		ldi r20,lo8(-1)
 6252 29bc 0E94 0000 		call lcd_graphics_plot_pixel
 6253               	.LM753:
 6254 29c0 8EE1      		ldi r24,lo8(30)
 6255 29c2 90E0      		ldi r25,hi8(30)
 6256 29c4 68E2      		ldi r22,lo8(40)
 6257 29c6 70E0      		ldi r23,hi8(40)
 6258 29c8 4FEF      		ldi r20,lo8(-1)
 6259 29ca 0E94 0000 		call lcd_graphics_plot_pixel
 6260               	.LM754:
 6261 29ce 8EE1      		ldi r24,lo8(30)
 6262 29d0 90E0      		ldi r25,hi8(30)
 6263 29d2 69E2      		ldi r22,lo8(41)
 6264 29d4 70E0      		ldi r23,hi8(41)
 6265 29d6 4FEF      		ldi r20,lo8(-1)
 6266 29d8 0E94 0000 		call lcd_graphics_plot_pixel
 6267               	.LM755:
 6268 29dc 8EE1      		ldi r24,lo8(30)
 6269 29de 90E0      		ldi r25,hi8(30)
 6270 29e0 6AE2      		ldi r22,lo8(42)
 6271 29e2 70E0      		ldi r23,hi8(42)
 6272 29e4 4FEF      		ldi r20,lo8(-1)
 6273 29e6 0E94 0000 		call lcd_graphics_plot_pixel
 6274               	.LM756:
 6275 29ea 8EE1      		ldi r24,lo8(30)
 6276 29ec 90E0      		ldi r25,hi8(30)
 6277 29ee 6BE2      		ldi r22,lo8(43)
 6278 29f0 70E0      		ldi r23,hi8(43)
 6279 29f2 4FEF      		ldi r20,lo8(-1)
 6280 29f4 0E94 0000 		call lcd_graphics_plot_pixel
 6281               	.LM757:
 6282 29f8 8EE1      		ldi r24,lo8(30)
 6283 29fa 90E0      		ldi r25,hi8(30)
 6284 29fc 6CE2      		ldi r22,lo8(44)
 6285 29fe 70E0      		ldi r23,hi8(44)
 6286 2a00 4FEF      		ldi r20,lo8(-1)
 6287 2a02 0E94 0000 		call lcd_graphics_plot_pixel
 6288               	.LM758:
 6289 2a06 8EE1      		ldi r24,lo8(30)
 6290 2a08 90E0      		ldi r25,hi8(30)
 6291 2a0a 69E3      		ldi r22,lo8(57)
 6292 2a0c 70E0      		ldi r23,hi8(57)
 6293 2a0e 4FEF      		ldi r20,lo8(-1)
 6294 2a10 0E94 0000 		call lcd_graphics_plot_pixel
 6295               	.LM759:
 6296 2a14 8EE1      		ldi r24,lo8(30)
 6297 2a16 90E0      		ldi r25,hi8(30)
 6298 2a18 6AE3      		ldi r22,lo8(58)
 6299 2a1a 70E0      		ldi r23,hi8(58)
 6300 2a1c 4FEF      		ldi r20,lo8(-1)
 6301 2a1e 0E94 0000 		call lcd_graphics_plot_pixel
 6302               	.LM760:
 6303 2a22 8EE1      		ldi r24,lo8(30)
 6304 2a24 90E0      		ldi r25,hi8(30)
 6305 2a26 6BE3      		ldi r22,lo8(59)
 6306 2a28 70E0      		ldi r23,hi8(59)
 6307 2a2a 4FEF      		ldi r20,lo8(-1)
 6308 2a2c 0E94 0000 		call lcd_graphics_plot_pixel
 6309               	.LM761:
 6310 2a30 8EE1      		ldi r24,lo8(30)
 6311 2a32 90E0      		ldi r25,hi8(30)
 6312 2a34 6CE3      		ldi r22,lo8(60)
 6313 2a36 70E0      		ldi r23,hi8(60)
 6314 2a38 4FEF      		ldi r20,lo8(-1)
 6315 2a3a 0E94 0000 		call lcd_graphics_plot_pixel
 6316               	.LM762:
 6317 2a3e 8EE1      		ldi r24,lo8(30)
 6318 2a40 90E0      		ldi r25,hi8(30)
 6319 2a42 6DE3      		ldi r22,lo8(61)
 6320 2a44 70E0      		ldi r23,hi8(61)
 6321 2a46 4FEF      		ldi r20,lo8(-1)
 6322 2a48 0E94 0000 		call lcd_graphics_plot_pixel
 6323               	.LM763:
 6324 2a4c 8EE1      		ldi r24,lo8(30)
 6325 2a4e 90E0      		ldi r25,hi8(30)
 6326 2a50 6EE3      		ldi r22,lo8(62)
 6327 2a52 70E0      		ldi r23,hi8(62)
 6328 2a54 4FEF      		ldi r20,lo8(-1)
 6329 2a56 0E94 0000 		call lcd_graphics_plot_pixel
 6330               	.LM764:
 6331 2a5a 8EE1      		ldi r24,lo8(30)
 6332 2a5c 90E0      		ldi r25,hi8(30)
 6333 2a5e 6FE3      		ldi r22,lo8(63)
 6334 2a60 70E0      		ldi r23,hi8(63)
 6335 2a62 4FEF      		ldi r20,lo8(-1)
 6336 2a64 0E94 0000 		call lcd_graphics_plot_pixel
 6337               	.LM765:
 6338 2a68 8EE1      		ldi r24,lo8(30)
 6339 2a6a 90E0      		ldi r25,hi8(30)
 6340 2a6c 60E4      		ldi r22,lo8(64)
 6341 2a6e 70E0      		ldi r23,hi8(64)
 6342 2a70 4FEF      		ldi r20,lo8(-1)
 6343 2a72 0E94 0000 		call lcd_graphics_plot_pixel
 6344               	.LM766:
 6345 2a76 8EE1      		ldi r24,lo8(30)
 6346 2a78 90E0      		ldi r25,hi8(30)
 6347 2a7a 61E4      		ldi r22,lo8(65)
 6348 2a7c 70E0      		ldi r23,hi8(65)
 6349 2a7e 4FEF      		ldi r20,lo8(-1)
 6350 2a80 0E94 0000 		call lcd_graphics_plot_pixel
 6351               	.LM767:
 6352 2a84 8EE1      		ldi r24,lo8(30)
 6353 2a86 90E0      		ldi r25,hi8(30)
 6354 2a88 62E4      		ldi r22,lo8(66)
 6355 2a8a 70E0      		ldi r23,hi8(66)
 6356 2a8c 4FEF      		ldi r20,lo8(-1)
 6357 2a8e 0E94 0000 		call lcd_graphics_plot_pixel
 6358               	.LM768:
 6359 2a92 8EE1      		ldi r24,lo8(30)
 6360 2a94 90E0      		ldi r25,hi8(30)
 6361 2a96 63E4      		ldi r22,lo8(67)
 6362 2a98 70E0      		ldi r23,hi8(67)
 6363 2a9a 4FEF      		ldi r20,lo8(-1)
 6364 2a9c 0E94 0000 		call lcd_graphics_plot_pixel
 6365               	.LM769:
 6366 2aa0 8EE1      		ldi r24,lo8(30)
 6367 2aa2 90E0      		ldi r25,hi8(30)
 6368 2aa4 64E4      		ldi r22,lo8(68)
 6369 2aa6 70E0      		ldi r23,hi8(68)
 6370 2aa8 4FEF      		ldi r20,lo8(-1)
 6371 2aaa 0E94 0000 		call lcd_graphics_plot_pixel
 6372               	.LM770:
 6373 2aae 8EE1      		ldi r24,lo8(30)
 6374 2ab0 90E0      		ldi r25,hi8(30)
 6375 2ab2 65E4      		ldi r22,lo8(69)
 6376 2ab4 70E0      		ldi r23,hi8(69)
 6377 2ab6 4FEF      		ldi r20,lo8(-1)
 6378 2ab8 0E94 0000 		call lcd_graphics_plot_pixel
 6379               	.LM771:
 6380 2abc 8EE1      		ldi r24,lo8(30)
 6381 2abe 90E0      		ldi r25,hi8(30)
 6382 2ac0 66E4      		ldi r22,lo8(70)
 6383 2ac2 70E0      		ldi r23,hi8(70)
 6384 2ac4 4FEF      		ldi r20,lo8(-1)
 6385 2ac6 0E94 0000 		call lcd_graphics_plot_pixel
 6386               	.LM772:
 6387 2aca 8EE1      		ldi r24,lo8(30)
 6388 2acc 90E0      		ldi r25,hi8(30)
 6389 2ace 67E4      		ldi r22,lo8(71)
 6390 2ad0 70E0      		ldi r23,hi8(71)
 6391 2ad2 4FEF      		ldi r20,lo8(-1)
 6392 2ad4 0E94 0000 		call lcd_graphics_plot_pixel
 6393               	.LM773:
 6394 2ad8 8EE1      		ldi r24,lo8(30)
 6395 2ada 90E0      		ldi r25,hi8(30)
 6396 2adc 68E4      		ldi r22,lo8(72)
 6397 2ade 70E0      		ldi r23,hi8(72)
 6398 2ae0 4FEF      		ldi r20,lo8(-1)
 6399 2ae2 0E94 0000 		call lcd_graphics_plot_pixel
 6400               	.LM774:
 6401 2ae6 8FE1      		ldi r24,lo8(31)
 6402 2ae8 90E0      		ldi r25,hi8(31)
 6403 2aea 63E0      		ldi r22,lo8(3)
 6404 2aec 70E0      		ldi r23,hi8(3)
 6405 2aee 4FEF      		ldi r20,lo8(-1)
 6406 2af0 0E94 0000 		call lcd_graphics_plot_pixel
 6407               	.LM775:
 6408 2af4 8FE1      		ldi r24,lo8(31)
 6409 2af6 90E0      		ldi r25,hi8(31)
 6410 2af8 64E0      		ldi r22,lo8(4)
 6411 2afa 70E0      		ldi r23,hi8(4)
 6412 2afc 4FEF      		ldi r20,lo8(-1)
 6413 2afe 0E94 0000 		call lcd_graphics_plot_pixel
 6414               	.LM776:
 6415 2b02 8FE1      		ldi r24,lo8(31)
 6416 2b04 90E0      		ldi r25,hi8(31)
 6417 2b06 65E0      		ldi r22,lo8(5)
 6418 2b08 70E0      		ldi r23,hi8(5)
 6419 2b0a 4FEF      		ldi r20,lo8(-1)
 6420 2b0c 0E94 0000 		call lcd_graphics_plot_pixel
 6421               	.LM777:
 6422 2b10 8FE1      		ldi r24,lo8(31)
 6423 2b12 90E0      		ldi r25,hi8(31)
 6424 2b14 66E0      		ldi r22,lo8(6)
 6425 2b16 70E0      		ldi r23,hi8(6)
 6426 2b18 4FEF      		ldi r20,lo8(-1)
 6427 2b1a 0E94 0000 		call lcd_graphics_plot_pixel
 6428               	.LM778:
 6429 2b1e 8FE1      		ldi r24,lo8(31)
 6430 2b20 90E0      		ldi r25,hi8(31)
 6431 2b22 67E0      		ldi r22,lo8(7)
 6432 2b24 70E0      		ldi r23,hi8(7)
 6433 2b26 4FEF      		ldi r20,lo8(-1)
 6434 2b28 0E94 0000 		call lcd_graphics_plot_pixel
 6435               	.LM779:
 6436 2b2c 8FE1      		ldi r24,lo8(31)
 6437 2b2e 90E0      		ldi r25,hi8(31)
 6438 2b30 68E0      		ldi r22,lo8(8)
 6439 2b32 70E0      		ldi r23,hi8(8)
 6440 2b34 4FEF      		ldi r20,lo8(-1)
 6441 2b36 0E94 0000 		call lcd_graphics_plot_pixel
 6442               	.LM780:
 6443 2b3a 8FE1      		ldi r24,lo8(31)
 6444 2b3c 90E0      		ldi r25,hi8(31)
 6445 2b3e 69E0      		ldi r22,lo8(9)
 6446 2b40 70E0      		ldi r23,hi8(9)
 6447 2b42 4FEF      		ldi r20,lo8(-1)
 6448 2b44 0E94 0000 		call lcd_graphics_plot_pixel
 6449               	.LM781:
 6450 2b48 8FE1      		ldi r24,lo8(31)
 6451 2b4a 90E0      		ldi r25,hi8(31)
 6452 2b4c 6AE0      		ldi r22,lo8(10)
 6453 2b4e 70E0      		ldi r23,hi8(10)
 6454 2b50 4FEF      		ldi r20,lo8(-1)
 6455 2b52 0E94 0000 		call lcd_graphics_plot_pixel
 6456               	.LM782:
 6457 2b56 8FE1      		ldi r24,lo8(31)
 6458 2b58 90E0      		ldi r25,hi8(31)
 6459 2b5a 6BE0      		ldi r22,lo8(11)
 6460 2b5c 70E0      		ldi r23,hi8(11)
 6461 2b5e 4FEF      		ldi r20,lo8(-1)
 6462 2b60 0E94 0000 		call lcd_graphics_plot_pixel
 6463               	.LM783:
 6464 2b64 8FE1      		ldi r24,lo8(31)
 6465 2b66 90E0      		ldi r25,hi8(31)
 6466 2b68 6CE0      		ldi r22,lo8(12)
 6467 2b6a 70E0      		ldi r23,hi8(12)
 6468 2b6c 4FEF      		ldi r20,lo8(-1)
 6469 2b6e 0E94 0000 		call lcd_graphics_plot_pixel
 6470               	.LM784:
 6471 2b72 8FE1      		ldi r24,lo8(31)
 6472 2b74 90E0      		ldi r25,hi8(31)
 6473 2b76 6DE0      		ldi r22,lo8(13)
 6474 2b78 70E0      		ldi r23,hi8(13)
 6475 2b7a 4FEF      		ldi r20,lo8(-1)
 6476 2b7c 0E94 0000 		call lcd_graphics_plot_pixel
 6477               	.LM785:
 6478 2b80 8FE1      		ldi r24,lo8(31)
 6479 2b82 90E0      		ldi r25,hi8(31)
 6480 2b84 6EE0      		ldi r22,lo8(14)
 6481 2b86 70E0      		ldi r23,hi8(14)
 6482 2b88 4FEF      		ldi r20,lo8(-1)
 6483 2b8a 0E94 0000 		call lcd_graphics_plot_pixel
 6484               	.LM786:
 6485 2b8e 8FE1      		ldi r24,lo8(31)
 6486 2b90 90E0      		ldi r25,hi8(31)
 6487 2b92 6FE0      		ldi r22,lo8(15)
 6488 2b94 70E0      		ldi r23,hi8(15)
 6489 2b96 4FEF      		ldi r20,lo8(-1)
 6490 2b98 0E94 0000 		call lcd_graphics_plot_pixel
 6491               	.LM787:
 6492 2b9c 8FE1      		ldi r24,lo8(31)
 6493 2b9e 90E0      		ldi r25,hi8(31)
 6494 2ba0 60E1      		ldi r22,lo8(16)
 6495 2ba2 70E0      		ldi r23,hi8(16)
 6496 2ba4 4FEF      		ldi r20,lo8(-1)
 6497 2ba6 0E94 0000 		call lcd_graphics_plot_pixel
 6498               	.LM788:
 6499 2baa 8FE1      		ldi r24,lo8(31)
 6500 2bac 90E0      		ldi r25,hi8(31)
 6501 2bae 61E1      		ldi r22,lo8(17)
 6502 2bb0 70E0      		ldi r23,hi8(17)
 6503 2bb2 4FEF      		ldi r20,lo8(-1)
 6504 2bb4 0E94 0000 		call lcd_graphics_plot_pixel
 6505               	.LM789:
 6506 2bb8 8FE1      		ldi r24,lo8(31)
 6507 2bba 90E0      		ldi r25,hi8(31)
 6508 2bbc 62E1      		ldi r22,lo8(18)
 6509 2bbe 70E0      		ldi r23,hi8(18)
 6510 2bc0 4FEF      		ldi r20,lo8(-1)
 6511 2bc2 0E94 0000 		call lcd_graphics_plot_pixel
 6512               	.LM790:
 6513 2bc6 8FE1      		ldi r24,lo8(31)
 6514 2bc8 90E0      		ldi r25,hi8(31)
 6515 2bca 63E1      		ldi r22,lo8(19)
 6516 2bcc 70E0      		ldi r23,hi8(19)
 6517 2bce 4FEF      		ldi r20,lo8(-1)
 6518 2bd0 0E94 0000 		call lcd_graphics_plot_pixel
 6519               	.LM791:
 6520 2bd4 8FE1      		ldi r24,lo8(31)
 6521 2bd6 90E0      		ldi r25,hi8(31)
 6522 2bd8 64E1      		ldi r22,lo8(20)
 6523 2bda 70E0      		ldi r23,hi8(20)
 6524 2bdc 4FEF      		ldi r20,lo8(-1)
 6525 2bde 0E94 0000 		call lcd_graphics_plot_pixel
 6526               	.LM792:
 6527 2be2 8FE1      		ldi r24,lo8(31)
 6528 2be4 90E0      		ldi r25,hi8(31)
 6529 2be6 65E1      		ldi r22,lo8(21)
 6530 2be8 70E0      		ldi r23,hi8(21)
 6531 2bea 4FEF      		ldi r20,lo8(-1)
 6532 2bec 0E94 0000 		call lcd_graphics_plot_pixel
 6533               	.LM793:
 6534 2bf0 8FE1      		ldi r24,lo8(31)
 6535 2bf2 90E0      		ldi r25,hi8(31)
 6536 2bf4 66E1      		ldi r22,lo8(22)
 6537 2bf6 70E0      		ldi r23,hi8(22)
 6538 2bf8 4FEF      		ldi r20,lo8(-1)
 6539 2bfa 0E94 0000 		call lcd_graphics_plot_pixel
 6540               	.LM794:
 6541 2bfe 8FE1      		ldi r24,lo8(31)
 6542 2c00 90E0      		ldi r25,hi8(31)
 6543 2c02 67E1      		ldi r22,lo8(23)
 6544 2c04 70E0      		ldi r23,hi8(23)
 6545 2c06 4FEF      		ldi r20,lo8(-1)
 6546 2c08 0E94 0000 		call lcd_graphics_plot_pixel
 6547               	.LM795:
 6548 2c0c 8FE1      		ldi r24,lo8(31)
 6549 2c0e 90E0      		ldi r25,hi8(31)
 6550 2c10 68E1      		ldi r22,lo8(24)
 6551 2c12 70E0      		ldi r23,hi8(24)
 6552 2c14 4FEF      		ldi r20,lo8(-1)
 6553 2c16 0E94 0000 		call lcd_graphics_plot_pixel
 6554               	.LM796:
 6555 2c1a 8FE1      		ldi r24,lo8(31)
 6556 2c1c 90E0      		ldi r25,hi8(31)
 6557 2c1e 6AE1      		ldi r22,lo8(26)
 6558 2c20 70E0      		ldi r23,hi8(26)
 6559 2c22 4FEF      		ldi r20,lo8(-1)
 6560 2c24 0E94 0000 		call lcd_graphics_plot_pixel
 6561               	.LM797:
 6562 2c28 8FE1      		ldi r24,lo8(31)
 6563 2c2a 90E0      		ldi r25,hi8(31)
 6564 2c2c 6BE1      		ldi r22,lo8(27)
 6565 2c2e 70E0      		ldi r23,hi8(27)
 6566 2c30 4FEF      		ldi r20,lo8(-1)
 6567 2c32 0E94 0000 		call lcd_graphics_plot_pixel
 6568               	.LM798:
 6569 2c36 8FE1      		ldi r24,lo8(31)
 6570 2c38 90E0      		ldi r25,hi8(31)
 6571 2c3a 6EE1      		ldi r22,lo8(30)
 6572 2c3c 70E0      		ldi r23,hi8(30)
 6573 2c3e 4FEF      		ldi r20,lo8(-1)
 6574 2c40 0E94 0000 		call lcd_graphics_plot_pixel
 6575               	.LM799:
 6576 2c44 8FE1      		ldi r24,lo8(31)
 6577 2c46 90E0      		ldi r25,hi8(31)
 6578 2c48 6FE1      		ldi r22,lo8(31)
 6579 2c4a 70E0      		ldi r23,hi8(31)
 6580 2c4c 4FEF      		ldi r20,lo8(-1)
 6581 2c4e 0E94 0000 		call lcd_graphics_plot_pixel
 6582               	.LM800:
 6583 2c52 8FE1      		ldi r24,lo8(31)
 6584 2c54 90E0      		ldi r25,hi8(31)
 6585 2c56 65E2      		ldi r22,lo8(37)
 6586 2c58 70E0      		ldi r23,hi8(37)
 6587 2c5a 4FEF      		ldi r20,lo8(-1)
 6588 2c5c 0E94 0000 		call lcd_graphics_plot_pixel
 6589               	.LM801:
 6590 2c60 8FE1      		ldi r24,lo8(31)
 6591 2c62 90E0      		ldi r25,hi8(31)
 6592 2c64 66E2      		ldi r22,lo8(38)
 6593 2c66 70E0      		ldi r23,hi8(38)
 6594 2c68 4FEF      		ldi r20,lo8(-1)
 6595 2c6a 0E94 0000 		call lcd_graphics_plot_pixel
 6596               	.LM802:
 6597 2c6e 8FE1      		ldi r24,lo8(31)
 6598 2c70 90E0      		ldi r25,hi8(31)
 6599 2c72 67E2      		ldi r22,lo8(39)
 6600 2c74 70E0      		ldi r23,hi8(39)
 6601 2c76 4FEF      		ldi r20,lo8(-1)
 6602 2c78 0E94 0000 		call lcd_graphics_plot_pixel
 6603               	.LM803:
 6604 2c7c 8FE1      		ldi r24,lo8(31)
 6605 2c7e 90E0      		ldi r25,hi8(31)
 6606 2c80 68E2      		ldi r22,lo8(40)
 6607 2c82 70E0      		ldi r23,hi8(40)
 6608 2c84 4FEF      		ldi r20,lo8(-1)
 6609 2c86 0E94 0000 		call lcd_graphics_plot_pixel
 6610               	.LM804:
 6611 2c8a 8FE1      		ldi r24,lo8(31)
 6612 2c8c 90E0      		ldi r25,hi8(31)
 6613 2c8e 69E2      		ldi r22,lo8(41)
 6614 2c90 70E0      		ldi r23,hi8(41)
 6615 2c92 4FEF      		ldi r20,lo8(-1)
 6616 2c94 0E94 0000 		call lcd_graphics_plot_pixel
 6617               	.LM805:
 6618 2c98 8FE1      		ldi r24,lo8(31)
 6619 2c9a 90E0      		ldi r25,hi8(31)
 6620 2c9c 6AE2      		ldi r22,lo8(42)
 6621 2c9e 70E0      		ldi r23,hi8(42)
 6622 2ca0 4FEF      		ldi r20,lo8(-1)
 6623 2ca2 0E94 0000 		call lcd_graphics_plot_pixel
 6624               	.LM806:
 6625 2ca6 8FE1      		ldi r24,lo8(31)
 6626 2ca8 90E0      		ldi r25,hi8(31)
 6627 2caa 6BE2      		ldi r22,lo8(43)
 6628 2cac 70E0      		ldi r23,hi8(43)
 6629 2cae 4FEF      		ldi r20,lo8(-1)
 6630 2cb0 0E94 0000 		call lcd_graphics_plot_pixel
 6631               	.LM807:
 6632 2cb4 8FE1      		ldi r24,lo8(31)
 6633 2cb6 90E0      		ldi r25,hi8(31)
 6634 2cb8 6CE2      		ldi r22,lo8(44)
 6635 2cba 70E0      		ldi r23,hi8(44)
 6636 2cbc 4FEF      		ldi r20,lo8(-1)
 6637 2cbe 0E94 0000 		call lcd_graphics_plot_pixel
 6638               	.LM808:
 6639 2cc2 8FE1      		ldi r24,lo8(31)
 6640 2cc4 90E0      		ldi r25,hi8(31)
 6641 2cc6 6EE2      		ldi r22,lo8(46)
 6642 2cc8 70E0      		ldi r23,hi8(46)
 6643 2cca 4FEF      		ldi r20,lo8(-1)
 6644 2ccc 0E94 0000 		call lcd_graphics_plot_pixel
 6645               	.LM809:
 6646 2cd0 8FE1      		ldi r24,lo8(31)
 6647 2cd2 90E0      		ldi r25,hi8(31)
 6648 2cd4 6FE2      		ldi r22,lo8(47)
 6649 2cd6 70E0      		ldi r23,hi8(47)
 6650 2cd8 4FEF      		ldi r20,lo8(-1)
 6651 2cda 0E94 0000 		call lcd_graphics_plot_pixel
 6652               	.LM810:
 6653 2cde 8FE1      		ldi r24,lo8(31)
 6654 2ce0 90E0      		ldi r25,hi8(31)
 6655 2ce2 66E3      		ldi r22,lo8(54)
 6656 2ce4 70E0      		ldi r23,hi8(54)
 6657 2ce6 4FEF      		ldi r20,lo8(-1)
 6658 2ce8 0E94 0000 		call lcd_graphics_plot_pixel
 6659               	.LM811:
 6660 2cec 8FE1      		ldi r24,lo8(31)
 6661 2cee 90E0      		ldi r25,hi8(31)
 6662 2cf0 67E3      		ldi r22,lo8(55)
 6663 2cf2 70E0      		ldi r23,hi8(55)
 6664 2cf4 4FEF      		ldi r20,lo8(-1)
 6665 2cf6 0E94 0000 		call lcd_graphics_plot_pixel
 6666               	.LM812:
 6667 2cfa 8FE1      		ldi r24,lo8(31)
 6668 2cfc 90E0      		ldi r25,hi8(31)
 6669 2cfe 69E3      		ldi r22,lo8(57)
 6670 2d00 70E0      		ldi r23,hi8(57)
 6671 2d02 4FEF      		ldi r20,lo8(-1)
 6672 2d04 0E94 0000 		call lcd_graphics_plot_pixel
 6673               	.LM813:
 6674 2d08 8FE1      		ldi r24,lo8(31)
 6675 2d0a 90E0      		ldi r25,hi8(31)
 6676 2d0c 6AE3      		ldi r22,lo8(58)
 6677 2d0e 70E0      		ldi r23,hi8(58)
 6678 2d10 4FEF      		ldi r20,lo8(-1)
 6679 2d12 0E94 0000 		call lcd_graphics_plot_pixel
 6680               	.LM814:
 6681 2d16 8FE1      		ldi r24,lo8(31)
 6682 2d18 90E0      		ldi r25,hi8(31)
 6683 2d1a 6BE3      		ldi r22,lo8(59)
 6684 2d1c 70E0      		ldi r23,hi8(59)
 6685 2d1e 4FEF      		ldi r20,lo8(-1)
 6686 2d20 0E94 0000 		call lcd_graphics_plot_pixel
 6687               	.LM815:
 6688 2d24 8FE1      		ldi r24,lo8(31)
 6689 2d26 90E0      		ldi r25,hi8(31)
 6690 2d28 6CE3      		ldi r22,lo8(60)
 6691 2d2a 70E0      		ldi r23,hi8(60)
 6692 2d2c 4FEF      		ldi r20,lo8(-1)
 6693 2d2e 0E94 0000 		call lcd_graphics_plot_pixel
 6694               	.LM816:
 6695 2d32 8FE1      		ldi r24,lo8(31)
 6696 2d34 90E0      		ldi r25,hi8(31)
 6697 2d36 6DE3      		ldi r22,lo8(61)
 6698 2d38 70E0      		ldi r23,hi8(61)
 6699 2d3a 4FEF      		ldi r20,lo8(-1)
 6700 2d3c 0E94 0000 		call lcd_graphics_plot_pixel
 6701               	.LM817:
 6702 2d40 8FE1      		ldi r24,lo8(31)
 6703 2d42 90E0      		ldi r25,hi8(31)
 6704 2d44 6EE3      		ldi r22,lo8(62)
 6705 2d46 70E0      		ldi r23,hi8(62)
 6706 2d48 4FEF      		ldi r20,lo8(-1)
 6707 2d4a 0E94 0000 		call lcd_graphics_plot_pixel
 6708               	.LM818:
 6709 2d4e 8FE1      		ldi r24,lo8(31)
 6710 2d50 90E0      		ldi r25,hi8(31)
 6711 2d52 6FE3      		ldi r22,lo8(63)
 6712 2d54 70E0      		ldi r23,hi8(63)
 6713 2d56 4FEF      		ldi r20,lo8(-1)
 6714 2d58 0E94 0000 		call lcd_graphics_plot_pixel
 6715               	.LM819:
 6716 2d5c 8FE1      		ldi r24,lo8(31)
 6717 2d5e 90E0      		ldi r25,hi8(31)
 6718 2d60 60E4      		ldi r22,lo8(64)
 6719 2d62 70E0      		ldi r23,hi8(64)
 6720 2d64 4FEF      		ldi r20,lo8(-1)
 6721 2d66 0E94 0000 		call lcd_graphics_plot_pixel
 6722               	.LM820:
 6723 2d6a 8FE1      		ldi r24,lo8(31)
 6724 2d6c 90E0      		ldi r25,hi8(31)
 6725 2d6e 61E4      		ldi r22,lo8(65)
 6726 2d70 70E0      		ldi r23,hi8(65)
 6727 2d72 4FEF      		ldi r20,lo8(-1)
 6728 2d74 0E94 0000 		call lcd_graphics_plot_pixel
 6729               	.LM821:
 6730 2d78 8FE1      		ldi r24,lo8(31)
 6731 2d7a 90E0      		ldi r25,hi8(31)
 6732 2d7c 62E4      		ldi r22,lo8(66)
 6733 2d7e 70E0      		ldi r23,hi8(66)
 6734 2d80 4FEF      		ldi r20,lo8(-1)
 6735 2d82 0E94 0000 		call lcd_graphics_plot_pixel
 6736               	.LM822:
 6737 2d86 8FE1      		ldi r24,lo8(31)
 6738 2d88 90E0      		ldi r25,hi8(31)
 6739 2d8a 63E4      		ldi r22,lo8(67)
 6740 2d8c 70E0      		ldi r23,hi8(67)
 6741 2d8e 4FEF      		ldi r20,lo8(-1)
 6742 2d90 0E94 0000 		call lcd_graphics_plot_pixel
 6743               	.LM823:
 6744 2d94 8FE1      		ldi r24,lo8(31)
 6745 2d96 90E0      		ldi r25,hi8(31)
 6746 2d98 64E4      		ldi r22,lo8(68)
 6747 2d9a 70E0      		ldi r23,hi8(68)
 6748 2d9c 4FEF      		ldi r20,lo8(-1)
 6749 2d9e 0E94 0000 		call lcd_graphics_plot_pixel
 6750               	.LM824:
 6751 2da2 80E2      		ldi r24,lo8(32)
 6752 2da4 90E0      		ldi r25,hi8(32)
 6753 2da6 63E0      		ldi r22,lo8(3)
 6754 2da8 70E0      		ldi r23,hi8(3)
 6755 2daa 4FEF      		ldi r20,lo8(-1)
 6756 2dac 0E94 0000 		call lcd_graphics_plot_pixel
 6757               	.LM825:
 6758 2db0 80E2      		ldi r24,lo8(32)
 6759 2db2 90E0      		ldi r25,hi8(32)
 6760 2db4 64E0      		ldi r22,lo8(4)
 6761 2db6 70E0      		ldi r23,hi8(4)
 6762 2db8 4FEF      		ldi r20,lo8(-1)
 6763 2dba 0E94 0000 		call lcd_graphics_plot_pixel
 6764               	.LM826:
 6765 2dbe 80E2      		ldi r24,lo8(32)
 6766 2dc0 90E0      		ldi r25,hi8(32)
 6767 2dc2 65E0      		ldi r22,lo8(5)
 6768 2dc4 70E0      		ldi r23,hi8(5)
 6769 2dc6 4FEF      		ldi r20,lo8(-1)
 6770 2dc8 0E94 0000 		call lcd_graphics_plot_pixel
 6771               	.LM827:
 6772 2dcc 80E2      		ldi r24,lo8(32)
 6773 2dce 90E0      		ldi r25,hi8(32)
 6774 2dd0 66E0      		ldi r22,lo8(6)
 6775 2dd2 70E0      		ldi r23,hi8(6)
 6776 2dd4 4FEF      		ldi r20,lo8(-1)
 6777 2dd6 0E94 0000 		call lcd_graphics_plot_pixel
 6778               	.LM828:
 6779 2dda 80E2      		ldi r24,lo8(32)
 6780 2ddc 90E0      		ldi r25,hi8(32)
 6781 2dde 67E0      		ldi r22,lo8(7)
 6782 2de0 70E0      		ldi r23,hi8(7)
 6783 2de2 4FEF      		ldi r20,lo8(-1)
 6784 2de4 0E94 0000 		call lcd_graphics_plot_pixel
 6785               	.LM829:
 6786 2de8 80E2      		ldi r24,lo8(32)
 6787 2dea 90E0      		ldi r25,hi8(32)
 6788 2dec 68E0      		ldi r22,lo8(8)
 6789 2dee 70E0      		ldi r23,hi8(8)
 6790 2df0 4FEF      		ldi r20,lo8(-1)
 6791 2df2 0E94 0000 		call lcd_graphics_plot_pixel
 6792               	.LM830:
 6793 2df6 80E2      		ldi r24,lo8(32)
 6794 2df8 90E0      		ldi r25,hi8(32)
 6795 2dfa 69E0      		ldi r22,lo8(9)
 6796 2dfc 70E0      		ldi r23,hi8(9)
 6797 2dfe 4FEF      		ldi r20,lo8(-1)
 6798 2e00 0E94 0000 		call lcd_graphics_plot_pixel
 6799               	.LM831:
 6800 2e04 80E2      		ldi r24,lo8(32)
 6801 2e06 90E0      		ldi r25,hi8(32)
 6802 2e08 6AE0      		ldi r22,lo8(10)
 6803 2e0a 70E0      		ldi r23,hi8(10)
 6804 2e0c 4FEF      		ldi r20,lo8(-1)
 6805 2e0e 0E94 0000 		call lcd_graphics_plot_pixel
 6806               	.LM832:
 6807 2e12 80E2      		ldi r24,lo8(32)
 6808 2e14 90E0      		ldi r25,hi8(32)
 6809 2e16 6BE0      		ldi r22,lo8(11)
 6810 2e18 70E0      		ldi r23,hi8(11)
 6811 2e1a 4FEF      		ldi r20,lo8(-1)
 6812 2e1c 0E94 0000 		call lcd_graphics_plot_pixel
 6813               	.LM833:
 6814 2e20 80E2      		ldi r24,lo8(32)
 6815 2e22 90E0      		ldi r25,hi8(32)
 6816 2e24 6CE0      		ldi r22,lo8(12)
 6817 2e26 70E0      		ldi r23,hi8(12)
 6818 2e28 4FEF      		ldi r20,lo8(-1)
 6819 2e2a 0E94 0000 		call lcd_graphics_plot_pixel
 6820               	.LM834:
 6821 2e2e 80E2      		ldi r24,lo8(32)
 6822 2e30 90E0      		ldi r25,hi8(32)
 6823 2e32 6DE0      		ldi r22,lo8(13)
 6824 2e34 70E0      		ldi r23,hi8(13)
 6825 2e36 4FEF      		ldi r20,lo8(-1)
 6826 2e38 0E94 0000 		call lcd_graphics_plot_pixel
 6827               	.LM835:
 6828 2e3c 80E2      		ldi r24,lo8(32)
 6829 2e3e 90E0      		ldi r25,hi8(32)
 6830 2e40 6EE0      		ldi r22,lo8(14)
 6831 2e42 70E0      		ldi r23,hi8(14)
 6832 2e44 4FEF      		ldi r20,lo8(-1)
 6833 2e46 0E94 0000 		call lcd_graphics_plot_pixel
 6834               	.LM836:
 6835 2e4a 80E2      		ldi r24,lo8(32)
 6836 2e4c 90E0      		ldi r25,hi8(32)
 6837 2e4e 6FE0      		ldi r22,lo8(15)
 6838 2e50 70E0      		ldi r23,hi8(15)
 6839 2e52 4FEF      		ldi r20,lo8(-1)
 6840 2e54 0E94 0000 		call lcd_graphics_plot_pixel
 6841               	.LM837:
 6842 2e58 80E2      		ldi r24,lo8(32)
 6843 2e5a 90E0      		ldi r25,hi8(32)
 6844 2e5c 60E1      		ldi r22,lo8(16)
 6845 2e5e 70E0      		ldi r23,hi8(16)
 6846 2e60 4FEF      		ldi r20,lo8(-1)
 6847 2e62 0E94 0000 		call lcd_graphics_plot_pixel
 6848               	.LM838:
 6849 2e66 80E2      		ldi r24,lo8(32)
 6850 2e68 90E0      		ldi r25,hi8(32)
 6851 2e6a 61E1      		ldi r22,lo8(17)
 6852 2e6c 70E0      		ldi r23,hi8(17)
 6853 2e6e 4FEF      		ldi r20,lo8(-1)
 6854 2e70 0E94 0000 		call lcd_graphics_plot_pixel
 6855               	.LM839:
 6856 2e74 80E2      		ldi r24,lo8(32)
 6857 2e76 90E0      		ldi r25,hi8(32)
 6858 2e78 62E1      		ldi r22,lo8(18)
 6859 2e7a 70E0      		ldi r23,hi8(18)
 6860 2e7c 4FEF      		ldi r20,lo8(-1)
 6861 2e7e 0E94 0000 		call lcd_graphics_plot_pixel
 6862               	.LM840:
 6863 2e82 80E2      		ldi r24,lo8(32)
 6864 2e84 90E0      		ldi r25,hi8(32)
 6865 2e86 63E1      		ldi r22,lo8(19)
 6866 2e88 70E0      		ldi r23,hi8(19)
 6867 2e8a 4FEF      		ldi r20,lo8(-1)
 6868 2e8c 0E94 0000 		call lcd_graphics_plot_pixel
 6869               	.LM841:
 6870 2e90 80E2      		ldi r24,lo8(32)
 6871 2e92 90E0      		ldi r25,hi8(32)
 6872 2e94 64E1      		ldi r22,lo8(20)
 6873 2e96 70E0      		ldi r23,hi8(20)
 6874 2e98 4FEF      		ldi r20,lo8(-1)
 6875 2e9a 0E94 0000 		call lcd_graphics_plot_pixel
 6876               	.LM842:
 6877 2e9e 80E2      		ldi r24,lo8(32)
 6878 2ea0 90E0      		ldi r25,hi8(32)
 6879 2ea2 65E1      		ldi r22,lo8(21)
 6880 2ea4 70E0      		ldi r23,hi8(21)
 6881 2ea6 4FEF      		ldi r20,lo8(-1)
 6882 2ea8 0E94 0000 		call lcd_graphics_plot_pixel
 6883               	.LM843:
 6884 2eac 80E2      		ldi r24,lo8(32)
 6885 2eae 90E0      		ldi r25,hi8(32)
 6886 2eb0 66E1      		ldi r22,lo8(22)
 6887 2eb2 70E0      		ldi r23,hi8(22)
 6888 2eb4 4FEF      		ldi r20,lo8(-1)
 6889 2eb6 0E94 0000 		call lcd_graphics_plot_pixel
 6890               	.LM844:
 6891 2eba 80E2      		ldi r24,lo8(32)
 6892 2ebc 90E0      		ldi r25,hi8(32)
 6893 2ebe 67E1      		ldi r22,lo8(23)
 6894 2ec0 70E0      		ldi r23,hi8(23)
 6895 2ec2 4FEF      		ldi r20,lo8(-1)
 6896 2ec4 0E94 0000 		call lcd_graphics_plot_pixel
 6897               	.LM845:
 6898 2ec8 80E2      		ldi r24,lo8(32)
 6899 2eca 90E0      		ldi r25,hi8(32)
 6900 2ecc 68E1      		ldi r22,lo8(24)
 6901 2ece 70E0      		ldi r23,hi8(24)
 6902 2ed0 4FEF      		ldi r20,lo8(-1)
 6903 2ed2 0E94 0000 		call lcd_graphics_plot_pixel
 6904               	.LM846:
 6905 2ed6 80E2      		ldi r24,lo8(32)
 6906 2ed8 90E0      		ldi r25,hi8(32)
 6907 2eda 6AE1      		ldi r22,lo8(26)
 6908 2edc 70E0      		ldi r23,hi8(26)
 6909 2ede 4FEF      		ldi r20,lo8(-1)
 6910 2ee0 0E94 0000 		call lcd_graphics_plot_pixel
 6911               	.LM847:
 6912 2ee4 80E2      		ldi r24,lo8(32)
 6913 2ee6 90E0      		ldi r25,hi8(32)
 6914 2ee8 6BE1      		ldi r22,lo8(27)
 6915 2eea 70E0      		ldi r23,hi8(27)
 6916 2eec 4FEF      		ldi r20,lo8(-1)
 6917 2eee 0E94 0000 		call lcd_graphics_plot_pixel
 6918               	.LM848:
 6919 2ef2 80E2      		ldi r24,lo8(32)
 6920 2ef4 90E0      		ldi r25,hi8(32)
 6921 2ef6 6EE1      		ldi r22,lo8(30)
 6922 2ef8 70E0      		ldi r23,hi8(30)
 6923 2efa 4FEF      		ldi r20,lo8(-1)
 6924 2efc 0E94 0000 		call lcd_graphics_plot_pixel
 6925               	.LM849:
 6926 2f00 80E2      		ldi r24,lo8(32)
 6927 2f02 90E0      		ldi r25,hi8(32)
 6928 2f04 6FE1      		ldi r22,lo8(31)
 6929 2f06 70E0      		ldi r23,hi8(31)
 6930 2f08 4FEF      		ldi r20,lo8(-1)
 6931 2f0a 0E94 0000 		call lcd_graphics_plot_pixel
 6932               	.LM850:
 6933 2f0e 80E2      		ldi r24,lo8(32)
 6934 2f10 90E0      		ldi r25,hi8(32)
 6935 2f12 65E2      		ldi r22,lo8(37)
 6936 2f14 70E0      		ldi r23,hi8(37)
 6937 2f16 4FEF      		ldi r20,lo8(-1)
 6938 2f18 0E94 0000 		call lcd_graphics_plot_pixel
 6939               	.LM851:
 6940 2f1c 80E2      		ldi r24,lo8(32)
 6941 2f1e 90E0      		ldi r25,hi8(32)
 6942 2f20 66E2      		ldi r22,lo8(38)
 6943 2f22 70E0      		ldi r23,hi8(38)
 6944 2f24 4FEF      		ldi r20,lo8(-1)
 6945 2f26 0E94 0000 		call lcd_graphics_plot_pixel
 6946               	.LM852:
 6947 2f2a 80E2      		ldi r24,lo8(32)
 6948 2f2c 90E0      		ldi r25,hi8(32)
 6949 2f2e 67E2      		ldi r22,lo8(39)
 6950 2f30 70E0      		ldi r23,hi8(39)
 6951 2f32 4FEF      		ldi r20,lo8(-1)
 6952 2f34 0E94 0000 		call lcd_graphics_plot_pixel
 6953               	.LM853:
 6954 2f38 80E2      		ldi r24,lo8(32)
 6955 2f3a 90E0      		ldi r25,hi8(32)
 6956 2f3c 68E2      		ldi r22,lo8(40)
 6957 2f3e 70E0      		ldi r23,hi8(40)
 6958 2f40 4FEF      		ldi r20,lo8(-1)
 6959 2f42 0E94 0000 		call lcd_graphics_plot_pixel
 6960               	.LM854:
 6961 2f46 80E2      		ldi r24,lo8(32)
 6962 2f48 90E0      		ldi r25,hi8(32)
 6963 2f4a 69E2      		ldi r22,lo8(41)
 6964 2f4c 70E0      		ldi r23,hi8(41)
 6965 2f4e 4FEF      		ldi r20,lo8(-1)
 6966 2f50 0E94 0000 		call lcd_graphics_plot_pixel
 6967               	.LM855:
 6968 2f54 80E2      		ldi r24,lo8(32)
 6969 2f56 90E0      		ldi r25,hi8(32)
 6970 2f58 6AE2      		ldi r22,lo8(42)
 6971 2f5a 70E0      		ldi r23,hi8(42)
 6972 2f5c 4FEF      		ldi r20,lo8(-1)
 6973 2f5e 0E94 0000 		call lcd_graphics_plot_pixel
 6974               	.LM856:
 6975 2f62 80E2      		ldi r24,lo8(32)
 6976 2f64 90E0      		ldi r25,hi8(32)
 6977 2f66 6BE2      		ldi r22,lo8(43)
 6978 2f68 70E0      		ldi r23,hi8(43)
 6979 2f6a 4FEF      		ldi r20,lo8(-1)
 6980 2f6c 0E94 0000 		call lcd_graphics_plot_pixel
 6981               	.LM857:
 6982 2f70 80E2      		ldi r24,lo8(32)
 6983 2f72 90E0      		ldi r25,hi8(32)
 6984 2f74 6CE2      		ldi r22,lo8(44)
 6985 2f76 70E0      		ldi r23,hi8(44)
 6986 2f78 4FEF      		ldi r20,lo8(-1)
 6987 2f7a 0E94 0000 		call lcd_graphics_plot_pixel
 6988               	.LM858:
 6989 2f7e 80E2      		ldi r24,lo8(32)
 6990 2f80 90E0      		ldi r25,hi8(32)
 6991 2f82 6EE2      		ldi r22,lo8(46)
 6992 2f84 70E0      		ldi r23,hi8(46)
 6993 2f86 4FEF      		ldi r20,lo8(-1)
 6994 2f88 0E94 0000 		call lcd_graphics_plot_pixel
 6995               	.LM859:
 6996 2f8c 80E2      		ldi r24,lo8(32)
 6997 2f8e 90E0      		ldi r25,hi8(32)
 6998 2f90 6FE2      		ldi r22,lo8(47)
 6999 2f92 70E0      		ldi r23,hi8(47)
 7000 2f94 4FEF      		ldi r20,lo8(-1)
 7001 2f96 0E94 0000 		call lcd_graphics_plot_pixel
 7002               	.LM860:
 7003 2f9a 80E2      		ldi r24,lo8(32)
 7004 2f9c 90E0      		ldi r25,hi8(32)
 7005 2f9e 66E3      		ldi r22,lo8(54)
 7006 2fa0 70E0      		ldi r23,hi8(54)
 7007 2fa2 4FEF      		ldi r20,lo8(-1)
 7008 2fa4 0E94 0000 		call lcd_graphics_plot_pixel
 7009               	.LM861:
 7010 2fa8 80E2      		ldi r24,lo8(32)
 7011 2faa 90E0      		ldi r25,hi8(32)
 7012 2fac 67E3      		ldi r22,lo8(55)
 7013 2fae 70E0      		ldi r23,hi8(55)
 7014 2fb0 4FEF      		ldi r20,lo8(-1)
 7015 2fb2 0E94 0000 		call lcd_graphics_plot_pixel
 7016               	.LM862:
 7017 2fb6 80E2      		ldi r24,lo8(32)
 7018 2fb8 90E0      		ldi r25,hi8(32)
 7019 2fba 69E3      		ldi r22,lo8(57)
 7020 2fbc 70E0      		ldi r23,hi8(57)
 7021 2fbe 4FEF      		ldi r20,lo8(-1)
 7022 2fc0 0E94 0000 		call lcd_graphics_plot_pixel
 7023               	.LM863:
 7024 2fc4 80E2      		ldi r24,lo8(32)
 7025 2fc6 90E0      		ldi r25,hi8(32)
 7026 2fc8 6AE3      		ldi r22,lo8(58)
 7027 2fca 70E0      		ldi r23,hi8(58)
 7028 2fcc 4FEF      		ldi r20,lo8(-1)
 7029 2fce 0E94 0000 		call lcd_graphics_plot_pixel
 7030               	.LM864:
 7031 2fd2 80E2      		ldi r24,lo8(32)
 7032 2fd4 90E0      		ldi r25,hi8(32)
 7033 2fd6 6BE3      		ldi r22,lo8(59)
 7034 2fd8 70E0      		ldi r23,hi8(59)
 7035 2fda 4FEF      		ldi r20,lo8(-1)
 7036 2fdc 0E94 0000 		call lcd_graphics_plot_pixel
 7037               	.LM865:
 7038 2fe0 80E2      		ldi r24,lo8(32)
 7039 2fe2 90E0      		ldi r25,hi8(32)
 7040 2fe4 6CE3      		ldi r22,lo8(60)
 7041 2fe6 70E0      		ldi r23,hi8(60)
 7042 2fe8 4FEF      		ldi r20,lo8(-1)
 7043 2fea 0E94 0000 		call lcd_graphics_plot_pixel
 7044               	.LM866:
 7045 2fee 80E2      		ldi r24,lo8(32)
 7046 2ff0 90E0      		ldi r25,hi8(32)
 7047 2ff2 6DE3      		ldi r22,lo8(61)
 7048 2ff4 70E0      		ldi r23,hi8(61)
 7049 2ff6 4FEF      		ldi r20,lo8(-1)
 7050 2ff8 0E94 0000 		call lcd_graphics_plot_pixel
 7051               	.LM867:
 7052 2ffc 80E2      		ldi r24,lo8(32)
 7053 2ffe 90E0      		ldi r25,hi8(32)
 7054 3000 6EE3      		ldi r22,lo8(62)
 7055 3002 70E0      		ldi r23,hi8(62)
 7056 3004 4FEF      		ldi r20,lo8(-1)
 7057 3006 0E94 0000 		call lcd_graphics_plot_pixel
 7058               	.LM868:
 7059 300a 80E2      		ldi r24,lo8(32)
 7060 300c 90E0      		ldi r25,hi8(32)
 7061 300e 6FE3      		ldi r22,lo8(63)
 7062 3010 70E0      		ldi r23,hi8(63)
 7063 3012 4FEF      		ldi r20,lo8(-1)
 7064 3014 0E94 0000 		call lcd_graphics_plot_pixel
 7065               	.LM869:
 7066 3018 80E2      		ldi r24,lo8(32)
 7067 301a 90E0      		ldi r25,hi8(32)
 7068 301c 60E4      		ldi r22,lo8(64)
 7069 301e 70E0      		ldi r23,hi8(64)
 7070 3020 4FEF      		ldi r20,lo8(-1)
 7071 3022 0E94 0000 		call lcd_graphics_plot_pixel
 7072               	.LM870:
 7073 3026 80E2      		ldi r24,lo8(32)
 7074 3028 90E0      		ldi r25,hi8(32)
 7075 302a 61E4      		ldi r22,lo8(65)
 7076 302c 70E0      		ldi r23,hi8(65)
 7077 302e 4FEF      		ldi r20,lo8(-1)
 7078 3030 0E94 0000 		call lcd_graphics_plot_pixel
 7079               	.LM871:
 7080 3034 81E2      		ldi r24,lo8(33)
 7081 3036 90E0      		ldi r25,hi8(33)
 7082 3038 63E0      		ldi r22,lo8(3)
 7083 303a 70E0      		ldi r23,hi8(3)
 7084 303c 4FEF      		ldi r20,lo8(-1)
 7085 303e 0E94 0000 		call lcd_graphics_plot_pixel
 7086               	.LM872:
 7087 3042 81E2      		ldi r24,lo8(33)
 7088 3044 90E0      		ldi r25,hi8(33)
 7089 3046 64E0      		ldi r22,lo8(4)
 7090 3048 70E0      		ldi r23,hi8(4)
 7091 304a 4FEF      		ldi r20,lo8(-1)
 7092 304c 0E94 0000 		call lcd_graphics_plot_pixel
 7093               	.LM873:
 7094 3050 81E2      		ldi r24,lo8(33)
 7095 3052 90E0      		ldi r25,hi8(33)
 7096 3054 65E0      		ldi r22,lo8(5)
 7097 3056 70E0      		ldi r23,hi8(5)
 7098 3058 4FEF      		ldi r20,lo8(-1)
 7099 305a 0E94 0000 		call lcd_graphics_plot_pixel
 7100               	.LM874:
 7101 305e 81E2      		ldi r24,lo8(33)
 7102 3060 90E0      		ldi r25,hi8(33)
 7103 3062 66E0      		ldi r22,lo8(6)
 7104 3064 70E0      		ldi r23,hi8(6)
 7105 3066 4FEF      		ldi r20,lo8(-1)
 7106 3068 0E94 0000 		call lcd_graphics_plot_pixel
 7107               	.LM875:
 7108 306c 81E2      		ldi r24,lo8(33)
 7109 306e 90E0      		ldi r25,hi8(33)
 7110 3070 67E0      		ldi r22,lo8(7)
 7111 3072 70E0      		ldi r23,hi8(7)
 7112 3074 4FEF      		ldi r20,lo8(-1)
 7113 3076 0E94 0000 		call lcd_graphics_plot_pixel
 7114               	.LM876:
 7115 307a 81E2      		ldi r24,lo8(33)
 7116 307c 90E0      		ldi r25,hi8(33)
 7117 307e 68E0      		ldi r22,lo8(8)
 7118 3080 70E0      		ldi r23,hi8(8)
 7119 3082 4FEF      		ldi r20,lo8(-1)
 7120 3084 0E94 0000 		call lcd_graphics_plot_pixel
 7121               	.LM877:
 7122 3088 81E2      		ldi r24,lo8(33)
 7123 308a 90E0      		ldi r25,hi8(33)
 7124 308c 69E0      		ldi r22,lo8(9)
 7125 308e 70E0      		ldi r23,hi8(9)
 7126 3090 4FEF      		ldi r20,lo8(-1)
 7127 3092 0E94 0000 		call lcd_graphics_plot_pixel
 7128               	.LM878:
 7129 3096 81E2      		ldi r24,lo8(33)
 7130 3098 90E0      		ldi r25,hi8(33)
 7131 309a 6AE0      		ldi r22,lo8(10)
 7132 309c 70E0      		ldi r23,hi8(10)
 7133 309e 4FEF      		ldi r20,lo8(-1)
 7134 30a0 0E94 0000 		call lcd_graphics_plot_pixel
 7135               	.LM879:
 7136 30a4 81E2      		ldi r24,lo8(33)
 7137 30a6 90E0      		ldi r25,hi8(33)
 7138 30a8 6BE0      		ldi r22,lo8(11)
 7139 30aa 70E0      		ldi r23,hi8(11)
 7140 30ac 4FEF      		ldi r20,lo8(-1)
 7141 30ae 0E94 0000 		call lcd_graphics_plot_pixel
 7142               	.LM880:
 7143 30b2 81E2      		ldi r24,lo8(33)
 7144 30b4 90E0      		ldi r25,hi8(33)
 7145 30b6 6CE0      		ldi r22,lo8(12)
 7146 30b8 70E0      		ldi r23,hi8(12)
 7147 30ba 4FEF      		ldi r20,lo8(-1)
 7148 30bc 0E94 0000 		call lcd_graphics_plot_pixel
 7149               	.LM881:
 7150 30c0 81E2      		ldi r24,lo8(33)
 7151 30c2 90E0      		ldi r25,hi8(33)
 7152 30c4 6DE0      		ldi r22,lo8(13)
 7153 30c6 70E0      		ldi r23,hi8(13)
 7154 30c8 4FEF      		ldi r20,lo8(-1)
 7155 30ca 0E94 0000 		call lcd_graphics_plot_pixel
 7156               	.LM882:
 7157 30ce 81E2      		ldi r24,lo8(33)
 7158 30d0 90E0      		ldi r25,hi8(33)
 7159 30d2 6EE0      		ldi r22,lo8(14)
 7160 30d4 70E0      		ldi r23,hi8(14)
 7161 30d6 4FEF      		ldi r20,lo8(-1)
 7162 30d8 0E94 0000 		call lcd_graphics_plot_pixel
 7163               	.LM883:
 7164 30dc 81E2      		ldi r24,lo8(33)
 7165 30de 90E0      		ldi r25,hi8(33)
 7166 30e0 6FE0      		ldi r22,lo8(15)
 7167 30e2 70E0      		ldi r23,hi8(15)
 7168 30e4 4FEF      		ldi r20,lo8(-1)
 7169 30e6 0E94 0000 		call lcd_graphics_plot_pixel
 7170               	.LM884:
 7171 30ea 81E2      		ldi r24,lo8(33)
 7172 30ec 90E0      		ldi r25,hi8(33)
 7173 30ee 60E1      		ldi r22,lo8(16)
 7174 30f0 70E0      		ldi r23,hi8(16)
 7175 30f2 4FEF      		ldi r20,lo8(-1)
 7176 30f4 0E94 0000 		call lcd_graphics_plot_pixel
 7177               	.LM885:
 7178 30f8 81E2      		ldi r24,lo8(33)
 7179 30fa 90E0      		ldi r25,hi8(33)
 7180 30fc 61E1      		ldi r22,lo8(17)
 7181 30fe 70E0      		ldi r23,hi8(17)
 7182 3100 4FEF      		ldi r20,lo8(-1)
 7183 3102 0E94 0000 		call lcd_graphics_plot_pixel
 7184               	.LM886:
 7185 3106 81E2      		ldi r24,lo8(33)
 7186 3108 90E0      		ldi r25,hi8(33)
 7187 310a 62E1      		ldi r22,lo8(18)
 7188 310c 70E0      		ldi r23,hi8(18)
 7189 310e 4FEF      		ldi r20,lo8(-1)
 7190 3110 0E94 0000 		call lcd_graphics_plot_pixel
 7191               	.LM887:
 7192 3114 81E2      		ldi r24,lo8(33)
 7193 3116 90E0      		ldi r25,hi8(33)
 7194 3118 63E1      		ldi r22,lo8(19)
 7195 311a 70E0      		ldi r23,hi8(19)
 7196 311c 4FEF      		ldi r20,lo8(-1)
 7197 311e 0E94 0000 		call lcd_graphics_plot_pixel
 7198               	.LM888:
 7199 3122 81E2      		ldi r24,lo8(33)
 7200 3124 90E0      		ldi r25,hi8(33)
 7201 3126 64E1      		ldi r22,lo8(20)
 7202 3128 70E0      		ldi r23,hi8(20)
 7203 312a 4FEF      		ldi r20,lo8(-1)
 7204 312c 0E94 0000 		call lcd_graphics_plot_pixel
 7205               	.LM889:
 7206 3130 81E2      		ldi r24,lo8(33)
 7207 3132 90E0      		ldi r25,hi8(33)
 7208 3134 65E1      		ldi r22,lo8(21)
 7209 3136 70E0      		ldi r23,hi8(21)
 7210 3138 4FEF      		ldi r20,lo8(-1)
 7211 313a 0E94 0000 		call lcd_graphics_plot_pixel
 7212               	.LM890:
 7213 313e 81E2      		ldi r24,lo8(33)
 7214 3140 90E0      		ldi r25,hi8(33)
 7215 3142 66E1      		ldi r22,lo8(22)
 7216 3144 70E0      		ldi r23,hi8(22)
 7217 3146 4FEF      		ldi r20,lo8(-1)
 7218 3148 0E94 0000 		call lcd_graphics_plot_pixel
 7219               	.LM891:
 7220 314c 81E2      		ldi r24,lo8(33)
 7221 314e 90E0      		ldi r25,hi8(33)
 7222 3150 67E1      		ldi r22,lo8(23)
 7223 3152 70E0      		ldi r23,hi8(23)
 7224 3154 4FEF      		ldi r20,lo8(-1)
 7225 3156 0E94 0000 		call lcd_graphics_plot_pixel
 7226               	.LM892:
 7227 315a 81E2      		ldi r24,lo8(33)
 7228 315c 90E0      		ldi r25,hi8(33)
 7229 315e 68E1      		ldi r22,lo8(24)
 7230 3160 70E0      		ldi r23,hi8(24)
 7231 3162 4FEF      		ldi r20,lo8(-1)
 7232 3164 0E94 0000 		call lcd_graphics_plot_pixel
 7233               	.LM893:
 7234 3168 81E2      		ldi r24,lo8(33)
 7235 316a 90E0      		ldi r25,hi8(33)
 7236 316c 6AE1      		ldi r22,lo8(26)
 7237 316e 70E0      		ldi r23,hi8(26)
 7238 3170 4FEF      		ldi r20,lo8(-1)
 7239 3172 0E94 0000 		call lcd_graphics_plot_pixel
 7240               	.LM894:
 7241 3176 81E2      		ldi r24,lo8(33)
 7242 3178 90E0      		ldi r25,hi8(33)
 7243 317a 6BE1      		ldi r22,lo8(27)
 7244 317c 70E0      		ldi r23,hi8(27)
 7245 317e 4FEF      		ldi r20,lo8(-1)
 7246 3180 0E94 0000 		call lcd_graphics_plot_pixel
 7247               	.LM895:
 7248 3184 81E2      		ldi r24,lo8(33)
 7249 3186 90E0      		ldi r25,hi8(33)
 7250 3188 6CE1      		ldi r22,lo8(28)
 7251 318a 70E0      		ldi r23,hi8(28)
 7252 318c 4FEF      		ldi r20,lo8(-1)
 7253 318e 0E94 0000 		call lcd_graphics_plot_pixel
 7254               	.LM896:
 7255 3192 81E2      		ldi r24,lo8(33)
 7256 3194 90E0      		ldi r25,hi8(33)
 7257 3196 6DE1      		ldi r22,lo8(29)
 7258 3198 70E0      		ldi r23,hi8(29)
 7259 319a 4FEF      		ldi r20,lo8(-1)
 7260 319c 0E94 0000 		call lcd_graphics_plot_pixel
 7261               	.LM897:
 7262 31a0 81E2      		ldi r24,lo8(33)
 7263 31a2 90E0      		ldi r25,hi8(33)
 7264 31a4 6EE1      		ldi r22,lo8(30)
 7265 31a6 70E0      		ldi r23,hi8(30)
 7266 31a8 4FEF      		ldi r20,lo8(-1)
 7267 31aa 0E94 0000 		call lcd_graphics_plot_pixel
 7268               	.LM898:
 7269 31ae 81E2      		ldi r24,lo8(33)
 7270 31b0 90E0      		ldi r25,hi8(33)
 7271 31b2 6FE1      		ldi r22,lo8(31)
 7272 31b4 70E0      		ldi r23,hi8(31)
 7273 31b6 4FEF      		ldi r20,lo8(-1)
 7274 31b8 0E94 0000 		call lcd_graphics_plot_pixel
 7275               	.LM899:
 7276 31bc 81E2      		ldi r24,lo8(33)
 7277 31be 90E0      		ldi r25,hi8(33)
 7278 31c0 60E2      		ldi r22,lo8(32)
 7279 31c2 70E0      		ldi r23,hi8(32)
 7280 31c4 4FEF      		ldi r20,lo8(-1)
 7281 31c6 0E94 0000 		call lcd_graphics_plot_pixel
 7282               	.LM900:
 7283 31ca 81E2      		ldi r24,lo8(33)
 7284 31cc 90E0      		ldi r25,hi8(33)
 7285 31ce 61E2      		ldi r22,lo8(33)
 7286 31d0 70E0      		ldi r23,hi8(33)
 7287 31d2 4FEF      		ldi r20,lo8(-1)
 7288 31d4 0E94 0000 		call lcd_graphics_plot_pixel
 7289               	.LM901:
 7290 31d8 81E2      		ldi r24,lo8(33)
 7291 31da 90E0      		ldi r25,hi8(33)
 7292 31dc 62E2      		ldi r22,lo8(34)
 7293 31de 70E0      		ldi r23,hi8(34)
 7294 31e0 4FEF      		ldi r20,lo8(-1)
 7295 31e2 0E94 0000 		call lcd_graphics_plot_pixel
 7296               	.LM902:
 7297 31e6 81E2      		ldi r24,lo8(33)
 7298 31e8 90E0      		ldi r25,hi8(33)
 7299 31ea 63E2      		ldi r22,lo8(35)
 7300 31ec 70E0      		ldi r23,hi8(35)
 7301 31ee 4FEF      		ldi r20,lo8(-1)
 7302 31f0 0E94 0000 		call lcd_graphics_plot_pixel
 7303               	.LM903:
 7304 31f4 81E2      		ldi r24,lo8(33)
 7305 31f6 90E0      		ldi r25,hi8(33)
 7306 31f8 65E2      		ldi r22,lo8(37)
 7307 31fa 70E0      		ldi r23,hi8(37)
 7308 31fc 4FEF      		ldi r20,lo8(-1)
 7309 31fe 0E94 0000 		call lcd_graphics_plot_pixel
 7310               	.LM904:
 7311 3202 81E2      		ldi r24,lo8(33)
 7312 3204 90E0      		ldi r25,hi8(33)
 7313 3206 66E2      		ldi r22,lo8(38)
 7314 3208 70E0      		ldi r23,hi8(38)
 7315 320a 4FEF      		ldi r20,lo8(-1)
 7316 320c 0E94 0000 		call lcd_graphics_plot_pixel
 7317               	.LM905:
 7318 3210 81E2      		ldi r24,lo8(33)
 7319 3212 90E0      		ldi r25,hi8(33)
 7320 3214 67E2      		ldi r22,lo8(39)
 7321 3216 70E0      		ldi r23,hi8(39)
 7322 3218 4FEF      		ldi r20,lo8(-1)
 7323 321a 0E94 0000 		call lcd_graphics_plot_pixel
 7324               	.LM906:
 7325 321e 81E2      		ldi r24,lo8(33)
 7326 3220 90E0      		ldi r25,hi8(33)
 7327 3222 68E2      		ldi r22,lo8(40)
 7328 3224 70E0      		ldi r23,hi8(40)
 7329 3226 4FEF      		ldi r20,lo8(-1)
 7330 3228 0E94 0000 		call lcd_graphics_plot_pixel
 7331               	.LM907:
 7332 322c 81E2      		ldi r24,lo8(33)
 7333 322e 90E0      		ldi r25,hi8(33)
 7334 3230 69E2      		ldi r22,lo8(41)
 7335 3232 70E0      		ldi r23,hi8(41)
 7336 3234 4FEF      		ldi r20,lo8(-1)
 7337 3236 0E94 0000 		call lcd_graphics_plot_pixel
 7338               	.LM908:
 7339 323a 81E2      		ldi r24,lo8(33)
 7340 323c 90E0      		ldi r25,hi8(33)
 7341 323e 6AE2      		ldi r22,lo8(42)
 7342 3240 70E0      		ldi r23,hi8(42)
 7343 3242 4FEF      		ldi r20,lo8(-1)
 7344 3244 0E94 0000 		call lcd_graphics_plot_pixel
 7345               	.LM909:
 7346 3248 81E2      		ldi r24,lo8(33)
 7347 324a 90E0      		ldi r25,hi8(33)
 7348 324c 6BE2      		ldi r22,lo8(43)
 7349 324e 70E0      		ldi r23,hi8(43)
 7350 3250 4FEF      		ldi r20,lo8(-1)
 7351 3252 0E94 0000 		call lcd_graphics_plot_pixel
 7352               	.LM910:
 7353 3256 81E2      		ldi r24,lo8(33)
 7354 3258 90E0      		ldi r25,hi8(33)
 7355 325a 6CE2      		ldi r22,lo8(44)
 7356 325c 70E0      		ldi r23,hi8(44)
 7357 325e 4FEF      		ldi r20,lo8(-1)
 7358 3260 0E94 0000 		call lcd_graphics_plot_pixel
 7359               	.LM911:
 7360 3264 81E2      		ldi r24,lo8(33)
 7361 3266 90E0      		ldi r25,hi8(33)
 7362 3268 6EE2      		ldi r22,lo8(46)
 7363 326a 70E0      		ldi r23,hi8(46)
 7364 326c 4FEF      		ldi r20,lo8(-1)
 7365 326e 0E94 0000 		call lcd_graphics_plot_pixel
 7366               	.LM912:
 7367 3272 81E2      		ldi r24,lo8(33)
 7368 3274 90E0      		ldi r25,hi8(33)
 7369 3276 6FE2      		ldi r22,lo8(47)
 7370 3278 70E0      		ldi r23,hi8(47)
 7371 327a 4FEF      		ldi r20,lo8(-1)
 7372 327c 0E94 0000 		call lcd_graphics_plot_pixel
 7373               	.LM913:
 7374 3280 81E2      		ldi r24,lo8(33)
 7375 3282 90E0      		ldi r25,hi8(33)
 7376 3284 66E3      		ldi r22,lo8(54)
 7377 3286 70E0      		ldi r23,hi8(54)
 7378 3288 4FEF      		ldi r20,lo8(-1)
 7379 328a 0E94 0000 		call lcd_graphics_plot_pixel
 7380               	.LM914:
 7381 328e 81E2      		ldi r24,lo8(33)
 7382 3290 90E0      		ldi r25,hi8(33)
 7383 3292 67E3      		ldi r22,lo8(55)
 7384 3294 70E0      		ldi r23,hi8(55)
 7385 3296 4FEF      		ldi r20,lo8(-1)
 7386 3298 0E94 0000 		call lcd_graphics_plot_pixel
 7387               	.LM915:
 7388 329c 81E2      		ldi r24,lo8(33)
 7389 329e 90E0      		ldi r25,hi8(33)
 7390 32a0 69E3      		ldi r22,lo8(57)
 7391 32a2 70E0      		ldi r23,hi8(57)
 7392 32a4 4FEF      		ldi r20,lo8(-1)
 7393 32a6 0E94 0000 		call lcd_graphics_plot_pixel
 7394               	.LM916:
 7395 32aa 81E2      		ldi r24,lo8(33)
 7396 32ac 90E0      		ldi r25,hi8(33)
 7397 32ae 6AE3      		ldi r22,lo8(58)
 7398 32b0 70E0      		ldi r23,hi8(58)
 7399 32b2 4FEF      		ldi r20,lo8(-1)
 7400 32b4 0E94 0000 		call lcd_graphics_plot_pixel
 7401               	.LM917:
 7402 32b8 81E2      		ldi r24,lo8(33)
 7403 32ba 90E0      		ldi r25,hi8(33)
 7404 32bc 6BE3      		ldi r22,lo8(59)
 7405 32be 70E0      		ldi r23,hi8(59)
 7406 32c0 4FEF      		ldi r20,lo8(-1)
 7407 32c2 0E94 0000 		call lcd_graphics_plot_pixel
 7408               	.LM918:
 7409 32c6 81E2      		ldi r24,lo8(33)
 7410 32c8 90E0      		ldi r25,hi8(33)
 7411 32ca 6CE3      		ldi r22,lo8(60)
 7412 32cc 70E0      		ldi r23,hi8(60)
 7413 32ce 4FEF      		ldi r20,lo8(-1)
 7414 32d0 0E94 0000 		call lcd_graphics_plot_pixel
 7415               	.LM919:
 7416 32d4 81E2      		ldi r24,lo8(33)
 7417 32d6 90E0      		ldi r25,hi8(33)
 7418 32d8 6DE3      		ldi r22,lo8(61)
 7419 32da 70E0      		ldi r23,hi8(61)
 7420 32dc 4FEF      		ldi r20,lo8(-1)
 7421 32de 0E94 0000 		call lcd_graphics_plot_pixel
 7422               	.LM920:
 7423 32e2 82E2      		ldi r24,lo8(34)
 7424 32e4 90E0      		ldi r25,hi8(34)
 7425 32e6 63E0      		ldi r22,lo8(3)
 7426 32e8 70E0      		ldi r23,hi8(3)
 7427 32ea 4FEF      		ldi r20,lo8(-1)
 7428 32ec 0E94 0000 		call lcd_graphics_plot_pixel
 7429               	.LM921:
 7430 32f0 82E2      		ldi r24,lo8(34)
 7431 32f2 90E0      		ldi r25,hi8(34)
 7432 32f4 64E0      		ldi r22,lo8(4)
 7433 32f6 70E0      		ldi r23,hi8(4)
 7434 32f8 4FEF      		ldi r20,lo8(-1)
 7435 32fa 0E94 0000 		call lcd_graphics_plot_pixel
 7436               	.LM922:
 7437 32fe 82E2      		ldi r24,lo8(34)
 7438 3300 90E0      		ldi r25,hi8(34)
 7439 3302 65E0      		ldi r22,lo8(5)
 7440 3304 70E0      		ldi r23,hi8(5)
 7441 3306 4FEF      		ldi r20,lo8(-1)
 7442 3308 0E94 0000 		call lcd_graphics_plot_pixel
 7443               	.LM923:
 7444 330c 82E2      		ldi r24,lo8(34)
 7445 330e 90E0      		ldi r25,hi8(34)
 7446 3310 66E0      		ldi r22,lo8(6)
 7447 3312 70E0      		ldi r23,hi8(6)
 7448 3314 4FEF      		ldi r20,lo8(-1)
 7449 3316 0E94 0000 		call lcd_graphics_plot_pixel
 7450               	.LM924:
 7451 331a 82E2      		ldi r24,lo8(34)
 7452 331c 90E0      		ldi r25,hi8(34)
 7453 331e 67E0      		ldi r22,lo8(7)
 7454 3320 70E0      		ldi r23,hi8(7)
 7455 3322 4FEF      		ldi r20,lo8(-1)
 7456 3324 0E94 0000 		call lcd_graphics_plot_pixel
 7457               	.LM925:
 7458 3328 82E2      		ldi r24,lo8(34)
 7459 332a 90E0      		ldi r25,hi8(34)
 7460 332c 68E0      		ldi r22,lo8(8)
 7461 332e 70E0      		ldi r23,hi8(8)
 7462 3330 4FEF      		ldi r20,lo8(-1)
 7463 3332 0E94 0000 		call lcd_graphics_plot_pixel
 7464               	.LM926:
 7465 3336 82E2      		ldi r24,lo8(34)
 7466 3338 90E0      		ldi r25,hi8(34)
 7467 333a 69E0      		ldi r22,lo8(9)
 7468 333c 70E0      		ldi r23,hi8(9)
 7469 333e 4FEF      		ldi r20,lo8(-1)
 7470 3340 0E94 0000 		call lcd_graphics_plot_pixel
 7471               	.LM927:
 7472 3344 82E2      		ldi r24,lo8(34)
 7473 3346 90E0      		ldi r25,hi8(34)
 7474 3348 6AE0      		ldi r22,lo8(10)
 7475 334a 70E0      		ldi r23,hi8(10)
 7476 334c 4FEF      		ldi r20,lo8(-1)
 7477 334e 0E94 0000 		call lcd_graphics_plot_pixel
 7478               	.LM928:
 7479 3352 82E2      		ldi r24,lo8(34)
 7480 3354 90E0      		ldi r25,hi8(34)
 7481 3356 6BE0      		ldi r22,lo8(11)
 7482 3358 70E0      		ldi r23,hi8(11)
 7483 335a 4FEF      		ldi r20,lo8(-1)
 7484 335c 0E94 0000 		call lcd_graphics_plot_pixel
 7485               	.LM929:
 7486 3360 82E2      		ldi r24,lo8(34)
 7487 3362 90E0      		ldi r25,hi8(34)
 7488 3364 6CE0      		ldi r22,lo8(12)
 7489 3366 70E0      		ldi r23,hi8(12)
 7490 3368 4FEF      		ldi r20,lo8(-1)
 7491 336a 0E94 0000 		call lcd_graphics_plot_pixel
 7492               	.LM930:
 7493 336e 82E2      		ldi r24,lo8(34)
 7494 3370 90E0      		ldi r25,hi8(34)
 7495 3372 6DE0      		ldi r22,lo8(13)
 7496 3374 70E0      		ldi r23,hi8(13)
 7497 3376 4FEF      		ldi r20,lo8(-1)
 7498 3378 0E94 0000 		call lcd_graphics_plot_pixel
 7499               	.LM931:
 7500 337c 82E2      		ldi r24,lo8(34)
 7501 337e 90E0      		ldi r25,hi8(34)
 7502 3380 6EE0      		ldi r22,lo8(14)
 7503 3382 70E0      		ldi r23,hi8(14)
 7504 3384 4FEF      		ldi r20,lo8(-1)
 7505 3386 0E94 0000 		call lcd_graphics_plot_pixel
 7506               	.LM932:
 7507 338a 82E2      		ldi r24,lo8(34)
 7508 338c 90E0      		ldi r25,hi8(34)
 7509 338e 6FE0      		ldi r22,lo8(15)
 7510 3390 70E0      		ldi r23,hi8(15)
 7511 3392 4FEF      		ldi r20,lo8(-1)
 7512 3394 0E94 0000 		call lcd_graphics_plot_pixel
 7513               	.LM933:
 7514 3398 82E2      		ldi r24,lo8(34)
 7515 339a 90E0      		ldi r25,hi8(34)
 7516 339c 60E1      		ldi r22,lo8(16)
 7517 339e 70E0      		ldi r23,hi8(16)
 7518 33a0 4FEF      		ldi r20,lo8(-1)
 7519 33a2 0E94 0000 		call lcd_graphics_plot_pixel
 7520               	.LM934:
 7521 33a6 82E2      		ldi r24,lo8(34)
 7522 33a8 90E0      		ldi r25,hi8(34)
 7523 33aa 61E1      		ldi r22,lo8(17)
 7524 33ac 70E0      		ldi r23,hi8(17)
 7525 33ae 4FEF      		ldi r20,lo8(-1)
 7526 33b0 0E94 0000 		call lcd_graphics_plot_pixel
 7527               	.LM935:
 7528 33b4 82E2      		ldi r24,lo8(34)
 7529 33b6 90E0      		ldi r25,hi8(34)
 7530 33b8 62E1      		ldi r22,lo8(18)
 7531 33ba 70E0      		ldi r23,hi8(18)
 7532 33bc 4FEF      		ldi r20,lo8(-1)
 7533 33be 0E94 0000 		call lcd_graphics_plot_pixel
 7534               	.LM936:
 7535 33c2 82E2      		ldi r24,lo8(34)
 7536 33c4 90E0      		ldi r25,hi8(34)
 7537 33c6 63E1      		ldi r22,lo8(19)
 7538 33c8 70E0      		ldi r23,hi8(19)
 7539 33ca 4FEF      		ldi r20,lo8(-1)
 7540 33cc 0E94 0000 		call lcd_graphics_plot_pixel
 7541               	.LM937:
 7542 33d0 82E2      		ldi r24,lo8(34)
 7543 33d2 90E0      		ldi r25,hi8(34)
 7544 33d4 64E1      		ldi r22,lo8(20)
 7545 33d6 70E0      		ldi r23,hi8(20)
 7546 33d8 4FEF      		ldi r20,lo8(-1)
 7547 33da 0E94 0000 		call lcd_graphics_plot_pixel
 7548               	.LM938:
 7549 33de 82E2      		ldi r24,lo8(34)
 7550 33e0 90E0      		ldi r25,hi8(34)
 7551 33e2 65E1      		ldi r22,lo8(21)
 7552 33e4 70E0      		ldi r23,hi8(21)
 7553 33e6 4FEF      		ldi r20,lo8(-1)
 7554 33e8 0E94 0000 		call lcd_graphics_plot_pixel
 7555               	.LM939:
 7556 33ec 82E2      		ldi r24,lo8(34)
 7557 33ee 90E0      		ldi r25,hi8(34)
 7558 33f0 66E1      		ldi r22,lo8(22)
 7559 33f2 70E0      		ldi r23,hi8(22)
 7560 33f4 4FEF      		ldi r20,lo8(-1)
 7561 33f6 0E94 0000 		call lcd_graphics_plot_pixel
 7562               	.LM940:
 7563 33fa 82E2      		ldi r24,lo8(34)
 7564 33fc 90E0      		ldi r25,hi8(34)
 7565 33fe 67E1      		ldi r22,lo8(23)
 7566 3400 70E0      		ldi r23,hi8(23)
 7567 3402 4FEF      		ldi r20,lo8(-1)
 7568 3404 0E94 0000 		call lcd_graphics_plot_pixel
 7569               	.LM941:
 7570 3408 82E2      		ldi r24,lo8(34)
 7571 340a 90E0      		ldi r25,hi8(34)
 7572 340c 68E1      		ldi r22,lo8(24)
 7573 340e 70E0      		ldi r23,hi8(24)
 7574 3410 4FEF      		ldi r20,lo8(-1)
 7575 3412 0E94 0000 		call lcd_graphics_plot_pixel
 7576               	.LM942:
 7577 3416 82E2      		ldi r24,lo8(34)
 7578 3418 90E0      		ldi r25,hi8(34)
 7579 341a 6AE1      		ldi r22,lo8(26)
 7580 341c 70E0      		ldi r23,hi8(26)
 7581 341e 4FEF      		ldi r20,lo8(-1)
 7582 3420 0E94 0000 		call lcd_graphics_plot_pixel
 7583               	.LM943:
 7584 3424 82E2      		ldi r24,lo8(34)
 7585 3426 90E0      		ldi r25,hi8(34)
 7586 3428 6BE1      		ldi r22,lo8(27)
 7587 342a 70E0      		ldi r23,hi8(27)
 7588 342c 4FEF      		ldi r20,lo8(-1)
 7589 342e 0E94 0000 		call lcd_graphics_plot_pixel
 7590               	.LM944:
 7591 3432 82E2      		ldi r24,lo8(34)
 7592 3434 90E0      		ldi r25,hi8(34)
 7593 3436 6CE1      		ldi r22,lo8(28)
 7594 3438 70E0      		ldi r23,hi8(28)
 7595 343a 4FEF      		ldi r20,lo8(-1)
 7596 343c 0E94 0000 		call lcd_graphics_plot_pixel
 7597               	.LM945:
 7598 3440 82E2      		ldi r24,lo8(34)
 7599 3442 90E0      		ldi r25,hi8(34)
 7600 3444 6DE1      		ldi r22,lo8(29)
 7601 3446 70E0      		ldi r23,hi8(29)
 7602 3448 4FEF      		ldi r20,lo8(-1)
 7603 344a 0E94 0000 		call lcd_graphics_plot_pixel
 7604               	.LM946:
 7605 344e 82E2      		ldi r24,lo8(34)
 7606 3450 90E0      		ldi r25,hi8(34)
 7607 3452 6EE1      		ldi r22,lo8(30)
 7608 3454 70E0      		ldi r23,hi8(30)
 7609 3456 4FEF      		ldi r20,lo8(-1)
 7610 3458 0E94 0000 		call lcd_graphics_plot_pixel
 7611               	.LM947:
 7612 345c 82E2      		ldi r24,lo8(34)
 7613 345e 90E0      		ldi r25,hi8(34)
 7614 3460 6FE1      		ldi r22,lo8(31)
 7615 3462 70E0      		ldi r23,hi8(31)
 7616 3464 4FEF      		ldi r20,lo8(-1)
 7617 3466 0E94 0000 		call lcd_graphics_plot_pixel
 7618               	.LM948:
 7619 346a 82E2      		ldi r24,lo8(34)
 7620 346c 90E0      		ldi r25,hi8(34)
 7621 346e 60E2      		ldi r22,lo8(32)
 7622 3470 70E0      		ldi r23,hi8(32)
 7623 3472 4FEF      		ldi r20,lo8(-1)
 7624 3474 0E94 0000 		call lcd_graphics_plot_pixel
 7625               	.LM949:
 7626 3478 82E2      		ldi r24,lo8(34)
 7627 347a 90E0      		ldi r25,hi8(34)
 7628 347c 61E2      		ldi r22,lo8(33)
 7629 347e 70E0      		ldi r23,hi8(33)
 7630 3480 4FEF      		ldi r20,lo8(-1)
 7631 3482 0E94 0000 		call lcd_graphics_plot_pixel
 7632               	.LM950:
 7633 3486 82E2      		ldi r24,lo8(34)
 7634 3488 90E0      		ldi r25,hi8(34)
 7635 348a 62E2      		ldi r22,lo8(34)
 7636 348c 70E0      		ldi r23,hi8(34)
 7637 348e 4FEF      		ldi r20,lo8(-1)
 7638 3490 0E94 0000 		call lcd_graphics_plot_pixel
 7639               	.LM951:
 7640 3494 82E2      		ldi r24,lo8(34)
 7641 3496 90E0      		ldi r25,hi8(34)
 7642 3498 63E2      		ldi r22,lo8(35)
 7643 349a 70E0      		ldi r23,hi8(35)
 7644 349c 4FEF      		ldi r20,lo8(-1)
 7645 349e 0E94 0000 		call lcd_graphics_plot_pixel
 7646               	.LM952:
 7647 34a2 82E2      		ldi r24,lo8(34)
 7648 34a4 90E0      		ldi r25,hi8(34)
 7649 34a6 65E2      		ldi r22,lo8(37)
 7650 34a8 70E0      		ldi r23,hi8(37)
 7651 34aa 4FEF      		ldi r20,lo8(-1)
 7652 34ac 0E94 0000 		call lcd_graphics_plot_pixel
 7653               	.LM953:
 7654 34b0 82E2      		ldi r24,lo8(34)
 7655 34b2 90E0      		ldi r25,hi8(34)
 7656 34b4 66E2      		ldi r22,lo8(38)
 7657 34b6 70E0      		ldi r23,hi8(38)
 7658 34b8 4FEF      		ldi r20,lo8(-1)
 7659 34ba 0E94 0000 		call lcd_graphics_plot_pixel
 7660               	.LM954:
 7661 34be 82E2      		ldi r24,lo8(34)
 7662 34c0 90E0      		ldi r25,hi8(34)
 7663 34c2 67E2      		ldi r22,lo8(39)
 7664 34c4 70E0      		ldi r23,hi8(39)
 7665 34c6 4FEF      		ldi r20,lo8(-1)
 7666 34c8 0E94 0000 		call lcd_graphics_plot_pixel
 7667               	.LM955:
 7668 34cc 82E2      		ldi r24,lo8(34)
 7669 34ce 90E0      		ldi r25,hi8(34)
 7670 34d0 68E2      		ldi r22,lo8(40)
 7671 34d2 70E0      		ldi r23,hi8(40)
 7672 34d4 4FEF      		ldi r20,lo8(-1)
 7673 34d6 0E94 0000 		call lcd_graphics_plot_pixel
 7674               	.LM956:
 7675 34da 82E2      		ldi r24,lo8(34)
 7676 34dc 90E0      		ldi r25,hi8(34)
 7677 34de 69E2      		ldi r22,lo8(41)
 7678 34e0 70E0      		ldi r23,hi8(41)
 7679 34e2 4FEF      		ldi r20,lo8(-1)
 7680 34e4 0E94 0000 		call lcd_graphics_plot_pixel
 7681               	.LM957:
 7682 34e8 82E2      		ldi r24,lo8(34)
 7683 34ea 90E0      		ldi r25,hi8(34)
 7684 34ec 6AE2      		ldi r22,lo8(42)
 7685 34ee 70E0      		ldi r23,hi8(42)
 7686 34f0 4FEF      		ldi r20,lo8(-1)
 7687 34f2 0E94 0000 		call lcd_graphics_plot_pixel
 7688               	.LM958:
 7689 34f6 82E2      		ldi r24,lo8(34)
 7690 34f8 90E0      		ldi r25,hi8(34)
 7691 34fa 6BE2      		ldi r22,lo8(43)
 7692 34fc 70E0      		ldi r23,hi8(43)
 7693 34fe 4FEF      		ldi r20,lo8(-1)
 7694 3500 0E94 0000 		call lcd_graphics_plot_pixel
 7695               	.LM959:
 7696 3504 82E2      		ldi r24,lo8(34)
 7697 3506 90E0      		ldi r25,hi8(34)
 7698 3508 6CE2      		ldi r22,lo8(44)
 7699 350a 70E0      		ldi r23,hi8(44)
 7700 350c 4FEF      		ldi r20,lo8(-1)
 7701 350e 0E94 0000 		call lcd_graphics_plot_pixel
 7702               	.LM960:
 7703 3512 82E2      		ldi r24,lo8(34)
 7704 3514 90E0      		ldi r25,hi8(34)
 7705 3516 6EE2      		ldi r22,lo8(46)
 7706 3518 70E0      		ldi r23,hi8(46)
 7707 351a 4FEF      		ldi r20,lo8(-1)
 7708 351c 0E94 0000 		call lcd_graphics_plot_pixel
 7709               	.LM961:
 7710 3520 82E2      		ldi r24,lo8(34)
 7711 3522 90E0      		ldi r25,hi8(34)
 7712 3524 6FE2      		ldi r22,lo8(47)
 7713 3526 70E0      		ldi r23,hi8(47)
 7714 3528 4FEF      		ldi r20,lo8(-1)
 7715 352a 0E94 0000 		call lcd_graphics_plot_pixel
 7716               	.LM962:
 7717 352e 82E2      		ldi r24,lo8(34)
 7718 3530 90E0      		ldi r25,hi8(34)
 7719 3532 60E3      		ldi r22,lo8(48)
 7720 3534 70E0      		ldi r23,hi8(48)
 7721 3536 4FEF      		ldi r20,lo8(-1)
 7722 3538 0E94 0000 		call lcd_graphics_plot_pixel
 7723               	.LM963:
 7724 353c 82E2      		ldi r24,lo8(34)
 7725 353e 90E0      		ldi r25,hi8(34)
 7726 3540 61E3      		ldi r22,lo8(49)
 7727 3542 70E0      		ldi r23,hi8(49)
 7728 3544 4FEF      		ldi r20,lo8(-1)
 7729 3546 0E94 0000 		call lcd_graphics_plot_pixel
 7730               	.LM964:
 7731 354a 82E2      		ldi r24,lo8(34)
 7732 354c 90E0      		ldi r25,hi8(34)
 7733 354e 62E3      		ldi r22,lo8(50)
 7734 3550 70E0      		ldi r23,hi8(50)
 7735 3552 4FEF      		ldi r20,lo8(-1)
 7736 3554 0E94 0000 		call lcd_graphics_plot_pixel
 7737               	.LM965:
 7738 3558 82E2      		ldi r24,lo8(34)
 7739 355a 90E0      		ldi r25,hi8(34)
 7740 355c 63E3      		ldi r22,lo8(51)
 7741 355e 70E0      		ldi r23,hi8(51)
 7742 3560 4FEF      		ldi r20,lo8(-1)
 7743 3562 0E94 0000 		call lcd_graphics_plot_pixel
 7744               	.LM966:
 7745 3566 82E2      		ldi r24,lo8(34)
 7746 3568 90E0      		ldi r25,hi8(34)
 7747 356a 64E3      		ldi r22,lo8(52)
 7748 356c 70E0      		ldi r23,hi8(52)
 7749 356e 4FEF      		ldi r20,lo8(-1)
 7750 3570 0E94 0000 		call lcd_graphics_plot_pixel
 7751               	.LM967:
 7752 3574 82E2      		ldi r24,lo8(34)
 7753 3576 90E0      		ldi r25,hi8(34)
 7754 3578 65E3      		ldi r22,lo8(53)
 7755 357a 70E0      		ldi r23,hi8(53)
 7756 357c 4FEF      		ldi r20,lo8(-1)
 7757 357e 0E94 0000 		call lcd_graphics_plot_pixel
 7758               	.LM968:
 7759 3582 82E2      		ldi r24,lo8(34)
 7760 3584 90E0      		ldi r25,hi8(34)
 7761 3586 66E3      		ldi r22,lo8(54)
 7762 3588 70E0      		ldi r23,hi8(54)
 7763 358a 4FEF      		ldi r20,lo8(-1)
 7764 358c 0E94 0000 		call lcd_graphics_plot_pixel
 7765               	.LM969:
 7766 3590 82E2      		ldi r24,lo8(34)
 7767 3592 90E0      		ldi r25,hi8(34)
 7768 3594 67E3      		ldi r22,lo8(55)
 7769 3596 70E0      		ldi r23,hi8(55)
 7770 3598 4FEF      		ldi r20,lo8(-1)
 7771 359a 0E94 0000 		call lcd_graphics_plot_pixel
 7772               	.LM970:
 7773 359e 82E2      		ldi r24,lo8(34)
 7774 35a0 90E0      		ldi r25,hi8(34)
 7775 35a2 69E3      		ldi r22,lo8(57)
 7776 35a4 70E0      		ldi r23,hi8(57)
 7777 35a6 4FEF      		ldi r20,lo8(-1)
 7778 35a8 0E94 0000 		call lcd_graphics_plot_pixel
 7779               	.LM971:
 7780 35ac 82E2      		ldi r24,lo8(34)
 7781 35ae 90E0      		ldi r25,hi8(34)
 7782 35b0 6AE3      		ldi r22,lo8(58)
 7783 35b2 70E0      		ldi r23,hi8(58)
 7784 35b4 4FEF      		ldi r20,lo8(-1)
 7785 35b6 0E94 0000 		call lcd_graphics_plot_pixel
 7786               	.LM972:
 7787 35ba 83E2      		ldi r24,lo8(35)
 7788 35bc 90E0      		ldi r25,hi8(35)
 7789 35be 63E0      		ldi r22,lo8(3)
 7790 35c0 70E0      		ldi r23,hi8(3)
 7791 35c2 4FEF      		ldi r20,lo8(-1)
 7792 35c4 0E94 0000 		call lcd_graphics_plot_pixel
 7793               	.LM973:
 7794 35c8 83E2      		ldi r24,lo8(35)
 7795 35ca 90E0      		ldi r25,hi8(35)
 7796 35cc 64E0      		ldi r22,lo8(4)
 7797 35ce 70E0      		ldi r23,hi8(4)
 7798 35d0 4FEF      		ldi r20,lo8(-1)
 7799 35d2 0E94 0000 		call lcd_graphics_plot_pixel
 7800               	.LM974:
 7801 35d6 83E2      		ldi r24,lo8(35)
 7802 35d8 90E0      		ldi r25,hi8(35)
 7803 35da 65E0      		ldi r22,lo8(5)
 7804 35dc 70E0      		ldi r23,hi8(5)
 7805 35de 4FEF      		ldi r20,lo8(-1)
 7806 35e0 0E94 0000 		call lcd_graphics_plot_pixel
 7807               	.LM975:
 7808 35e4 83E2      		ldi r24,lo8(35)
 7809 35e6 90E0      		ldi r25,hi8(35)
 7810 35e8 66E0      		ldi r22,lo8(6)
 7811 35ea 70E0      		ldi r23,hi8(6)
 7812 35ec 4FEF      		ldi r20,lo8(-1)
 7813 35ee 0E94 0000 		call lcd_graphics_plot_pixel
 7814               	.LM976:
 7815 35f2 83E2      		ldi r24,lo8(35)
 7816 35f4 90E0      		ldi r25,hi8(35)
 7817 35f6 67E0      		ldi r22,lo8(7)
 7818 35f8 70E0      		ldi r23,hi8(7)
 7819 35fa 4FEF      		ldi r20,lo8(-1)
 7820 35fc 0E94 0000 		call lcd_graphics_plot_pixel
 7821               	.LM977:
 7822 3600 83E2      		ldi r24,lo8(35)
 7823 3602 90E0      		ldi r25,hi8(35)
 7824 3604 68E0      		ldi r22,lo8(8)
 7825 3606 70E0      		ldi r23,hi8(8)
 7826 3608 4FEF      		ldi r20,lo8(-1)
 7827 360a 0E94 0000 		call lcd_graphics_plot_pixel
 7828               	.LM978:
 7829 360e 83E2      		ldi r24,lo8(35)
 7830 3610 90E0      		ldi r25,hi8(35)
 7831 3612 69E0      		ldi r22,lo8(9)
 7832 3614 70E0      		ldi r23,hi8(9)
 7833 3616 4FEF      		ldi r20,lo8(-1)
 7834 3618 0E94 0000 		call lcd_graphics_plot_pixel
 7835               	.LM979:
 7836 361c 83E2      		ldi r24,lo8(35)
 7837 361e 90E0      		ldi r25,hi8(35)
 7838 3620 6AE0      		ldi r22,lo8(10)
 7839 3622 70E0      		ldi r23,hi8(10)
 7840 3624 4FEF      		ldi r20,lo8(-1)
 7841 3626 0E94 0000 		call lcd_graphics_plot_pixel
 7842               	.LM980:
 7843 362a 83E2      		ldi r24,lo8(35)
 7844 362c 90E0      		ldi r25,hi8(35)
 7845 362e 6BE0      		ldi r22,lo8(11)
 7846 3630 70E0      		ldi r23,hi8(11)
 7847 3632 4FEF      		ldi r20,lo8(-1)
 7848 3634 0E94 0000 		call lcd_graphics_plot_pixel
 7849               	.LM981:
 7850 3638 83E2      		ldi r24,lo8(35)
 7851 363a 90E0      		ldi r25,hi8(35)
 7852 363c 6CE0      		ldi r22,lo8(12)
 7853 363e 70E0      		ldi r23,hi8(12)
 7854 3640 4FEF      		ldi r20,lo8(-1)
 7855 3642 0E94 0000 		call lcd_graphics_plot_pixel
 7856               	.LM982:
 7857 3646 83E2      		ldi r24,lo8(35)
 7858 3648 90E0      		ldi r25,hi8(35)
 7859 364a 6DE0      		ldi r22,lo8(13)
 7860 364c 70E0      		ldi r23,hi8(13)
 7861 364e 4FEF      		ldi r20,lo8(-1)
 7862 3650 0E94 0000 		call lcd_graphics_plot_pixel
 7863               	.LM983:
 7864 3654 83E2      		ldi r24,lo8(35)
 7865 3656 90E0      		ldi r25,hi8(35)
 7866 3658 6EE0      		ldi r22,lo8(14)
 7867 365a 70E0      		ldi r23,hi8(14)
 7868 365c 4FEF      		ldi r20,lo8(-1)
 7869 365e 0E94 0000 		call lcd_graphics_plot_pixel
 7870               	.LM984:
 7871 3662 83E2      		ldi r24,lo8(35)
 7872 3664 90E0      		ldi r25,hi8(35)
 7873 3666 6FE0      		ldi r22,lo8(15)
 7874 3668 70E0      		ldi r23,hi8(15)
 7875 366a 4FEF      		ldi r20,lo8(-1)
 7876 366c 0E94 0000 		call lcd_graphics_plot_pixel
 7877               	.LM985:
 7878 3670 83E2      		ldi r24,lo8(35)
 7879 3672 90E0      		ldi r25,hi8(35)
 7880 3674 60E1      		ldi r22,lo8(16)
 7881 3676 70E0      		ldi r23,hi8(16)
 7882 3678 4FEF      		ldi r20,lo8(-1)
 7883 367a 0E94 0000 		call lcd_graphics_plot_pixel
 7884               	.LM986:
 7885 367e 83E2      		ldi r24,lo8(35)
 7886 3680 90E0      		ldi r25,hi8(35)
 7887 3682 61E1      		ldi r22,lo8(17)
 7888 3684 70E0      		ldi r23,hi8(17)
 7889 3686 4FEF      		ldi r20,lo8(-1)
 7890 3688 0E94 0000 		call lcd_graphics_plot_pixel
 7891               	.LM987:
 7892 368c 83E2      		ldi r24,lo8(35)
 7893 368e 90E0      		ldi r25,hi8(35)
 7894 3690 62E1      		ldi r22,lo8(18)
 7895 3692 70E0      		ldi r23,hi8(18)
 7896 3694 4FEF      		ldi r20,lo8(-1)
 7897 3696 0E94 0000 		call lcd_graphics_plot_pixel
 7898               	.LM988:
 7899 369a 83E2      		ldi r24,lo8(35)
 7900 369c 90E0      		ldi r25,hi8(35)
 7901 369e 63E1      		ldi r22,lo8(19)
 7902 36a0 70E0      		ldi r23,hi8(19)
 7903 36a2 4FEF      		ldi r20,lo8(-1)
 7904 36a4 0E94 0000 		call lcd_graphics_plot_pixel
 7905               	.LM989:
 7906 36a8 83E2      		ldi r24,lo8(35)
 7907 36aa 90E0      		ldi r25,hi8(35)
 7908 36ac 64E1      		ldi r22,lo8(20)
 7909 36ae 70E0      		ldi r23,hi8(20)
 7910 36b0 4FEF      		ldi r20,lo8(-1)
 7911 36b2 0E94 0000 		call lcd_graphics_plot_pixel
 7912               	.LM990:
 7913 36b6 83E2      		ldi r24,lo8(35)
 7914 36b8 90E0      		ldi r25,hi8(35)
 7915 36ba 66E1      		ldi r22,lo8(22)
 7916 36bc 70E0      		ldi r23,hi8(22)
 7917 36be 4FEF      		ldi r20,lo8(-1)
 7918 36c0 0E94 0000 		call lcd_graphics_plot_pixel
 7919               	.LM991:
 7920 36c4 83E2      		ldi r24,lo8(35)
 7921 36c6 90E0      		ldi r25,hi8(35)
 7922 36c8 67E1      		ldi r22,lo8(23)
 7923 36ca 70E0      		ldi r23,hi8(23)
 7924 36cc 4FEF      		ldi r20,lo8(-1)
 7925 36ce 0E94 0000 		call lcd_graphics_plot_pixel
 7926               	.LM992:
 7927 36d2 83E2      		ldi r24,lo8(35)
 7928 36d4 90E0      		ldi r25,hi8(35)
 7929 36d6 68E1      		ldi r22,lo8(24)
 7930 36d8 70E0      		ldi r23,hi8(24)
 7931 36da 4FEF      		ldi r20,lo8(-1)
 7932 36dc 0E94 0000 		call lcd_graphics_plot_pixel
 7933               	.LM993:
 7934 36e0 83E2      		ldi r24,lo8(35)
 7935 36e2 90E0      		ldi r25,hi8(35)
 7936 36e4 65E2      		ldi r22,lo8(37)
 7937 36e6 70E0      		ldi r23,hi8(37)
 7938 36e8 4FEF      		ldi r20,lo8(-1)
 7939 36ea 0E94 0000 		call lcd_graphics_plot_pixel
 7940               	.LM994:
 7941 36ee 83E2      		ldi r24,lo8(35)
 7942 36f0 90E0      		ldi r25,hi8(35)
 7943 36f2 66E2      		ldi r22,lo8(38)
 7944 36f4 70E0      		ldi r23,hi8(38)
 7945 36f6 4FEF      		ldi r20,lo8(-1)
 7946 36f8 0E94 0000 		call lcd_graphics_plot_pixel
 7947               	.LM995:
 7948 36fc 83E2      		ldi r24,lo8(35)
 7949 36fe 90E0      		ldi r25,hi8(35)
 7950 3700 67E2      		ldi r22,lo8(39)
 7951 3702 70E0      		ldi r23,hi8(39)
 7952 3704 4FEF      		ldi r20,lo8(-1)
 7953 3706 0E94 0000 		call lcd_graphics_plot_pixel
 7954               	.LM996:
 7955 370a 83E2      		ldi r24,lo8(35)
 7956 370c 90E0      		ldi r25,hi8(35)
 7957 370e 68E2      		ldi r22,lo8(40)
 7958 3710 70E0      		ldi r23,hi8(40)
 7959 3712 4FEF      		ldi r20,lo8(-1)
 7960 3714 0E94 0000 		call lcd_graphics_plot_pixel
 7961               	.LM997:
 7962 3718 83E2      		ldi r24,lo8(35)
 7963 371a 90E0      		ldi r25,hi8(35)
 7964 371c 69E2      		ldi r22,lo8(41)
 7965 371e 70E0      		ldi r23,hi8(41)
 7966 3720 4FEF      		ldi r20,lo8(-1)
 7967 3722 0E94 0000 		call lcd_graphics_plot_pixel
 7968               	.LM998:
 7969 3726 83E2      		ldi r24,lo8(35)
 7970 3728 90E0      		ldi r25,hi8(35)
 7971 372a 6AE2      		ldi r22,lo8(42)
 7972 372c 70E0      		ldi r23,hi8(42)
 7973 372e 4FEF      		ldi r20,lo8(-1)
 7974 3730 0E94 0000 		call lcd_graphics_plot_pixel
 7975               	.LM999:
 7976 3734 83E2      		ldi r24,lo8(35)
 7977 3736 90E0      		ldi r25,hi8(35)
 7978 3738 6BE2      		ldi r22,lo8(43)
 7979 373a 70E0      		ldi r23,hi8(43)
 7980 373c 4FEF      		ldi r20,lo8(-1)
 7981 373e 0E94 0000 		call lcd_graphics_plot_pixel
 7982               	.LM1000:
 7983 3742 83E2      		ldi r24,lo8(35)
 7984 3744 90E0      		ldi r25,hi8(35)
 7985 3746 6CE2      		ldi r22,lo8(44)
 7986 3748 70E0      		ldi r23,hi8(44)
 7987 374a 4FEF      		ldi r20,lo8(-1)
 7988 374c 0E94 0000 		call lcd_graphics_plot_pixel
 7989               	.LM1001:
 7990 3750 83E2      		ldi r24,lo8(35)
 7991 3752 90E0      		ldi r25,hi8(35)
 7992 3754 6EE2      		ldi r22,lo8(46)
 7993 3756 70E0      		ldi r23,hi8(46)
 7994 3758 4FEF      		ldi r20,lo8(-1)
 7995 375a 0E94 0000 		call lcd_graphics_plot_pixel
 7996               	.LM1002:
 7997 375e 83E2      		ldi r24,lo8(35)
 7998 3760 90E0      		ldi r25,hi8(35)
 7999 3762 6FE2      		ldi r22,lo8(47)
 8000 3764 70E0      		ldi r23,hi8(47)
 8001 3766 4FEF      		ldi r20,lo8(-1)
 8002 3768 0E94 0000 		call lcd_graphics_plot_pixel
 8003               	.LM1003:
 8004 376c 83E2      		ldi r24,lo8(35)
 8005 376e 90E0      		ldi r25,hi8(35)
 8006 3770 60E3      		ldi r22,lo8(48)
 8007 3772 70E0      		ldi r23,hi8(48)
 8008 3774 4FEF      		ldi r20,lo8(-1)
 8009 3776 0E94 0000 		call lcd_graphics_plot_pixel
 8010               	.LM1004:
 8011 377a 83E2      		ldi r24,lo8(35)
 8012 377c 90E0      		ldi r25,hi8(35)
 8013 377e 61E3      		ldi r22,lo8(49)
 8014 3780 70E0      		ldi r23,hi8(49)
 8015 3782 4FEF      		ldi r20,lo8(-1)
 8016 3784 0E94 0000 		call lcd_graphics_plot_pixel
 8017               	.LM1005:
 8018 3788 83E2      		ldi r24,lo8(35)
 8019 378a 90E0      		ldi r25,hi8(35)
 8020 378c 62E3      		ldi r22,lo8(50)
 8021 378e 70E0      		ldi r23,hi8(50)
 8022 3790 4FEF      		ldi r20,lo8(-1)
 8023 3792 0E94 0000 		call lcd_graphics_plot_pixel
 8024               	.LM1006:
 8025 3796 83E2      		ldi r24,lo8(35)
 8026 3798 90E0      		ldi r25,hi8(35)
 8027 379a 63E3      		ldi r22,lo8(51)
 8028 379c 70E0      		ldi r23,hi8(51)
 8029 379e 4FEF      		ldi r20,lo8(-1)
 8030 37a0 0E94 0000 		call lcd_graphics_plot_pixel
 8031               	.LM1007:
 8032 37a4 83E2      		ldi r24,lo8(35)
 8033 37a6 90E0      		ldi r25,hi8(35)
 8034 37a8 64E3      		ldi r22,lo8(52)
 8035 37aa 70E0      		ldi r23,hi8(52)
 8036 37ac 4FEF      		ldi r20,lo8(-1)
 8037 37ae 0E94 0000 		call lcd_graphics_plot_pixel
 8038               	.LM1008:
 8039 37b2 83E2      		ldi r24,lo8(35)
 8040 37b4 90E0      		ldi r25,hi8(35)
 8041 37b6 65E3      		ldi r22,lo8(53)
 8042 37b8 70E0      		ldi r23,hi8(53)
 8043 37ba 4FEF      		ldi r20,lo8(-1)
 8044 37bc 0E94 0000 		call lcd_graphics_plot_pixel
 8045               	.LM1009:
 8046 37c0 83E2      		ldi r24,lo8(35)
 8047 37c2 90E0      		ldi r25,hi8(35)
 8048 37c4 66E3      		ldi r22,lo8(54)
 8049 37c6 70E0      		ldi r23,hi8(54)
 8050 37c8 4FEF      		ldi r20,lo8(-1)
 8051 37ca 0E94 0000 		call lcd_graphics_plot_pixel
 8052               	.LM1010:
 8053 37ce 83E2      		ldi r24,lo8(35)
 8054 37d0 90E0      		ldi r25,hi8(35)
 8055 37d2 67E3      		ldi r22,lo8(55)
 8056 37d4 70E0      		ldi r23,hi8(55)
 8057 37d6 4FEF      		ldi r20,lo8(-1)
 8058 37d8 0E94 0000 		call lcd_graphics_plot_pixel
 8059               	.LM1011:
 8060 37dc 84E2      		ldi r24,lo8(36)
 8061 37de 90E0      		ldi r25,hi8(36)
 8062 37e0 63E0      		ldi r22,lo8(3)
 8063 37e2 70E0      		ldi r23,hi8(3)
 8064 37e4 4FEF      		ldi r20,lo8(-1)
 8065 37e6 0E94 0000 		call lcd_graphics_plot_pixel
 8066               	.LM1012:
 8067 37ea 84E2      		ldi r24,lo8(36)
 8068 37ec 90E0      		ldi r25,hi8(36)
 8069 37ee 64E0      		ldi r22,lo8(4)
 8070 37f0 70E0      		ldi r23,hi8(4)
 8071 37f2 4FEF      		ldi r20,lo8(-1)
 8072 37f4 0E94 0000 		call lcd_graphics_plot_pixel
 8073               	.LM1013:
 8074 37f8 84E2      		ldi r24,lo8(36)
 8075 37fa 90E0      		ldi r25,hi8(36)
 8076 37fc 65E0      		ldi r22,lo8(5)
 8077 37fe 70E0      		ldi r23,hi8(5)
 8078 3800 4FEF      		ldi r20,lo8(-1)
 8079 3802 0E94 0000 		call lcd_graphics_plot_pixel
 8080               	.LM1014:
 8081 3806 84E2      		ldi r24,lo8(36)
 8082 3808 90E0      		ldi r25,hi8(36)
 8083 380a 66E0      		ldi r22,lo8(6)
 8084 380c 70E0      		ldi r23,hi8(6)
 8085 380e 4FEF      		ldi r20,lo8(-1)
 8086 3810 0E94 0000 		call lcd_graphics_plot_pixel
 8087               	.LM1015:
 8088 3814 84E2      		ldi r24,lo8(36)
 8089 3816 90E0      		ldi r25,hi8(36)
 8090 3818 67E0      		ldi r22,lo8(7)
 8091 381a 70E0      		ldi r23,hi8(7)
 8092 381c 4FEF      		ldi r20,lo8(-1)
 8093 381e 0E94 0000 		call lcd_graphics_plot_pixel
 8094               	.LM1016:
 8095 3822 84E2      		ldi r24,lo8(36)
 8096 3824 90E0      		ldi r25,hi8(36)
 8097 3826 68E0      		ldi r22,lo8(8)
 8098 3828 70E0      		ldi r23,hi8(8)
 8099 382a 4FEF      		ldi r20,lo8(-1)
 8100 382c 0E94 0000 		call lcd_graphics_plot_pixel
 8101               	.LM1017:
 8102 3830 84E2      		ldi r24,lo8(36)
 8103 3832 90E0      		ldi r25,hi8(36)
 8104 3834 69E0      		ldi r22,lo8(9)
 8105 3836 70E0      		ldi r23,hi8(9)
 8106 3838 4FEF      		ldi r20,lo8(-1)
 8107 383a 0E94 0000 		call lcd_graphics_plot_pixel
 8108               	.LM1018:
 8109 383e 84E2      		ldi r24,lo8(36)
 8110 3840 90E0      		ldi r25,hi8(36)
 8111 3842 6AE0      		ldi r22,lo8(10)
 8112 3844 70E0      		ldi r23,hi8(10)
 8113 3846 4FEF      		ldi r20,lo8(-1)
 8114 3848 0E94 0000 		call lcd_graphics_plot_pixel
 8115               	.LM1019:
 8116 384c 84E2      		ldi r24,lo8(36)
 8117 384e 90E0      		ldi r25,hi8(36)
 8118 3850 6BE0      		ldi r22,lo8(11)
 8119 3852 70E0      		ldi r23,hi8(11)
 8120 3854 4FEF      		ldi r20,lo8(-1)
 8121 3856 0E94 0000 		call lcd_graphics_plot_pixel
 8122               	.LM1020:
 8123 385a 84E2      		ldi r24,lo8(36)
 8124 385c 90E0      		ldi r25,hi8(36)
 8125 385e 6CE0      		ldi r22,lo8(12)
 8126 3860 70E0      		ldi r23,hi8(12)
 8127 3862 4FEF      		ldi r20,lo8(-1)
 8128 3864 0E94 0000 		call lcd_graphics_plot_pixel
 8129               	.LM1021:
 8130 3868 84E2      		ldi r24,lo8(36)
 8131 386a 90E0      		ldi r25,hi8(36)
 8132 386c 6DE0      		ldi r22,lo8(13)
 8133 386e 70E0      		ldi r23,hi8(13)
 8134 3870 4FEF      		ldi r20,lo8(-1)
 8135 3872 0E94 0000 		call lcd_graphics_plot_pixel
 8136               	.LM1022:
 8137 3876 84E2      		ldi r24,lo8(36)
 8138 3878 90E0      		ldi r25,hi8(36)
 8139 387a 6EE0      		ldi r22,lo8(14)
 8140 387c 70E0      		ldi r23,hi8(14)
 8141 387e 4FEF      		ldi r20,lo8(-1)
 8142 3880 0E94 0000 		call lcd_graphics_plot_pixel
 8143               	.LM1023:
 8144 3884 84E2      		ldi r24,lo8(36)
 8145 3886 90E0      		ldi r25,hi8(36)
 8146 3888 6FE0      		ldi r22,lo8(15)
 8147 388a 70E0      		ldi r23,hi8(15)
 8148 388c 4FEF      		ldi r20,lo8(-1)
 8149 388e 0E94 0000 		call lcd_graphics_plot_pixel
 8150               	.LM1024:
 8151 3892 84E2      		ldi r24,lo8(36)
 8152 3894 90E0      		ldi r25,hi8(36)
 8153 3896 60E1      		ldi r22,lo8(16)
 8154 3898 70E0      		ldi r23,hi8(16)
 8155 389a 4FEF      		ldi r20,lo8(-1)
 8156 389c 0E94 0000 		call lcd_graphics_plot_pixel
 8157               	.LM1025:
 8158 38a0 84E2      		ldi r24,lo8(36)
 8159 38a2 90E0      		ldi r25,hi8(36)
 8160 38a4 61E1      		ldi r22,lo8(17)
 8161 38a6 70E0      		ldi r23,hi8(17)
 8162 38a8 4FEF      		ldi r20,lo8(-1)
 8163 38aa 0E94 0000 		call lcd_graphics_plot_pixel
 8164               	.LM1026:
 8165 38ae 84E2      		ldi r24,lo8(36)
 8166 38b0 90E0      		ldi r25,hi8(36)
 8167 38b2 62E1      		ldi r22,lo8(18)
 8168 38b4 70E0      		ldi r23,hi8(18)
 8169 38b6 4FEF      		ldi r20,lo8(-1)
 8170 38b8 0E94 0000 		call lcd_graphics_plot_pixel
 8171               	.LM1027:
 8172 38bc 84E2      		ldi r24,lo8(36)
 8173 38be 90E0      		ldi r25,hi8(36)
 8174 38c0 66E1      		ldi r22,lo8(22)
 8175 38c2 70E0      		ldi r23,hi8(22)
 8176 38c4 4FEF      		ldi r20,lo8(-1)
 8177 38c6 0E94 0000 		call lcd_graphics_plot_pixel
 8178               	.LM1028:
 8179 38ca 84E2      		ldi r24,lo8(36)
 8180 38cc 90E0      		ldi r25,hi8(36)
 8181 38ce 67E1      		ldi r22,lo8(23)
 8182 38d0 70E0      		ldi r23,hi8(23)
 8183 38d2 4FEF      		ldi r20,lo8(-1)
 8184 38d4 0E94 0000 		call lcd_graphics_plot_pixel
 8185               	.LM1029:
 8186 38d8 84E2      		ldi r24,lo8(36)
 8187 38da 90E0      		ldi r25,hi8(36)
 8188 38dc 68E1      		ldi r22,lo8(24)
 8189 38de 70E0      		ldi r23,hi8(24)
 8190 38e0 4FEF      		ldi r20,lo8(-1)
 8191 38e2 0E94 0000 		call lcd_graphics_plot_pixel
 8192               	.LM1030:
 8193 38e6 84E2      		ldi r24,lo8(36)
 8194 38e8 90E0      		ldi r25,hi8(36)
 8195 38ea 65E2      		ldi r22,lo8(37)
 8196 38ec 70E0      		ldi r23,hi8(37)
 8197 38ee 4FEF      		ldi r20,lo8(-1)
 8198 38f0 0E94 0000 		call lcd_graphics_plot_pixel
 8199               	.LM1031:
 8200 38f4 84E2      		ldi r24,lo8(36)
 8201 38f6 90E0      		ldi r25,hi8(36)
 8202 38f8 66E2      		ldi r22,lo8(38)
 8203 38fa 70E0      		ldi r23,hi8(38)
 8204 38fc 4FEF      		ldi r20,lo8(-1)
 8205 38fe 0E94 0000 		call lcd_graphics_plot_pixel
 8206               	.LM1032:
 8207 3902 84E2      		ldi r24,lo8(36)
 8208 3904 90E0      		ldi r25,hi8(36)
 8209 3906 67E2      		ldi r22,lo8(39)
 8210 3908 70E0      		ldi r23,hi8(39)
 8211 390a 4FEF      		ldi r20,lo8(-1)
 8212 390c 0E94 0000 		call lcd_graphics_plot_pixel
 8213               	.LM1033:
 8214 3910 84E2      		ldi r24,lo8(36)
 8215 3912 90E0      		ldi r25,hi8(36)
 8216 3914 68E2      		ldi r22,lo8(40)
 8217 3916 70E0      		ldi r23,hi8(40)
 8218 3918 4FEF      		ldi r20,lo8(-1)
 8219 391a 0E94 0000 		call lcd_graphics_plot_pixel
 8220               	.LM1034:
 8221 391e 84E2      		ldi r24,lo8(36)
 8222 3920 90E0      		ldi r25,hi8(36)
 8223 3922 69E2      		ldi r22,lo8(41)
 8224 3924 70E0      		ldi r23,hi8(41)
 8225 3926 4FEF      		ldi r20,lo8(-1)
 8226 3928 0E94 0000 		call lcd_graphics_plot_pixel
 8227               	.LM1035:
 8228 392c 84E2      		ldi r24,lo8(36)
 8229 392e 90E0      		ldi r25,hi8(36)
 8230 3930 6AE2      		ldi r22,lo8(42)
 8231 3932 70E0      		ldi r23,hi8(42)
 8232 3934 4FEF      		ldi r20,lo8(-1)
 8233 3936 0E94 0000 		call lcd_graphics_plot_pixel
 8234               	.LM1036:
 8235 393a 84E2      		ldi r24,lo8(36)
 8236 393c 90E0      		ldi r25,hi8(36)
 8237 393e 6BE2      		ldi r22,lo8(43)
 8238 3940 70E0      		ldi r23,hi8(43)
 8239 3942 4FEF      		ldi r20,lo8(-1)
 8240 3944 0E94 0000 		call lcd_graphics_plot_pixel
 8241               	.LM1037:
 8242 3948 84E2      		ldi r24,lo8(36)
 8243 394a 90E0      		ldi r25,hi8(36)
 8244 394c 6CE2      		ldi r22,lo8(44)
 8245 394e 70E0      		ldi r23,hi8(44)
 8246 3950 4FEF      		ldi r20,lo8(-1)
 8247 3952 0E94 0000 		call lcd_graphics_plot_pixel
 8248               	.LM1038:
 8249 3956 84E2      		ldi r24,lo8(36)
 8250 3958 90E0      		ldi r25,hi8(36)
 8251 395a 6EE2      		ldi r22,lo8(46)
 8252 395c 70E0      		ldi r23,hi8(46)
 8253 395e 4FEF      		ldi r20,lo8(-1)
 8254 3960 0E94 0000 		call lcd_graphics_plot_pixel
 8255               	.LM1039:
 8256 3964 84E2      		ldi r24,lo8(36)
 8257 3966 90E0      		ldi r25,hi8(36)
 8258 3968 6FE2      		ldi r22,lo8(47)
 8259 396a 70E0      		ldi r23,hi8(47)
 8260 396c 4FEF      		ldi r20,lo8(-1)
 8261 396e 0E94 0000 		call lcd_graphics_plot_pixel
 8262               	.LM1040:
 8263 3972 84E2      		ldi r24,lo8(36)
 8264 3974 90E0      		ldi r25,hi8(36)
 8265 3976 66E3      		ldi r22,lo8(54)
 8266 3978 70E0      		ldi r23,hi8(54)
 8267 397a 4FEF      		ldi r20,lo8(-1)
 8268 397c 0E94 0000 		call lcd_graphics_plot_pixel
 8269               	.LM1041:
 8270 3980 84E2      		ldi r24,lo8(36)
 8271 3982 90E0      		ldi r25,hi8(36)
 8272 3984 67E3      		ldi r22,lo8(55)
 8273 3986 70E0      		ldi r23,hi8(55)
 8274 3988 4FEF      		ldi r20,lo8(-1)
 8275 398a 0E94 0000 		call lcd_graphics_plot_pixel
 8276               	.LM1042:
 8277 398e 85E2      		ldi r24,lo8(37)
 8278 3990 90E0      		ldi r25,hi8(37)
 8279 3992 63E0      		ldi r22,lo8(3)
 8280 3994 70E0      		ldi r23,hi8(3)
 8281 3996 4FEF      		ldi r20,lo8(-1)
 8282 3998 0E94 0000 		call lcd_graphics_plot_pixel
 8283               	.LM1043:
 8284 399c 85E2      		ldi r24,lo8(37)
 8285 399e 90E0      		ldi r25,hi8(37)
 8286 39a0 64E0      		ldi r22,lo8(4)
 8287 39a2 70E0      		ldi r23,hi8(4)
 8288 39a4 4FEF      		ldi r20,lo8(-1)
 8289 39a6 0E94 0000 		call lcd_graphics_plot_pixel
 8290               	.LM1044:
 8291 39aa 85E2      		ldi r24,lo8(37)
 8292 39ac 90E0      		ldi r25,hi8(37)
 8293 39ae 65E0      		ldi r22,lo8(5)
 8294 39b0 70E0      		ldi r23,hi8(5)
 8295 39b2 4FEF      		ldi r20,lo8(-1)
 8296 39b4 0E94 0000 		call lcd_graphics_plot_pixel
 8297               	.LM1045:
 8298 39b8 85E2      		ldi r24,lo8(37)
 8299 39ba 90E0      		ldi r25,hi8(37)
 8300 39bc 66E0      		ldi r22,lo8(6)
 8301 39be 70E0      		ldi r23,hi8(6)
 8302 39c0 4FEF      		ldi r20,lo8(-1)
 8303 39c2 0E94 0000 		call lcd_graphics_plot_pixel
 8304               	.LM1046:
 8305 39c6 85E2      		ldi r24,lo8(37)
 8306 39c8 90E0      		ldi r25,hi8(37)
 8307 39ca 67E0      		ldi r22,lo8(7)
 8308 39cc 70E0      		ldi r23,hi8(7)
 8309 39ce 4FEF      		ldi r20,lo8(-1)
 8310 39d0 0E94 0000 		call lcd_graphics_plot_pixel
 8311               	.LM1047:
 8312 39d4 85E2      		ldi r24,lo8(37)
 8313 39d6 90E0      		ldi r25,hi8(37)
 8314 39d8 68E0      		ldi r22,lo8(8)
 8315 39da 70E0      		ldi r23,hi8(8)
 8316 39dc 4FEF      		ldi r20,lo8(-1)
 8317 39de 0E94 0000 		call lcd_graphics_plot_pixel
 8318               	.LM1048:
 8319 39e2 85E2      		ldi r24,lo8(37)
 8320 39e4 90E0      		ldi r25,hi8(37)
 8321 39e6 69E0      		ldi r22,lo8(9)
 8322 39e8 70E0      		ldi r23,hi8(9)
 8323 39ea 4FEF      		ldi r20,lo8(-1)
 8324 39ec 0E94 0000 		call lcd_graphics_plot_pixel
 8325               	.LM1049:
 8326 39f0 85E2      		ldi r24,lo8(37)
 8327 39f2 90E0      		ldi r25,hi8(37)
 8328 39f4 6AE0      		ldi r22,lo8(10)
 8329 39f6 70E0      		ldi r23,hi8(10)
 8330 39f8 4FEF      		ldi r20,lo8(-1)
 8331 39fa 0E94 0000 		call lcd_graphics_plot_pixel
 8332               	.LM1050:
 8333 39fe 85E2      		ldi r24,lo8(37)
 8334 3a00 90E0      		ldi r25,hi8(37)
 8335 3a02 6BE0      		ldi r22,lo8(11)
 8336 3a04 70E0      		ldi r23,hi8(11)
 8337 3a06 4FEF      		ldi r20,lo8(-1)
 8338 3a08 0E94 0000 		call lcd_graphics_plot_pixel
 8339               	.LM1051:
 8340 3a0c 85E2      		ldi r24,lo8(37)
 8341 3a0e 90E0      		ldi r25,hi8(37)
 8342 3a10 6CE0      		ldi r22,lo8(12)
 8343 3a12 70E0      		ldi r23,hi8(12)
 8344 3a14 4FEF      		ldi r20,lo8(-1)
 8345 3a16 0E94 0000 		call lcd_graphics_plot_pixel
 8346               	.LM1052:
 8347 3a1a 85E2      		ldi r24,lo8(37)
 8348 3a1c 90E0      		ldi r25,hi8(37)
 8349 3a1e 6DE0      		ldi r22,lo8(13)
 8350 3a20 70E0      		ldi r23,hi8(13)
 8351 3a22 4FEF      		ldi r20,lo8(-1)
 8352 3a24 0E94 0000 		call lcd_graphics_plot_pixel
 8353               	.LM1053:
 8354 3a28 85E2      		ldi r24,lo8(37)
 8355 3a2a 90E0      		ldi r25,hi8(37)
 8356 3a2c 6EE0      		ldi r22,lo8(14)
 8357 3a2e 70E0      		ldi r23,hi8(14)
 8358 3a30 4FEF      		ldi r20,lo8(-1)
 8359 3a32 0E94 0000 		call lcd_graphics_plot_pixel
 8360               	.LM1054:
 8361 3a36 85E2      		ldi r24,lo8(37)
 8362 3a38 90E0      		ldi r25,hi8(37)
 8363 3a3a 6FE0      		ldi r22,lo8(15)
 8364 3a3c 70E0      		ldi r23,hi8(15)
 8365 3a3e 4FEF      		ldi r20,lo8(-1)
 8366 3a40 0E94 0000 		call lcd_graphics_plot_pixel
 8367               	.LM1055:
 8368 3a44 85E2      		ldi r24,lo8(37)
 8369 3a46 90E0      		ldi r25,hi8(37)
 8370 3a48 66E1      		ldi r22,lo8(22)
 8371 3a4a 70E0      		ldi r23,hi8(22)
 8372 3a4c 4FEF      		ldi r20,lo8(-1)
 8373 3a4e 0E94 0000 		call lcd_graphics_plot_pixel
 8374               	.LM1056:
 8375 3a52 85E2      		ldi r24,lo8(37)
 8376 3a54 90E0      		ldi r25,hi8(37)
 8377 3a56 67E1      		ldi r22,lo8(23)
 8378 3a58 70E0      		ldi r23,hi8(23)
 8379 3a5a 4FEF      		ldi r20,lo8(-1)
 8380 3a5c 0E94 0000 		call lcd_graphics_plot_pixel
 8381               	.LM1057:
 8382 3a60 85E2      		ldi r24,lo8(37)
 8383 3a62 90E0      		ldi r25,hi8(37)
 8384 3a64 68E1      		ldi r22,lo8(24)
 8385 3a66 70E0      		ldi r23,hi8(24)
 8386 3a68 4FEF      		ldi r20,lo8(-1)
 8387 3a6a 0E94 0000 		call lcd_graphics_plot_pixel
 8388               	.LM1058:
 8389 3a6e 85E2      		ldi r24,lo8(37)
 8390 3a70 90E0      		ldi r25,hi8(37)
 8391 3a72 6AE1      		ldi r22,lo8(26)
 8392 3a74 70E0      		ldi r23,hi8(26)
 8393 3a76 4FEF      		ldi r20,lo8(-1)
 8394 3a78 0E94 0000 		call lcd_graphics_plot_pixel
 8395               	.LM1059:
 8396 3a7c 85E2      		ldi r24,lo8(37)
 8397 3a7e 90E0      		ldi r25,hi8(37)
 8398 3a80 6BE1      		ldi r22,lo8(27)
 8399 3a82 70E0      		ldi r23,hi8(27)
 8400 3a84 4FEF      		ldi r20,lo8(-1)
 8401 3a86 0E94 0000 		call lcd_graphics_plot_pixel
 8402               	.LM1060:
 8403 3a8a 85E2      		ldi r24,lo8(37)
 8404 3a8c 90E0      		ldi r25,hi8(37)
 8405 3a8e 6CE1      		ldi r22,lo8(28)
 8406 3a90 70E0      		ldi r23,hi8(28)
 8407 3a92 4FEF      		ldi r20,lo8(-1)
 8408 3a94 0E94 0000 		call lcd_graphics_plot_pixel
 8409               	.LM1061:
 8410 3a98 85E2      		ldi r24,lo8(37)
 8411 3a9a 90E0      		ldi r25,hi8(37)
 8412 3a9c 6DE1      		ldi r22,lo8(29)
 8413 3a9e 70E0      		ldi r23,hi8(29)
 8414 3aa0 4FEF      		ldi r20,lo8(-1)
 8415 3aa2 0E94 0000 		call lcd_graphics_plot_pixel
 8416               	.LM1062:
 8417 3aa6 85E2      		ldi r24,lo8(37)
 8418 3aa8 90E0      		ldi r25,hi8(37)
 8419 3aaa 6EE1      		ldi r22,lo8(30)
 8420 3aac 70E0      		ldi r23,hi8(30)
 8421 3aae 4FEF      		ldi r20,lo8(-1)
 8422 3ab0 0E94 0000 		call lcd_graphics_plot_pixel
 8423               	.LM1063:
 8424 3ab4 85E2      		ldi r24,lo8(37)
 8425 3ab6 90E0      		ldi r25,hi8(37)
 8426 3ab8 6FE1      		ldi r22,lo8(31)
 8427 3aba 70E0      		ldi r23,hi8(31)
 8428 3abc 4FEF      		ldi r20,lo8(-1)
 8429 3abe 0E94 0000 		call lcd_graphics_plot_pixel
 8430               	.LM1064:
 8431 3ac2 85E2      		ldi r24,lo8(37)
 8432 3ac4 90E0      		ldi r25,hi8(37)
 8433 3ac6 60E2      		ldi r22,lo8(32)
 8434 3ac8 70E0      		ldi r23,hi8(32)
 8435 3aca 4FEF      		ldi r20,lo8(-1)
 8436 3acc 0E94 0000 		call lcd_graphics_plot_pixel
 8437               	.LM1065:
 8438 3ad0 85E2      		ldi r24,lo8(37)
 8439 3ad2 90E0      		ldi r25,hi8(37)
 8440 3ad4 61E2      		ldi r22,lo8(33)
 8441 3ad6 70E0      		ldi r23,hi8(33)
 8442 3ad8 4FEF      		ldi r20,lo8(-1)
 8443 3ada 0E94 0000 		call lcd_graphics_plot_pixel
 8444               	.LM1066:
 8445 3ade 85E2      		ldi r24,lo8(37)
 8446 3ae0 90E0      		ldi r25,hi8(37)
 8447 3ae2 62E2      		ldi r22,lo8(34)
 8448 3ae4 70E0      		ldi r23,hi8(34)
 8449 3ae6 4FEF      		ldi r20,lo8(-1)
 8450 3ae8 0E94 0000 		call lcd_graphics_plot_pixel
 8451               	.LM1067:
 8452 3aec 85E2      		ldi r24,lo8(37)
 8453 3aee 90E0      		ldi r25,hi8(37)
 8454 3af0 63E2      		ldi r22,lo8(35)
 8455 3af2 70E0      		ldi r23,hi8(35)
 8456 3af4 4FEF      		ldi r20,lo8(-1)
 8457 3af6 0E94 0000 		call lcd_graphics_plot_pixel
 8458               	.LM1068:
 8459 3afa 85E2      		ldi r24,lo8(37)
 8460 3afc 90E0      		ldi r25,hi8(37)
 8461 3afe 65E2      		ldi r22,lo8(37)
 8462 3b00 70E0      		ldi r23,hi8(37)
 8463 3b02 4FEF      		ldi r20,lo8(-1)
 8464 3b04 0E94 0000 		call lcd_graphics_plot_pixel
 8465               	.LM1069:
 8466 3b08 85E2      		ldi r24,lo8(37)
 8467 3b0a 90E0      		ldi r25,hi8(37)
 8468 3b0c 66E2      		ldi r22,lo8(38)
 8469 3b0e 70E0      		ldi r23,hi8(38)
 8470 3b10 4FEF      		ldi r20,lo8(-1)
 8471 3b12 0E94 0000 		call lcd_graphics_plot_pixel
 8472               	.LM1070:
 8473 3b16 85E2      		ldi r24,lo8(37)
 8474 3b18 90E0      		ldi r25,hi8(37)
 8475 3b1a 67E2      		ldi r22,lo8(39)
 8476 3b1c 70E0      		ldi r23,hi8(39)
 8477 3b1e 4FEF      		ldi r20,lo8(-1)
 8478 3b20 0E94 0000 		call lcd_graphics_plot_pixel
 8479               	.LM1071:
 8480 3b24 85E2      		ldi r24,lo8(37)
 8481 3b26 90E0      		ldi r25,hi8(37)
 8482 3b28 68E2      		ldi r22,lo8(40)
 8483 3b2a 70E0      		ldi r23,hi8(40)
 8484 3b2c 4FEF      		ldi r20,lo8(-1)
 8485 3b2e 0E94 0000 		call lcd_graphics_plot_pixel
 8486               	.LM1072:
 8487 3b32 85E2      		ldi r24,lo8(37)
 8488 3b34 90E0      		ldi r25,hi8(37)
 8489 3b36 69E2      		ldi r22,lo8(41)
 8490 3b38 70E0      		ldi r23,hi8(41)
 8491 3b3a 4FEF      		ldi r20,lo8(-1)
 8492 3b3c 0E94 0000 		call lcd_graphics_plot_pixel
 8493               	.LM1073:
 8494 3b40 85E2      		ldi r24,lo8(37)
 8495 3b42 90E0      		ldi r25,hi8(37)
 8496 3b44 6AE2      		ldi r22,lo8(42)
 8497 3b46 70E0      		ldi r23,hi8(42)
 8498 3b48 4FEF      		ldi r20,lo8(-1)
 8499 3b4a 0E94 0000 		call lcd_graphics_plot_pixel
 8500               	.LM1074:
 8501 3b4e 85E2      		ldi r24,lo8(37)
 8502 3b50 90E0      		ldi r25,hi8(37)
 8503 3b52 6BE2      		ldi r22,lo8(43)
 8504 3b54 70E0      		ldi r23,hi8(43)
 8505 3b56 4FEF      		ldi r20,lo8(-1)
 8506 3b58 0E94 0000 		call lcd_graphics_plot_pixel
 8507               	.LM1075:
 8508 3b5c 85E2      		ldi r24,lo8(37)
 8509 3b5e 90E0      		ldi r25,hi8(37)
 8510 3b60 6CE2      		ldi r22,lo8(44)
 8511 3b62 70E0      		ldi r23,hi8(44)
 8512 3b64 4FEF      		ldi r20,lo8(-1)
 8513 3b66 0E94 0000 		call lcd_graphics_plot_pixel
 8514               	.LM1076:
 8515 3b6a 85E2      		ldi r24,lo8(37)
 8516 3b6c 90E0      		ldi r25,hi8(37)
 8517 3b6e 6EE2      		ldi r22,lo8(46)
 8518 3b70 70E0      		ldi r23,hi8(46)
 8519 3b72 4FEF      		ldi r20,lo8(-1)
 8520 3b74 0E94 0000 		call lcd_graphics_plot_pixel
 8521               	.LM1077:
 8522 3b78 85E2      		ldi r24,lo8(37)
 8523 3b7a 90E0      		ldi r25,hi8(37)
 8524 3b7c 6FE2      		ldi r22,lo8(47)
 8525 3b7e 70E0      		ldi r23,hi8(47)
 8526 3b80 4FEF      		ldi r20,lo8(-1)
 8527 3b82 0E94 0000 		call lcd_graphics_plot_pixel
 8528               	.LM1078:
 8529 3b86 85E2      		ldi r24,lo8(37)
 8530 3b88 90E0      		ldi r25,hi8(37)
 8531 3b8a 66E3      		ldi r22,lo8(54)
 8532 3b8c 70E0      		ldi r23,hi8(54)
 8533 3b8e 4FEF      		ldi r20,lo8(-1)
 8534 3b90 0E94 0000 		call lcd_graphics_plot_pixel
 8535               	.LM1079:
 8536 3b94 85E2      		ldi r24,lo8(37)
 8537 3b96 90E0      		ldi r25,hi8(37)
 8538 3b98 67E3      		ldi r22,lo8(55)
 8539 3b9a 70E0      		ldi r23,hi8(55)
 8540 3b9c 4FEF      		ldi r20,lo8(-1)
 8541 3b9e 0E94 0000 		call lcd_graphics_plot_pixel
 8542               	.LM1080:
 8543 3ba2 86E2      		ldi r24,lo8(38)
 8544 3ba4 90E0      		ldi r25,hi8(38)
 8545 3ba6 63E0      		ldi r22,lo8(3)
 8546 3ba8 70E0      		ldi r23,hi8(3)
 8547 3baa 4FEF      		ldi r20,lo8(-1)
 8548 3bac 0E94 0000 		call lcd_graphics_plot_pixel
 8549               	.LM1081:
 8550 3bb0 86E2      		ldi r24,lo8(38)
 8551 3bb2 90E0      		ldi r25,hi8(38)
 8552 3bb4 64E0      		ldi r22,lo8(4)
 8553 3bb6 70E0      		ldi r23,hi8(4)
 8554 3bb8 4FEF      		ldi r20,lo8(-1)
 8555 3bba 0E94 0000 		call lcd_graphics_plot_pixel
 8556               	.LM1082:
 8557 3bbe 86E2      		ldi r24,lo8(38)
 8558 3bc0 90E0      		ldi r25,hi8(38)
 8559 3bc2 65E0      		ldi r22,lo8(5)
 8560 3bc4 70E0      		ldi r23,hi8(5)
 8561 3bc6 4FEF      		ldi r20,lo8(-1)
 8562 3bc8 0E94 0000 		call lcd_graphics_plot_pixel
 8563               	.LM1083:
 8564 3bcc 86E2      		ldi r24,lo8(38)
 8565 3bce 90E0      		ldi r25,hi8(38)
 8566 3bd0 66E0      		ldi r22,lo8(6)
 8567 3bd2 70E0      		ldi r23,hi8(6)
 8568 3bd4 4FEF      		ldi r20,lo8(-1)
 8569 3bd6 0E94 0000 		call lcd_graphics_plot_pixel
 8570               	.LM1084:
 8571 3bda 86E2      		ldi r24,lo8(38)
 8572 3bdc 90E0      		ldi r25,hi8(38)
 8573 3bde 67E0      		ldi r22,lo8(7)
 8574 3be0 70E0      		ldi r23,hi8(7)
 8575 3be2 4FEF      		ldi r20,lo8(-1)
 8576 3be4 0E94 0000 		call lcd_graphics_plot_pixel
 8577               	.LM1085:
 8578 3be8 86E2      		ldi r24,lo8(38)
 8579 3bea 90E0      		ldi r25,hi8(38)
 8580 3bec 68E0      		ldi r22,lo8(8)
 8581 3bee 70E0      		ldi r23,hi8(8)
 8582 3bf0 4FEF      		ldi r20,lo8(-1)
 8583 3bf2 0E94 0000 		call lcd_graphics_plot_pixel
 8584               	.LM1086:
 8585 3bf6 86E2      		ldi r24,lo8(38)
 8586 3bf8 90E0      		ldi r25,hi8(38)
 8587 3bfa 69E0      		ldi r22,lo8(9)
 8588 3bfc 70E0      		ldi r23,hi8(9)
 8589 3bfe 4FEF      		ldi r20,lo8(-1)
 8590 3c00 0E94 0000 		call lcd_graphics_plot_pixel
 8591               	.LM1087:
 8592 3c04 86E2      		ldi r24,lo8(38)
 8593 3c06 90E0      		ldi r25,hi8(38)
 8594 3c08 6AE0      		ldi r22,lo8(10)
 8595 3c0a 70E0      		ldi r23,hi8(10)
 8596 3c0c 4FEF      		ldi r20,lo8(-1)
 8597 3c0e 0E94 0000 		call lcd_graphics_plot_pixel
 8598               	.LM1088:
 8599 3c12 86E2      		ldi r24,lo8(38)
 8600 3c14 90E0      		ldi r25,hi8(38)
 8601 3c16 6BE0      		ldi r22,lo8(11)
 8602 3c18 70E0      		ldi r23,hi8(11)
 8603 3c1a 4FEF      		ldi r20,lo8(-1)
 8604 3c1c 0E94 0000 		call lcd_graphics_plot_pixel
 8605               	.LM1089:
 8606 3c20 86E2      		ldi r24,lo8(38)
 8607 3c22 90E0      		ldi r25,hi8(38)
 8608 3c24 6CE0      		ldi r22,lo8(12)
 8609 3c26 70E0      		ldi r23,hi8(12)
 8610 3c28 4FEF      		ldi r20,lo8(-1)
 8611 3c2a 0E94 0000 		call lcd_graphics_plot_pixel
 8612               	.LM1090:
 8613 3c2e 86E2      		ldi r24,lo8(38)
 8614 3c30 90E0      		ldi r25,hi8(38)
 8615 3c32 66E1      		ldi r22,lo8(22)
 8616 3c34 70E0      		ldi r23,hi8(22)
 8617 3c36 4FEF      		ldi r20,lo8(-1)
 8618 3c38 0E94 0000 		call lcd_graphics_plot_pixel
 8619               	.LM1091:
 8620 3c3c 86E2      		ldi r24,lo8(38)
 8621 3c3e 90E0      		ldi r25,hi8(38)
 8622 3c40 67E1      		ldi r22,lo8(23)
 8623 3c42 70E0      		ldi r23,hi8(23)
 8624 3c44 4FEF      		ldi r20,lo8(-1)
 8625 3c46 0E94 0000 		call lcd_graphics_plot_pixel
 8626               	.LM1092:
 8627 3c4a 86E2      		ldi r24,lo8(38)
 8628 3c4c 90E0      		ldi r25,hi8(38)
 8629 3c4e 68E1      		ldi r22,lo8(24)
 8630 3c50 70E0      		ldi r23,hi8(24)
 8631 3c52 4FEF      		ldi r20,lo8(-1)
 8632 3c54 0E94 0000 		call lcd_graphics_plot_pixel
 8633               	.LM1093:
 8634 3c58 86E2      		ldi r24,lo8(38)
 8635 3c5a 90E0      		ldi r25,hi8(38)
 8636 3c5c 6AE1      		ldi r22,lo8(26)
 8637 3c5e 70E0      		ldi r23,hi8(26)
 8638 3c60 4FEF      		ldi r20,lo8(-1)
 8639 3c62 0E94 0000 		call lcd_graphics_plot_pixel
 8640               	.LM1094:
 8641 3c66 86E2      		ldi r24,lo8(38)
 8642 3c68 90E0      		ldi r25,hi8(38)
 8643 3c6a 6BE1      		ldi r22,lo8(27)
 8644 3c6c 70E0      		ldi r23,hi8(27)
 8645 3c6e 4FEF      		ldi r20,lo8(-1)
 8646 3c70 0E94 0000 		call lcd_graphics_plot_pixel
 8647               	.LM1095:
 8648 3c74 86E2      		ldi r24,lo8(38)
 8649 3c76 90E0      		ldi r25,hi8(38)
 8650 3c78 6CE1      		ldi r22,lo8(28)
 8651 3c7a 70E0      		ldi r23,hi8(28)
 8652 3c7c 4FEF      		ldi r20,lo8(-1)
 8653 3c7e 0E94 0000 		call lcd_graphics_plot_pixel
 8654               	.LM1096:
 8655 3c82 86E2      		ldi r24,lo8(38)
 8656 3c84 90E0      		ldi r25,hi8(38)
 8657 3c86 6DE1      		ldi r22,lo8(29)
 8658 3c88 70E0      		ldi r23,hi8(29)
 8659 3c8a 4FEF      		ldi r20,lo8(-1)
 8660 3c8c 0E94 0000 		call lcd_graphics_plot_pixel
 8661               	.LM1097:
 8662 3c90 86E2      		ldi r24,lo8(38)
 8663 3c92 90E0      		ldi r25,hi8(38)
 8664 3c94 6EE1      		ldi r22,lo8(30)
 8665 3c96 70E0      		ldi r23,hi8(30)
 8666 3c98 4FEF      		ldi r20,lo8(-1)
 8667 3c9a 0E94 0000 		call lcd_graphics_plot_pixel
 8668               	.LM1098:
 8669 3c9e 86E2      		ldi r24,lo8(38)
 8670 3ca0 90E0      		ldi r25,hi8(38)
 8671 3ca2 6FE1      		ldi r22,lo8(31)
 8672 3ca4 70E0      		ldi r23,hi8(31)
 8673 3ca6 4FEF      		ldi r20,lo8(-1)
 8674 3ca8 0E94 0000 		call lcd_graphics_plot_pixel
 8675               	.LM1099:
 8676 3cac 86E2      		ldi r24,lo8(38)
 8677 3cae 90E0      		ldi r25,hi8(38)
 8678 3cb0 60E2      		ldi r22,lo8(32)
 8679 3cb2 70E0      		ldi r23,hi8(32)
 8680 3cb4 4FEF      		ldi r20,lo8(-1)
 8681 3cb6 0E94 0000 		call lcd_graphics_plot_pixel
 8682               	.LM1100:
 8683 3cba 86E2      		ldi r24,lo8(38)
 8684 3cbc 90E0      		ldi r25,hi8(38)
 8685 3cbe 61E2      		ldi r22,lo8(33)
 8686 3cc0 70E0      		ldi r23,hi8(33)
 8687 3cc2 4FEF      		ldi r20,lo8(-1)
 8688 3cc4 0E94 0000 		call lcd_graphics_plot_pixel
 8689               	.LM1101:
 8690 3cc8 86E2      		ldi r24,lo8(38)
 8691 3cca 90E0      		ldi r25,hi8(38)
 8692 3ccc 62E2      		ldi r22,lo8(34)
 8693 3cce 70E0      		ldi r23,hi8(34)
 8694 3cd0 4FEF      		ldi r20,lo8(-1)
 8695 3cd2 0E94 0000 		call lcd_graphics_plot_pixel
 8696               	.LM1102:
 8697 3cd6 86E2      		ldi r24,lo8(38)
 8698 3cd8 90E0      		ldi r25,hi8(38)
 8699 3cda 63E2      		ldi r22,lo8(35)
 8700 3cdc 70E0      		ldi r23,hi8(35)
 8701 3cde 4FEF      		ldi r20,lo8(-1)
 8702 3ce0 0E94 0000 		call lcd_graphics_plot_pixel
 8703               	.LM1103:
 8704 3ce4 86E2      		ldi r24,lo8(38)
 8705 3ce6 90E0      		ldi r25,hi8(38)
 8706 3ce8 65E2      		ldi r22,lo8(37)
 8707 3cea 70E0      		ldi r23,hi8(37)
 8708 3cec 4FEF      		ldi r20,lo8(-1)
 8709 3cee 0E94 0000 		call lcd_graphics_plot_pixel
 8710               	.LM1104:
 8711 3cf2 86E2      		ldi r24,lo8(38)
 8712 3cf4 90E0      		ldi r25,hi8(38)
 8713 3cf6 66E2      		ldi r22,lo8(38)
 8714 3cf8 70E0      		ldi r23,hi8(38)
 8715 3cfa 4FEF      		ldi r20,lo8(-1)
 8716 3cfc 0E94 0000 		call lcd_graphics_plot_pixel
 8717               	.LM1105:
 8718 3d00 86E2      		ldi r24,lo8(38)
 8719 3d02 90E0      		ldi r25,hi8(38)
 8720 3d04 67E2      		ldi r22,lo8(39)
 8721 3d06 70E0      		ldi r23,hi8(39)
 8722 3d08 4FEF      		ldi r20,lo8(-1)
 8723 3d0a 0E94 0000 		call lcd_graphics_plot_pixel
 8724               	.LM1106:
 8725 3d0e 86E2      		ldi r24,lo8(38)
 8726 3d10 90E0      		ldi r25,hi8(38)
 8727 3d12 68E2      		ldi r22,lo8(40)
 8728 3d14 70E0      		ldi r23,hi8(40)
 8729 3d16 4FEF      		ldi r20,lo8(-1)
 8730 3d18 0E94 0000 		call lcd_graphics_plot_pixel
 8731               	.LM1107:
 8732 3d1c 86E2      		ldi r24,lo8(38)
 8733 3d1e 90E0      		ldi r25,hi8(38)
 8734 3d20 69E2      		ldi r22,lo8(41)
 8735 3d22 70E0      		ldi r23,hi8(41)
 8736 3d24 4FEF      		ldi r20,lo8(-1)
 8737 3d26 0E94 0000 		call lcd_graphics_plot_pixel
 8738               	.LM1108:
 8739 3d2a 86E2      		ldi r24,lo8(38)
 8740 3d2c 90E0      		ldi r25,hi8(38)
 8741 3d2e 6AE2      		ldi r22,lo8(42)
 8742 3d30 70E0      		ldi r23,hi8(42)
 8743 3d32 4FEF      		ldi r20,lo8(-1)
 8744 3d34 0E94 0000 		call lcd_graphics_plot_pixel
 8745               	.LM1109:
 8746 3d38 86E2      		ldi r24,lo8(38)
 8747 3d3a 90E0      		ldi r25,hi8(38)
 8748 3d3c 6BE2      		ldi r22,lo8(43)
 8749 3d3e 70E0      		ldi r23,hi8(43)
 8750 3d40 4FEF      		ldi r20,lo8(-1)
 8751 3d42 0E94 0000 		call lcd_graphics_plot_pixel
 8752               	.LM1110:
 8753 3d46 86E2      		ldi r24,lo8(38)
 8754 3d48 90E0      		ldi r25,hi8(38)
 8755 3d4a 6CE2      		ldi r22,lo8(44)
 8756 3d4c 70E0      		ldi r23,hi8(44)
 8757 3d4e 4FEF      		ldi r20,lo8(-1)
 8758 3d50 0E94 0000 		call lcd_graphics_plot_pixel
 8759               	.LM1111:
 8760 3d54 86E2      		ldi r24,lo8(38)
 8761 3d56 90E0      		ldi r25,hi8(38)
 8762 3d58 6EE2      		ldi r22,lo8(46)
 8763 3d5a 70E0      		ldi r23,hi8(46)
 8764 3d5c 4FEF      		ldi r20,lo8(-1)
 8765 3d5e 0E94 0000 		call lcd_graphics_plot_pixel
 8766               	.LM1112:
 8767 3d62 86E2      		ldi r24,lo8(38)
 8768 3d64 90E0      		ldi r25,hi8(38)
 8769 3d66 6FE2      		ldi r22,lo8(47)
 8770 3d68 70E0      		ldi r23,hi8(47)
 8771 3d6a 4FEF      		ldi r20,lo8(-1)
 8772 3d6c 0E94 0000 		call lcd_graphics_plot_pixel
 8773               	.LM1113:
 8774 3d70 86E2      		ldi r24,lo8(38)
 8775 3d72 90E0      		ldi r25,hi8(38)
 8776 3d74 66E3      		ldi r22,lo8(54)
 8777 3d76 70E0      		ldi r23,hi8(54)
 8778 3d78 4FEF      		ldi r20,lo8(-1)
 8779 3d7a 0E94 0000 		call lcd_graphics_plot_pixel
 8780               	.LM1114:
 8781 3d7e 86E2      		ldi r24,lo8(38)
 8782 3d80 90E0      		ldi r25,hi8(38)
 8783 3d82 67E3      		ldi r22,lo8(55)
 8784 3d84 70E0      		ldi r23,hi8(55)
 8785 3d86 4FEF      		ldi r20,lo8(-1)
 8786 3d88 0E94 0000 		call lcd_graphics_plot_pixel
 8787               	.LM1115:
 8788 3d8c 87E2      		ldi r24,lo8(39)
 8789 3d8e 90E0      		ldi r25,hi8(39)
 8790 3d90 63E0      		ldi r22,lo8(3)
 8791 3d92 70E0      		ldi r23,hi8(3)
 8792 3d94 4FEF      		ldi r20,lo8(-1)
 8793 3d96 0E94 0000 		call lcd_graphics_plot_pixel
 8794               	.LM1116:
 8795 3d9a 87E2      		ldi r24,lo8(39)
 8796 3d9c 90E0      		ldi r25,hi8(39)
 8797 3d9e 64E0      		ldi r22,lo8(4)
 8798 3da0 70E0      		ldi r23,hi8(4)
 8799 3da2 4FEF      		ldi r20,lo8(-1)
 8800 3da4 0E94 0000 		call lcd_graphics_plot_pixel
 8801               	.LM1117:
 8802 3da8 87E2      		ldi r24,lo8(39)
 8803 3daa 90E0      		ldi r25,hi8(39)
 8804 3dac 65E0      		ldi r22,lo8(5)
 8805 3dae 70E0      		ldi r23,hi8(5)
 8806 3db0 4FEF      		ldi r20,lo8(-1)
 8807 3db2 0E94 0000 		call lcd_graphics_plot_pixel
 8808               	.LM1118:
 8809 3db6 87E2      		ldi r24,lo8(39)
 8810 3db8 90E0      		ldi r25,hi8(39)
 8811 3dba 66E0      		ldi r22,lo8(6)
 8812 3dbc 70E0      		ldi r23,hi8(6)
 8813 3dbe 4FEF      		ldi r20,lo8(-1)
 8814 3dc0 0E94 0000 		call lcd_graphics_plot_pixel
 8815               	.LM1119:
 8816 3dc4 87E2      		ldi r24,lo8(39)
 8817 3dc6 90E0      		ldi r25,hi8(39)
 8818 3dc8 67E0      		ldi r22,lo8(7)
 8819 3dca 70E0      		ldi r23,hi8(7)
 8820 3dcc 4FEF      		ldi r20,lo8(-1)
 8821 3dce 0E94 0000 		call lcd_graphics_plot_pixel
 8822               	.LM1120:
 8823 3dd2 87E2      		ldi r24,lo8(39)
 8824 3dd4 90E0      		ldi r25,hi8(39)
 8825 3dd6 68E0      		ldi r22,lo8(8)
 8826 3dd8 70E0      		ldi r23,hi8(8)
 8827 3dda 4FEF      		ldi r20,lo8(-1)
 8828 3ddc 0E94 0000 		call lcd_graphics_plot_pixel
 8829               	.LM1121:
 8830 3de0 87E2      		ldi r24,lo8(39)
 8831 3de2 90E0      		ldi r25,hi8(39)
 8832 3de4 69E0      		ldi r22,lo8(9)
 8833 3de6 70E0      		ldi r23,hi8(9)
 8834 3de8 4FEF      		ldi r20,lo8(-1)
 8835 3dea 0E94 0000 		call lcd_graphics_plot_pixel
 8836               	.LM1122:
 8837 3dee 87E2      		ldi r24,lo8(39)
 8838 3df0 90E0      		ldi r25,hi8(39)
 8839 3df2 6AE0      		ldi r22,lo8(10)
 8840 3df4 70E0      		ldi r23,hi8(10)
 8841 3df6 4FEF      		ldi r20,lo8(-1)
 8842 3df8 0E94 0000 		call lcd_graphics_plot_pixel
 8843               	.LM1123:
 8844 3dfc 87E2      		ldi r24,lo8(39)
 8845 3dfe 90E0      		ldi r25,hi8(39)
 8846 3e00 66E1      		ldi r22,lo8(22)
 8847 3e02 70E0      		ldi r23,hi8(22)
 8848 3e04 4FEF      		ldi r20,lo8(-1)
 8849 3e06 0E94 0000 		call lcd_graphics_plot_pixel
 8850               	.LM1124:
 8851 3e0a 87E2      		ldi r24,lo8(39)
 8852 3e0c 90E0      		ldi r25,hi8(39)
 8853 3e0e 67E1      		ldi r22,lo8(23)
 8854 3e10 70E0      		ldi r23,hi8(23)
 8855 3e12 4FEF      		ldi r20,lo8(-1)
 8856 3e14 0E94 0000 		call lcd_graphics_plot_pixel
 8857               	.LM1125:
 8858 3e18 87E2      		ldi r24,lo8(39)
 8859 3e1a 90E0      		ldi r25,hi8(39)
 8860 3e1c 68E1      		ldi r22,lo8(24)
 8861 3e1e 70E0      		ldi r23,hi8(24)
 8862 3e20 4FEF      		ldi r20,lo8(-1)
 8863 3e22 0E94 0000 		call lcd_graphics_plot_pixel
 8864               	.LM1126:
 8865 3e26 87E2      		ldi r24,lo8(39)
 8866 3e28 90E0      		ldi r25,hi8(39)
 8867 3e2a 6AE1      		ldi r22,lo8(26)
 8868 3e2c 70E0      		ldi r23,hi8(26)
 8869 3e2e 4FEF      		ldi r20,lo8(-1)
 8870 3e30 0E94 0000 		call lcd_graphics_plot_pixel
 8871               	.LM1127:
 8872 3e34 87E2      		ldi r24,lo8(39)
 8873 3e36 90E0      		ldi r25,hi8(39)
 8874 3e38 6BE1      		ldi r22,lo8(27)
 8875 3e3a 70E0      		ldi r23,hi8(27)
 8876 3e3c 4FEF      		ldi r20,lo8(-1)
 8877 3e3e 0E94 0000 		call lcd_graphics_plot_pixel
 8878               	.LM1128:
 8879 3e42 87E2      		ldi r24,lo8(39)
 8880 3e44 90E0      		ldi r25,hi8(39)
 8881 3e46 6EE1      		ldi r22,lo8(30)
 8882 3e48 70E0      		ldi r23,hi8(30)
 8883 3e4a 4FEF      		ldi r20,lo8(-1)
 8884 3e4c 0E94 0000 		call lcd_graphics_plot_pixel
 8885               	.LM1129:
 8886 3e50 87E2      		ldi r24,lo8(39)
 8887 3e52 90E0      		ldi r25,hi8(39)
 8888 3e54 6FE1      		ldi r22,lo8(31)
 8889 3e56 70E0      		ldi r23,hi8(31)
 8890 3e58 4FEF      		ldi r20,lo8(-1)
 8891 3e5a 0E94 0000 		call lcd_graphics_plot_pixel
 8892               	.LM1130:
 8893 3e5e 87E2      		ldi r24,lo8(39)
 8894 3e60 90E0      		ldi r25,hi8(39)
 8895 3e62 65E2      		ldi r22,lo8(37)
 8896 3e64 70E0      		ldi r23,hi8(37)
 8897 3e66 4FEF      		ldi r20,lo8(-1)
 8898 3e68 0E94 0000 		call lcd_graphics_plot_pixel
 8899               	.LM1131:
 8900 3e6c 87E2      		ldi r24,lo8(39)
 8901 3e6e 90E0      		ldi r25,hi8(39)
 8902 3e70 66E2      		ldi r22,lo8(38)
 8903 3e72 70E0      		ldi r23,hi8(38)
 8904 3e74 4FEF      		ldi r20,lo8(-1)
 8905 3e76 0E94 0000 		call lcd_graphics_plot_pixel
 8906               	.LM1132:
 8907 3e7a 87E2      		ldi r24,lo8(39)
 8908 3e7c 90E0      		ldi r25,hi8(39)
 8909 3e7e 67E2      		ldi r22,lo8(39)
 8910 3e80 70E0      		ldi r23,hi8(39)
 8911 3e82 4FEF      		ldi r20,lo8(-1)
 8912 3e84 0E94 0000 		call lcd_graphics_plot_pixel
 8913               	.LM1133:
 8914 3e88 87E2      		ldi r24,lo8(39)
 8915 3e8a 90E0      		ldi r25,hi8(39)
 8916 3e8c 68E2      		ldi r22,lo8(40)
 8917 3e8e 70E0      		ldi r23,hi8(40)
 8918 3e90 4FEF      		ldi r20,lo8(-1)
 8919 3e92 0E94 0000 		call lcd_graphics_plot_pixel
 8920               	.LM1134:
 8921 3e96 87E2      		ldi r24,lo8(39)
 8922 3e98 90E0      		ldi r25,hi8(39)
 8923 3e9a 69E2      		ldi r22,lo8(41)
 8924 3e9c 70E0      		ldi r23,hi8(41)
 8925 3e9e 4FEF      		ldi r20,lo8(-1)
 8926 3ea0 0E94 0000 		call lcd_graphics_plot_pixel
 8927               	.LM1135:
 8928 3ea4 87E2      		ldi r24,lo8(39)
 8929 3ea6 90E0      		ldi r25,hi8(39)
 8930 3ea8 6AE2      		ldi r22,lo8(42)
 8931 3eaa 70E0      		ldi r23,hi8(42)
 8932 3eac 4FEF      		ldi r20,lo8(-1)
 8933 3eae 0E94 0000 		call lcd_graphics_plot_pixel
 8934               	.LM1136:
 8935 3eb2 88E2      		ldi r24,lo8(40)
 8936 3eb4 90E0      		ldi r25,hi8(40)
 8937 3eb6 63E0      		ldi r22,lo8(3)
 8938 3eb8 70E0      		ldi r23,hi8(3)
 8939 3eba 4FEF      		ldi r20,lo8(-1)
 8940 3ebc 0E94 0000 		call lcd_graphics_plot_pixel
 8941               	.LM1137:
 8942 3ec0 88E2      		ldi r24,lo8(40)
 8943 3ec2 90E0      		ldi r25,hi8(40)
 8944 3ec4 64E0      		ldi r22,lo8(4)
 8945 3ec6 70E0      		ldi r23,hi8(4)
 8946 3ec8 4FEF      		ldi r20,lo8(-1)
 8947 3eca 0E94 0000 		call lcd_graphics_plot_pixel
 8948               	.LM1138:
 8949 3ece 88E2      		ldi r24,lo8(40)
 8950 3ed0 90E0      		ldi r25,hi8(40)
 8951 3ed2 65E0      		ldi r22,lo8(5)
 8952 3ed4 70E0      		ldi r23,hi8(5)
 8953 3ed6 4FEF      		ldi r20,lo8(-1)
 8954 3ed8 0E94 0000 		call lcd_graphics_plot_pixel
 8955               	.LM1139:
 8956 3edc 88E2      		ldi r24,lo8(40)
 8957 3ede 90E0      		ldi r25,hi8(40)
 8958 3ee0 66E0      		ldi r22,lo8(6)
 8959 3ee2 70E0      		ldi r23,hi8(6)
 8960 3ee4 4FEF      		ldi r20,lo8(-1)
 8961 3ee6 0E94 0000 		call lcd_graphics_plot_pixel
 8962               	.LM1140:
 8963 3eea 88E2      		ldi r24,lo8(40)
 8964 3eec 90E0      		ldi r25,hi8(40)
 8965 3eee 67E0      		ldi r22,lo8(7)
 8966 3ef0 70E0      		ldi r23,hi8(7)
 8967 3ef2 4FEF      		ldi r20,lo8(-1)
 8968 3ef4 0E94 0000 		call lcd_graphics_plot_pixel
 8969               	.LM1141:
 8970 3ef8 88E2      		ldi r24,lo8(40)
 8971 3efa 90E0      		ldi r25,hi8(40)
 8972 3efc 66E1      		ldi r22,lo8(22)
 8973 3efe 70E0      		ldi r23,hi8(22)
 8974 3f00 4FEF      		ldi r20,lo8(-1)
 8975 3f02 0E94 0000 		call lcd_graphics_plot_pixel
 8976               	.LM1142:
 8977 3f06 88E2      		ldi r24,lo8(40)
 8978 3f08 90E0      		ldi r25,hi8(40)
 8979 3f0a 67E1      		ldi r22,lo8(23)
 8980 3f0c 70E0      		ldi r23,hi8(23)
 8981 3f0e 4FEF      		ldi r20,lo8(-1)
 8982 3f10 0E94 0000 		call lcd_graphics_plot_pixel
 8983               	.LM1143:
 8984 3f14 88E2      		ldi r24,lo8(40)
 8985 3f16 90E0      		ldi r25,hi8(40)
 8986 3f18 68E1      		ldi r22,lo8(24)
 8987 3f1a 70E0      		ldi r23,hi8(24)
 8988 3f1c 4FEF      		ldi r20,lo8(-1)
 8989 3f1e 0E94 0000 		call lcd_graphics_plot_pixel
 8990               	.LM1144:
 8991 3f22 88E2      		ldi r24,lo8(40)
 8992 3f24 90E0      		ldi r25,hi8(40)
 8993 3f26 6AE1      		ldi r22,lo8(26)
 8994 3f28 70E0      		ldi r23,hi8(26)
 8995 3f2a 4FEF      		ldi r20,lo8(-1)
 8996 3f2c 0E94 0000 		call lcd_graphics_plot_pixel
 8997               	.LM1145:
 8998 3f30 88E2      		ldi r24,lo8(40)
 8999 3f32 90E0      		ldi r25,hi8(40)
 9000 3f34 6BE1      		ldi r22,lo8(27)
 9001 3f36 70E0      		ldi r23,hi8(27)
 9002 3f38 4FEF      		ldi r20,lo8(-1)
 9003 3f3a 0E94 0000 		call lcd_graphics_plot_pixel
 9004               	.LM1146:
 9005 3f3e 88E2      		ldi r24,lo8(40)
 9006 3f40 90E0      		ldi r25,hi8(40)
 9007 3f42 6EE1      		ldi r22,lo8(30)
 9008 3f44 70E0      		ldi r23,hi8(30)
 9009 3f46 4FEF      		ldi r20,lo8(-1)
 9010 3f48 0E94 0000 		call lcd_graphics_plot_pixel
 9011               	.LM1147:
 9012 3f4c 88E2      		ldi r24,lo8(40)
 9013 3f4e 90E0      		ldi r25,hi8(40)
 9014 3f50 6FE1      		ldi r22,lo8(31)
 9015 3f52 70E0      		ldi r23,hi8(31)
 9016 3f54 4FEF      		ldi r20,lo8(-1)
 9017 3f56 0E94 0000 		call lcd_graphics_plot_pixel
 9018               	.LM1148:
 9019 3f5a 88E2      		ldi r24,lo8(40)
 9020 3f5c 90E0      		ldi r25,hi8(40)
 9021 3f5e 65E2      		ldi r22,lo8(37)
 9022 3f60 70E0      		ldi r23,hi8(37)
 9023 3f62 4FEF      		ldi r20,lo8(-1)
 9024 3f64 0E94 0000 		call lcd_graphics_plot_pixel
 9025               	.LM1149:
 9026 3f68 88E2      		ldi r24,lo8(40)
 9027 3f6a 90E0      		ldi r25,hi8(40)
 9028 3f6c 66E2      		ldi r22,lo8(38)
 9029 3f6e 70E0      		ldi r23,hi8(38)
 9030 3f70 4FEF      		ldi r20,lo8(-1)
 9031 3f72 0E94 0000 		call lcd_graphics_plot_pixel
 9032               	.LM1150:
 9033 3f76 89E2      		ldi r24,lo8(41)
 9034 3f78 90E0      		ldi r25,hi8(41)
 9035 3f7a 63E0      		ldi r22,lo8(3)
 9036 3f7c 70E0      		ldi r23,hi8(3)
 9037 3f7e 4FEF      		ldi r20,lo8(-1)
 9038 3f80 0E94 0000 		call lcd_graphics_plot_pixel
 9039               	.LM1151:
 9040 3f84 89E2      		ldi r24,lo8(41)
 9041 3f86 90E0      		ldi r25,hi8(41)
 9042 3f88 64E0      		ldi r22,lo8(4)
 9043 3f8a 70E0      		ldi r23,hi8(4)
 9044 3f8c 4FEF      		ldi r20,lo8(-1)
 9045 3f8e 0E94 0000 		call lcd_graphics_plot_pixel
 9046               	.LM1152:
 9047 3f92 89E2      		ldi r24,lo8(41)
 9048 3f94 90E0      		ldi r25,hi8(41)
 9049 3f96 65E0      		ldi r22,lo8(5)
 9050 3f98 70E0      		ldi r23,hi8(5)
 9051 3f9a 4FEF      		ldi r20,lo8(-1)
 9052 3f9c 0E94 0000 		call lcd_graphics_plot_pixel
 9053               	.LM1153:
 9054 3fa0 89E2      		ldi r24,lo8(41)
 9055 3fa2 90E0      		ldi r25,hi8(41)
 9056 3fa4 66E1      		ldi r22,lo8(22)
 9057 3fa6 70E0      		ldi r23,hi8(22)
 9058 3fa8 4FEF      		ldi r20,lo8(-1)
 9059 3faa 0E94 0000 		call lcd_graphics_plot_pixel
 9060               	.LM1154:
 9061 3fae 89E2      		ldi r24,lo8(41)
 9062 3fb0 90E0      		ldi r25,hi8(41)
 9063 3fb2 67E1      		ldi r22,lo8(23)
 9064 3fb4 70E0      		ldi r23,hi8(23)
 9065 3fb6 4FEF      		ldi r20,lo8(-1)
 9066 3fb8 0E94 0000 		call lcd_graphics_plot_pixel
 9067               	.LM1155:
 9068 3fbc 89E2      		ldi r24,lo8(41)
 9069 3fbe 90E0      		ldi r25,hi8(41)
 9070 3fc0 68E1      		ldi r22,lo8(24)
 9071 3fc2 70E0      		ldi r23,hi8(24)
 9072 3fc4 4FEF      		ldi r20,lo8(-1)
 9073 3fc6 0E94 0000 		call lcd_graphics_plot_pixel
 9074               	.LM1156:
 9075 3fca 89E2      		ldi r24,lo8(41)
 9076 3fcc 90E0      		ldi r25,hi8(41)
 9077 3fce 6AE1      		ldi r22,lo8(26)
 9078 3fd0 70E0      		ldi r23,hi8(26)
 9079 3fd2 4FEF      		ldi r20,lo8(-1)
 9080 3fd4 0E94 0000 		call lcd_graphics_plot_pixel
 9081               	.LM1157:
 9082 3fd8 89E2      		ldi r24,lo8(41)
 9083 3fda 90E0      		ldi r25,hi8(41)
 9084 3fdc 6BE1      		ldi r22,lo8(27)
 9085 3fde 70E0      		ldi r23,hi8(27)
 9086 3fe0 4FEF      		ldi r20,lo8(-1)
 9087 3fe2 0E94 0000 		call lcd_graphics_plot_pixel
 9088               	.LM1158:
 9089 3fe6 89E2      		ldi r24,lo8(41)
 9090 3fe8 90E0      		ldi r25,hi8(41)
 9091 3fea 6EE1      		ldi r22,lo8(30)
 9092 3fec 70E0      		ldi r23,hi8(30)
 9093 3fee 4FEF      		ldi r20,lo8(-1)
 9094 3ff0 0E94 0000 		call lcd_graphics_plot_pixel
 9095               	.LM1159:
 9096 3ff4 89E2      		ldi r24,lo8(41)
 9097 3ff6 90E0      		ldi r25,hi8(41)
 9098 3ff8 6FE1      		ldi r22,lo8(31)
 9099 3ffa 70E0      		ldi r23,hi8(31)
 9100 3ffc 4FEF      		ldi r20,lo8(-1)
 9101 3ffe 0E94 0000 		call lcd_graphics_plot_pixel
 9102               	.LM1160:
 9103 4002 89E2      		ldi r24,lo8(41)
 9104 4004 90E0      		ldi r25,hi8(41)
 9105 4006 60E2      		ldi r22,lo8(32)
 9106 4008 70E0      		ldi r23,hi8(32)
 9107 400a 4FEF      		ldi r20,lo8(-1)
 9108 400c 0E94 0000 		call lcd_graphics_plot_pixel
 9109               	.LM1161:
 9110 4010 89E2      		ldi r24,lo8(41)
 9111 4012 90E0      		ldi r25,hi8(41)
 9112 4014 61E2      		ldi r22,lo8(33)
 9113 4016 70E0      		ldi r23,hi8(33)
 9114 4018 4FEF      		ldi r20,lo8(-1)
 9115 401a 0E94 0000 		call lcd_graphics_plot_pixel
 9116               	.LM1162:
 9117 401e 89E2      		ldi r24,lo8(41)
 9118 4020 90E0      		ldi r25,hi8(41)
 9119 4022 6EE2      		ldi r22,lo8(46)
 9120 4024 70E0      		ldi r23,hi8(46)
 9121 4026 4FEF      		ldi r20,lo8(-1)
 9122 4028 0E94 0000 		call lcd_graphics_plot_pixel
 9123               	.LM1163:
 9124 402c 89E2      		ldi r24,lo8(41)
 9125 402e 90E0      		ldi r25,hi8(41)
 9126 4030 6FE2      		ldi r22,lo8(47)
 9127 4032 70E0      		ldi r23,hi8(47)
 9128 4034 4FEF      		ldi r20,lo8(-1)
 9129 4036 0E94 0000 		call lcd_graphics_plot_pixel
 9130               	.LM1164:
 9131 403a 89E2      		ldi r24,lo8(41)
 9132 403c 90E0      		ldi r25,hi8(41)
 9133 403e 60E3      		ldi r22,lo8(48)
 9134 4040 70E0      		ldi r23,hi8(48)
 9135 4042 4FEF      		ldi r20,lo8(-1)
 9136 4044 0E94 0000 		call lcd_graphics_plot_pixel
 9137               	.LM1165:
 9138 4048 89E2      		ldi r24,lo8(41)
 9139 404a 90E0      		ldi r25,hi8(41)
 9140 404c 61E3      		ldi r22,lo8(49)
 9141 404e 70E0      		ldi r23,hi8(49)
 9142 4050 4FEF      		ldi r20,lo8(-1)
 9143 4052 0E94 0000 		call lcd_graphics_plot_pixel
 9144               	.LM1166:
 9145 4056 89E2      		ldi r24,lo8(41)
 9146 4058 90E0      		ldi r25,hi8(41)
 9147 405a 62E3      		ldi r22,lo8(50)
 9148 405c 70E0      		ldi r23,hi8(50)
 9149 405e 4FEF      		ldi r20,lo8(-1)
 9150 4060 0E94 0000 		call lcd_graphics_plot_pixel
 9151               	.LM1167:
 9152 4064 89E2      		ldi r24,lo8(41)
 9153 4066 90E0      		ldi r25,hi8(41)
 9154 4068 63E3      		ldi r22,lo8(51)
 9155 406a 70E0      		ldi r23,hi8(51)
 9156 406c 4FEF      		ldi r20,lo8(-1)
 9157 406e 0E94 0000 		call lcd_graphics_plot_pixel
 9158               	.LM1168:
 9159 4072 89E2      		ldi r24,lo8(41)
 9160 4074 90E0      		ldi r25,hi8(41)
 9161 4076 64E3      		ldi r22,lo8(52)
 9162 4078 70E0      		ldi r23,hi8(52)
 9163 407a 4FEF      		ldi r20,lo8(-1)
 9164 407c 0E94 0000 		call lcd_graphics_plot_pixel
 9165               	.LM1169:
 9166 4080 89E2      		ldi r24,lo8(41)
 9167 4082 90E0      		ldi r25,hi8(41)
 9168 4084 65E3      		ldi r22,lo8(53)
 9169 4086 70E0      		ldi r23,hi8(53)
 9170 4088 4FEF      		ldi r20,lo8(-1)
 9171 408a 0E94 0000 		call lcd_graphics_plot_pixel
 9172               	.LM1170:
 9173 408e 89E2      		ldi r24,lo8(41)
 9174 4090 90E0      		ldi r25,hi8(41)
 9175 4092 66E3      		ldi r22,lo8(54)
 9176 4094 70E0      		ldi r23,hi8(54)
 9177 4096 4FEF      		ldi r20,lo8(-1)
 9178 4098 0E94 0000 		call lcd_graphics_plot_pixel
 9179               	.LM1171:
 9180 409c 89E2      		ldi r24,lo8(41)
 9181 409e 90E0      		ldi r25,hi8(41)
 9182 40a0 67E3      		ldi r22,lo8(55)
 9183 40a2 70E0      		ldi r23,hi8(55)
 9184 40a4 4FEF      		ldi r20,lo8(-1)
 9185 40a6 0E94 0000 		call lcd_graphics_plot_pixel
 9186               	.LM1172:
 9187 40aa 8AE2      		ldi r24,lo8(42)
 9188 40ac 90E0      		ldi r25,hi8(42)
 9189 40ae 63E0      		ldi r22,lo8(3)
 9190 40b0 70E0      		ldi r23,hi8(3)
 9191 40b2 4FEF      		ldi r20,lo8(-1)
 9192 40b4 0E94 0000 		call lcd_graphics_plot_pixel
 9193               	.LM1173:
 9194 40b8 8AE2      		ldi r24,lo8(42)
 9195 40ba 90E0      		ldi r25,hi8(42)
 9196 40bc 64E0      		ldi r22,lo8(4)
 9197 40be 70E0      		ldi r23,hi8(4)
 9198 40c0 4FEF      		ldi r20,lo8(-1)
 9199 40c2 0E94 0000 		call lcd_graphics_plot_pixel
 9200               	.LM1174:
 9201 40c6 8AE2      		ldi r24,lo8(42)
 9202 40c8 90E0      		ldi r25,hi8(42)
 9203 40ca 66E1      		ldi r22,lo8(22)
 9204 40cc 70E0      		ldi r23,hi8(22)
 9205 40ce 4FEF      		ldi r20,lo8(-1)
 9206 40d0 0E94 0000 		call lcd_graphics_plot_pixel
 9207               	.LM1175:
 9208 40d4 8AE2      		ldi r24,lo8(42)
 9209 40d6 90E0      		ldi r25,hi8(42)
 9210 40d8 67E1      		ldi r22,lo8(23)
 9211 40da 70E0      		ldi r23,hi8(23)
 9212 40dc 4FEF      		ldi r20,lo8(-1)
 9213 40de 0E94 0000 		call lcd_graphics_plot_pixel
 9214               	.LM1176:
 9215 40e2 8AE2      		ldi r24,lo8(42)
 9216 40e4 90E0      		ldi r25,hi8(42)
 9217 40e6 68E1      		ldi r22,lo8(24)
 9218 40e8 70E0      		ldi r23,hi8(24)
 9219 40ea 4FEF      		ldi r20,lo8(-1)
 9220 40ec 0E94 0000 		call lcd_graphics_plot_pixel
 9221               	.LM1177:
 9222 40f0 8AE2      		ldi r24,lo8(42)
 9223 40f2 90E0      		ldi r25,hi8(42)
 9224 40f4 6AE1      		ldi r22,lo8(26)
 9225 40f6 70E0      		ldi r23,hi8(26)
 9226 40f8 4FEF      		ldi r20,lo8(-1)
 9227 40fa 0E94 0000 		call lcd_graphics_plot_pixel
 9228               	.LM1178:
 9229 40fe 8AE2      		ldi r24,lo8(42)
 9230 4100 90E0      		ldi r25,hi8(42)
 9231 4102 6BE1      		ldi r22,lo8(27)
 9232 4104 70E0      		ldi r23,hi8(27)
 9233 4106 4FEF      		ldi r20,lo8(-1)
 9234 4108 0E94 0000 		call lcd_graphics_plot_pixel
 9235               	.LM1179:
 9236 410c 8AE2      		ldi r24,lo8(42)
 9237 410e 90E0      		ldi r25,hi8(42)
 9238 4110 6EE1      		ldi r22,lo8(30)
 9239 4112 70E0      		ldi r23,hi8(30)
 9240 4114 4FEF      		ldi r20,lo8(-1)
 9241 4116 0E94 0000 		call lcd_graphics_plot_pixel
 9242               	.LM1180:
 9243 411a 8AE2      		ldi r24,lo8(42)
 9244 411c 90E0      		ldi r25,hi8(42)
 9245 411e 6FE1      		ldi r22,lo8(31)
 9246 4120 70E0      		ldi r23,hi8(31)
 9247 4122 4FEF      		ldi r20,lo8(-1)
 9248 4124 0E94 0000 		call lcd_graphics_plot_pixel
 9249               	.LM1181:
 9250 4128 8AE2      		ldi r24,lo8(42)
 9251 412a 90E0      		ldi r25,hi8(42)
 9252 412c 60E2      		ldi r22,lo8(32)
 9253 412e 70E0      		ldi r23,hi8(32)
 9254 4130 4FEF      		ldi r20,lo8(-1)
 9255 4132 0E94 0000 		call lcd_graphics_plot_pixel
 9256               	.LM1182:
 9257 4136 8AE2      		ldi r24,lo8(42)
 9258 4138 90E0      		ldi r25,hi8(42)
 9259 413a 61E2      		ldi r22,lo8(33)
 9260 413c 70E0      		ldi r23,hi8(33)
 9261 413e 4FEF      		ldi r20,lo8(-1)
 9262 4140 0E94 0000 		call lcd_graphics_plot_pixel
 9263               	.LM1183:
 9264 4144 8AE2      		ldi r24,lo8(42)
 9265 4146 90E0      		ldi r25,hi8(42)
 9266 4148 6EE2      		ldi r22,lo8(46)
 9267 414a 70E0      		ldi r23,hi8(46)
 9268 414c 4FEF      		ldi r20,lo8(-1)
 9269 414e 0E94 0000 		call lcd_graphics_plot_pixel
 9270               	.LM1184:
 9271 4152 8AE2      		ldi r24,lo8(42)
 9272 4154 90E0      		ldi r25,hi8(42)
 9273 4156 6FE2      		ldi r22,lo8(47)
 9274 4158 70E0      		ldi r23,hi8(47)
 9275 415a 4FEF      		ldi r20,lo8(-1)
 9276 415c 0E94 0000 		call lcd_graphics_plot_pixel
 9277               	.LM1185:
 9278 4160 8AE2      		ldi r24,lo8(42)
 9279 4162 90E0      		ldi r25,hi8(42)
 9280 4164 60E3      		ldi r22,lo8(48)
 9281 4166 70E0      		ldi r23,hi8(48)
 9282 4168 4FEF      		ldi r20,lo8(-1)
 9283 416a 0E94 0000 		call lcd_graphics_plot_pixel
 9284               	.LM1186:
 9285 416e 8AE2      		ldi r24,lo8(42)
 9286 4170 90E0      		ldi r25,hi8(42)
 9287 4172 61E3      		ldi r22,lo8(49)
 9288 4174 70E0      		ldi r23,hi8(49)
 9289 4176 4FEF      		ldi r20,lo8(-1)
 9290 4178 0E94 0000 		call lcd_graphics_plot_pixel
 9291               	.LM1187:
 9292 417c 8AE2      		ldi r24,lo8(42)
 9293 417e 90E0      		ldi r25,hi8(42)
 9294 4180 62E3      		ldi r22,lo8(50)
 9295 4182 70E0      		ldi r23,hi8(50)
 9296 4184 4FEF      		ldi r20,lo8(-1)
 9297 4186 0E94 0000 		call lcd_graphics_plot_pixel
 9298               	.LM1188:
 9299 418a 8AE2      		ldi r24,lo8(42)
 9300 418c 90E0      		ldi r25,hi8(42)
 9301 418e 63E3      		ldi r22,lo8(51)
 9302 4190 70E0      		ldi r23,hi8(51)
 9303 4192 4FEF      		ldi r20,lo8(-1)
 9304 4194 0E94 0000 		call lcd_graphics_plot_pixel
 9305               	.LM1189:
 9306 4198 8AE2      		ldi r24,lo8(42)
 9307 419a 90E0      		ldi r25,hi8(42)
 9308 419c 64E3      		ldi r22,lo8(52)
 9309 419e 70E0      		ldi r23,hi8(52)
 9310 41a0 4FEF      		ldi r20,lo8(-1)
 9311 41a2 0E94 0000 		call lcd_graphics_plot_pixel
 9312               	.LM1190:
 9313 41a6 8AE2      		ldi r24,lo8(42)
 9314 41a8 90E0      		ldi r25,hi8(42)
 9315 41aa 65E3      		ldi r22,lo8(53)
 9316 41ac 70E0      		ldi r23,hi8(53)
 9317 41ae 4FEF      		ldi r20,lo8(-1)
 9318 41b0 0E94 0000 		call lcd_graphics_plot_pixel
 9319               	.LM1191:
 9320 41b4 8AE2      		ldi r24,lo8(42)
 9321 41b6 90E0      		ldi r25,hi8(42)
 9322 41b8 66E3      		ldi r22,lo8(54)
 9323 41ba 70E0      		ldi r23,hi8(54)
 9324 41bc 4FEF      		ldi r20,lo8(-1)
 9325 41be 0E94 0000 		call lcd_graphics_plot_pixel
 9326               	.LM1192:
 9327 41c2 8AE2      		ldi r24,lo8(42)
 9328 41c4 90E0      		ldi r25,hi8(42)
 9329 41c6 67E3      		ldi r22,lo8(55)
 9330 41c8 70E0      		ldi r23,hi8(55)
 9331 41ca 4FEF      		ldi r20,lo8(-1)
 9332 41cc 0E94 0000 		call lcd_graphics_plot_pixel
 9333               	.LM1193:
 9334 41d0 8BE2      		ldi r24,lo8(43)
 9335 41d2 90E0      		ldi r25,hi8(43)
 9336 41d4 66E1      		ldi r22,lo8(22)
 9337 41d6 70E0      		ldi r23,hi8(22)
 9338 41d8 4FEF      		ldi r20,lo8(-1)
 9339 41da 0E94 0000 		call lcd_graphics_plot_pixel
 9340               	.LM1194:
 9341 41de 8BE2      		ldi r24,lo8(43)
 9342 41e0 90E0      		ldi r25,hi8(43)
 9343 41e2 67E1      		ldi r22,lo8(23)
 9344 41e4 70E0      		ldi r23,hi8(23)
 9345 41e6 4FEF      		ldi r20,lo8(-1)
 9346 41e8 0E94 0000 		call lcd_graphics_plot_pixel
 9347               	.LM1195:
 9348 41ec 8BE2      		ldi r24,lo8(43)
 9349 41ee 90E0      		ldi r25,hi8(43)
 9350 41f0 68E1      		ldi r22,lo8(24)
 9351 41f2 70E0      		ldi r23,hi8(24)
 9352 41f4 4FEF      		ldi r20,lo8(-1)
 9353 41f6 0E94 0000 		call lcd_graphics_plot_pixel
 9354               	.LM1196:
 9355 41fa 8BE2      		ldi r24,lo8(43)
 9356 41fc 90E0      		ldi r25,hi8(43)
 9357 41fe 6AE1      		ldi r22,lo8(26)
 9358 4200 70E0      		ldi r23,hi8(26)
 9359 4202 4FEF      		ldi r20,lo8(-1)
 9360 4204 0E94 0000 		call lcd_graphics_plot_pixel
 9361               	.LM1197:
 9362 4208 8BE2      		ldi r24,lo8(43)
 9363 420a 90E0      		ldi r25,hi8(43)
 9364 420c 6BE1      		ldi r22,lo8(27)
 9365 420e 70E0      		ldi r23,hi8(27)
 9366 4210 4FEF      		ldi r20,lo8(-1)
 9367 4212 0E94 0000 		call lcd_graphics_plot_pixel
 9368               	.LM1198:
 9369 4216 8BE2      		ldi r24,lo8(43)
 9370 4218 90E0      		ldi r25,hi8(43)
 9371 421a 6CE1      		ldi r22,lo8(28)
 9372 421c 70E0      		ldi r23,hi8(28)
 9373 421e 4FEF      		ldi r20,lo8(-1)
 9374 4220 0E94 0000 		call lcd_graphics_plot_pixel
 9375               	.LM1199:
 9376 4224 8BE2      		ldi r24,lo8(43)
 9377 4226 90E0      		ldi r25,hi8(43)
 9378 4228 6DE1      		ldi r22,lo8(29)
 9379 422a 70E0      		ldi r23,hi8(29)
 9380 422c 4FEF      		ldi r20,lo8(-1)
 9381 422e 0E94 0000 		call lcd_graphics_plot_pixel
 9382               	.LM1200:
 9383 4232 8BE2      		ldi r24,lo8(43)
 9384 4234 90E0      		ldi r25,hi8(43)
 9385 4236 6EE1      		ldi r22,lo8(30)
 9386 4238 70E0      		ldi r23,hi8(30)
 9387 423a 4FEF      		ldi r20,lo8(-1)
 9388 423c 0E94 0000 		call lcd_graphics_plot_pixel
 9389               	.LM1201:
 9390 4240 8BE2      		ldi r24,lo8(43)
 9391 4242 90E0      		ldi r25,hi8(43)
 9392 4244 6FE1      		ldi r22,lo8(31)
 9393 4246 70E0      		ldi r23,hi8(31)
 9394 4248 4FEF      		ldi r20,lo8(-1)
 9395 424a 0E94 0000 		call lcd_graphics_plot_pixel
 9396               	.LM1202:
 9397 424e 8BE2      		ldi r24,lo8(43)
 9398 4250 90E0      		ldi r25,hi8(43)
 9399 4252 62E2      		ldi r22,lo8(34)
 9400 4254 70E0      		ldi r23,hi8(34)
 9401 4256 4FEF      		ldi r20,lo8(-1)
 9402 4258 0E94 0000 		call lcd_graphics_plot_pixel
 9403               	.LM1203:
 9404 425c 8BE2      		ldi r24,lo8(43)
 9405 425e 90E0      		ldi r25,hi8(43)
 9406 4260 63E2      		ldi r22,lo8(35)
 9407 4262 70E0      		ldi r23,hi8(35)
 9408 4264 4FEF      		ldi r20,lo8(-1)
 9409 4266 0E94 0000 		call lcd_graphics_plot_pixel
 9410               	.LM1204:
 9411 426a 8BE2      		ldi r24,lo8(43)
 9412 426c 90E0      		ldi r25,hi8(43)
 9413 426e 6EE2      		ldi r22,lo8(46)
 9414 4270 70E0      		ldi r23,hi8(46)
 9415 4272 4FEF      		ldi r20,lo8(-1)
 9416 4274 0E94 0000 		call lcd_graphics_plot_pixel
 9417               	.LM1205:
 9418 4278 8BE2      		ldi r24,lo8(43)
 9419 427a 90E0      		ldi r25,hi8(43)
 9420 427c 6FE2      		ldi r22,lo8(47)
 9421 427e 70E0      		ldi r23,hi8(47)
 9422 4280 4FEF      		ldi r20,lo8(-1)
 9423 4282 0E94 0000 		call lcd_graphics_plot_pixel
 9424               	.LM1206:
 9425 4286 8BE2      		ldi r24,lo8(43)
 9426 4288 90E0      		ldi r25,hi8(43)
 9427 428a 66E3      		ldi r22,lo8(54)
 9428 428c 70E0      		ldi r23,hi8(54)
 9429 428e 4FEF      		ldi r20,lo8(-1)
 9430 4290 0E94 0000 		call lcd_graphics_plot_pixel
 9431               	.LM1207:
 9432 4294 8BE2      		ldi r24,lo8(43)
 9433 4296 90E0      		ldi r25,hi8(43)
 9434 4298 67E3      		ldi r22,lo8(55)
 9435 429a 70E0      		ldi r23,hi8(55)
 9436 429c 4FEF      		ldi r20,lo8(-1)
 9437 429e 0E94 0000 		call lcd_graphics_plot_pixel
 9438               	.LM1208:
 9439 42a2 8CE2      		ldi r24,lo8(44)
 9440 42a4 90E0      		ldi r25,hi8(44)
 9441 42a6 66E1      		ldi r22,lo8(22)
 9442 42a8 70E0      		ldi r23,hi8(22)
 9443 42aa 4FEF      		ldi r20,lo8(-1)
 9444 42ac 0E94 0000 		call lcd_graphics_plot_pixel
 9445               	.LM1209:
 9446 42b0 8CE2      		ldi r24,lo8(44)
 9447 42b2 90E0      		ldi r25,hi8(44)
 9448 42b4 67E1      		ldi r22,lo8(23)
 9449 42b6 70E0      		ldi r23,hi8(23)
 9450 42b8 4FEF      		ldi r20,lo8(-1)
 9451 42ba 0E94 0000 		call lcd_graphics_plot_pixel
 9452               	.LM1210:
 9453 42be 8CE2      		ldi r24,lo8(44)
 9454 42c0 90E0      		ldi r25,hi8(44)
 9455 42c2 6AE1      		ldi r22,lo8(26)
 9456 42c4 70E0      		ldi r23,hi8(26)
 9457 42c6 4FEF      		ldi r20,lo8(-1)
 9458 42c8 0E94 0000 		call lcd_graphics_plot_pixel
 9459               	.LM1211:
 9460 42cc 8CE2      		ldi r24,lo8(44)
 9461 42ce 90E0      		ldi r25,hi8(44)
 9462 42d0 6BE1      		ldi r22,lo8(27)
 9463 42d2 70E0      		ldi r23,hi8(27)
 9464 42d4 4FEF      		ldi r20,lo8(-1)
 9465 42d6 0E94 0000 		call lcd_graphics_plot_pixel
 9466               	.LM1212:
 9467 42da 8CE2      		ldi r24,lo8(44)
 9468 42dc 90E0      		ldi r25,hi8(44)
 9469 42de 6CE1      		ldi r22,lo8(28)
 9470 42e0 70E0      		ldi r23,hi8(28)
 9471 42e2 4FEF      		ldi r20,lo8(-1)
 9472 42e4 0E94 0000 		call lcd_graphics_plot_pixel
 9473               	.LM1213:
 9474 42e8 8CE2      		ldi r24,lo8(44)
 9475 42ea 90E0      		ldi r25,hi8(44)
 9476 42ec 6DE1      		ldi r22,lo8(29)
 9477 42ee 70E0      		ldi r23,hi8(29)
 9478 42f0 4FEF      		ldi r20,lo8(-1)
 9479 42f2 0E94 0000 		call lcd_graphics_plot_pixel
 9480               	.LM1214:
 9481 42f6 8CE2      		ldi r24,lo8(44)
 9482 42f8 90E0      		ldi r25,hi8(44)
 9483 42fa 6EE1      		ldi r22,lo8(30)
 9484 42fc 70E0      		ldi r23,hi8(30)
 9485 42fe 4FEF      		ldi r20,lo8(-1)
 9486 4300 0E94 0000 		call lcd_graphics_plot_pixel
 9487               	.LM1215:
 9488 4304 8CE2      		ldi r24,lo8(44)
 9489 4306 90E0      		ldi r25,hi8(44)
 9490 4308 6FE1      		ldi r22,lo8(31)
 9491 430a 70E0      		ldi r23,hi8(31)
 9492 430c 4FEF      		ldi r20,lo8(-1)
 9493 430e 0E94 0000 		call lcd_graphics_plot_pixel
 9494               	.LM1216:
 9495 4312 8CE2      		ldi r24,lo8(44)
 9496 4314 90E0      		ldi r25,hi8(44)
 9497 4316 62E2      		ldi r22,lo8(34)
 9498 4318 70E0      		ldi r23,hi8(34)
 9499 431a 4FEF      		ldi r20,lo8(-1)
 9500 431c 0E94 0000 		call lcd_graphics_plot_pixel
 9501               	.LM1217:
 9502 4320 8CE2      		ldi r24,lo8(44)
 9503 4322 90E0      		ldi r25,hi8(44)
 9504 4324 63E2      		ldi r22,lo8(35)
 9505 4326 70E0      		ldi r23,hi8(35)
 9506 4328 4FEF      		ldi r20,lo8(-1)
 9507 432a 0E94 0000 		call lcd_graphics_plot_pixel
 9508               	.LM1218:
 9509 432e 8CE2      		ldi r24,lo8(44)
 9510 4330 90E0      		ldi r25,hi8(44)
 9511 4332 6EE2      		ldi r22,lo8(46)
 9512 4334 70E0      		ldi r23,hi8(46)
 9513 4336 4FEF      		ldi r20,lo8(-1)
 9514 4338 0E94 0000 		call lcd_graphics_plot_pixel
 9515               	.LM1219:
 9516 433c 8CE2      		ldi r24,lo8(44)
 9517 433e 90E0      		ldi r25,hi8(44)
 9518 4340 6FE2      		ldi r22,lo8(47)
 9519 4342 70E0      		ldi r23,hi8(47)
 9520 4344 4FEF      		ldi r20,lo8(-1)
 9521 4346 0E94 0000 		call lcd_graphics_plot_pixel
 9522               	.LM1220:
 9523 434a 8CE2      		ldi r24,lo8(44)
 9524 434c 90E0      		ldi r25,hi8(44)
 9525 434e 66E3      		ldi r22,lo8(54)
 9526 4350 70E0      		ldi r23,hi8(54)
 9527 4352 4FEF      		ldi r20,lo8(-1)
 9528 4354 0E94 0000 		call lcd_graphics_plot_pixel
 9529               	.LM1221:
 9530 4358 8CE2      		ldi r24,lo8(44)
 9531 435a 90E0      		ldi r25,hi8(44)
 9532 435c 67E3      		ldi r22,lo8(55)
 9533 435e 70E0      		ldi r23,hi8(55)
 9534 4360 4FEF      		ldi r20,lo8(-1)
 9535 4362 0E94 0000 		call lcd_graphics_plot_pixel
 9536               	.LM1222:
 9537 4366 8DE2      		ldi r24,lo8(45)
 9538 4368 90E0      		ldi r25,hi8(45)
 9539 436a 66E1      		ldi r22,lo8(22)
 9540 436c 70E0      		ldi r23,hi8(22)
 9541 436e 4FEF      		ldi r20,lo8(-1)
 9542 4370 0E94 0000 		call lcd_graphics_plot_pixel
 9543               	.LM1223:
 9544 4374 8DE2      		ldi r24,lo8(45)
 9545 4376 90E0      		ldi r25,hi8(45)
 9546 4378 6EE2      		ldi r22,lo8(46)
 9547 437a 70E0      		ldi r23,hi8(46)
 9548 437c 4FEF      		ldi r20,lo8(-1)
 9549 437e 0E94 0000 		call lcd_graphics_plot_pixel
 9550               	.LM1224:
 9551 4382 8DE2      		ldi r24,lo8(45)
 9552 4384 90E0      		ldi r25,hi8(45)
 9553 4386 6FE2      		ldi r22,lo8(47)
 9554 4388 70E0      		ldi r23,hi8(47)
 9555 438a 4FEF      		ldi r20,lo8(-1)
 9556 438c 0E94 0000 		call lcd_graphics_plot_pixel
 9557               	.LM1225:
 9558 4390 8DE2      		ldi r24,lo8(45)
 9559 4392 90E0      		ldi r25,hi8(45)
 9560 4394 66E3      		ldi r22,lo8(54)
 9561 4396 70E0      		ldi r23,hi8(54)
 9562 4398 4FEF      		ldi r20,lo8(-1)
 9563 439a 0E94 0000 		call lcd_graphics_plot_pixel
 9564               	.LM1226:
 9565 439e 8DE2      		ldi r24,lo8(45)
 9566 43a0 90E0      		ldi r25,hi8(45)
 9567 43a2 67E3      		ldi r22,lo8(55)
 9568 43a4 70E0      		ldi r23,hi8(55)
 9569 43a6 4FEF      		ldi r20,lo8(-1)
 9570 43a8 0E94 0000 		call lcd_graphics_plot_pixel
 9571               	.LM1227:
 9572 43ac 8EE2      		ldi r24,lo8(46)
 9573 43ae 90E0      		ldi r25,hi8(46)
 9574 43b0 6EE2      		ldi r22,lo8(46)
 9575 43b2 70E0      		ldi r23,hi8(46)
 9576 43b4 4FEF      		ldi r20,lo8(-1)
 9577 43b6 0E94 0000 		call lcd_graphics_plot_pixel
 9578               	.LM1228:
 9579 43ba 8EE2      		ldi r24,lo8(46)
 9580 43bc 90E0      		ldi r25,hi8(46)
 9581 43be 6FE2      		ldi r22,lo8(47)
 9582 43c0 70E0      		ldi r23,hi8(47)
 9583 43c2 4FEF      		ldi r20,lo8(-1)
 9584 43c4 0E94 0000 		call lcd_graphics_plot_pixel
 9585               	.LM1229:
 9586 43c8 8EE2      		ldi r24,lo8(46)
 9587 43ca 90E0      		ldi r25,hi8(46)
 9588 43cc 66E3      		ldi r22,lo8(54)
 9589 43ce 70E0      		ldi r23,hi8(54)
 9590 43d0 4FEF      		ldi r20,lo8(-1)
 9591 43d2 0E94 0000 		call lcd_graphics_plot_pixel
 9592               	.LM1230:
 9593 43d6 8EE2      		ldi r24,lo8(46)
 9594 43d8 90E0      		ldi r25,hi8(46)
 9595 43da 67E3      		ldi r22,lo8(55)
 9596 43dc 70E0      		ldi r23,hi8(55)
 9597 43de 4FEF      		ldi r20,lo8(-1)
 9598 43e0 0E94 0000 		call lcd_graphics_plot_pixel
 9599               	.LM1231:
 9600 43e4 8FE2      		ldi r24,lo8(47)
 9601 43e6 90E0      		ldi r25,hi8(47)
 9602 43e8 6AE1      		ldi r22,lo8(26)
 9603 43ea 70E0      		ldi r23,hi8(26)
 9604 43ec 4FEF      		ldi r20,lo8(-1)
 9605 43ee 0E94 0000 		call lcd_graphics_plot_pixel
 9606               	.LM1232:
 9607 43f2 8FE2      		ldi r24,lo8(47)
 9608 43f4 90E0      		ldi r25,hi8(47)
 9609 43f6 6BE1      		ldi r22,lo8(27)
 9610 43f8 70E0      		ldi r23,hi8(27)
 9611 43fa 4FEF      		ldi r20,lo8(-1)
 9612 43fc 0E94 0000 		call lcd_graphics_plot_pixel
 9613               	.LM1233:
 9614 4400 8FE2      		ldi r24,lo8(47)
 9615 4402 90E0      		ldi r25,hi8(47)
 9616 4404 60E3      		ldi r22,lo8(48)
 9617 4406 70E0      		ldi r23,hi8(48)
 9618 4408 4FEF      		ldi r20,lo8(-1)
 9619 440a 0E94 0000 		call lcd_graphics_plot_pixel
 9620               	.LM1234:
 9621 440e 8FE2      		ldi r24,lo8(47)
 9622 4410 90E0      		ldi r25,hi8(47)
 9623 4412 61E3      		ldi r22,lo8(49)
 9624 4414 70E0      		ldi r23,hi8(49)
 9625 4416 4FEF      		ldi r20,lo8(-1)
 9626 4418 0E94 0000 		call lcd_graphics_plot_pixel
 9627               	.LM1235:
 9628 441c 8FE2      		ldi r24,lo8(47)
 9629 441e 90E0      		ldi r25,hi8(47)
 9630 4420 62E3      		ldi r22,lo8(50)
 9631 4422 70E0      		ldi r23,hi8(50)
 9632 4424 4FEF      		ldi r20,lo8(-1)
 9633 4426 0E94 0000 		call lcd_graphics_plot_pixel
 9634               	.LM1236:
 9635 442a 8FE2      		ldi r24,lo8(47)
 9636 442c 90E0      		ldi r25,hi8(47)
 9637 442e 63E3      		ldi r22,lo8(51)
 9638 4430 70E0      		ldi r23,hi8(51)
 9639 4432 4FEF      		ldi r20,lo8(-1)
 9640 4434 0E94 0000 		call lcd_graphics_plot_pixel
 9641               	.LM1237:
 9642 4438 8FE2      		ldi r24,lo8(47)
 9643 443a 90E0      		ldi r25,hi8(47)
 9644 443c 64E3      		ldi r22,lo8(52)
 9645 443e 70E0      		ldi r23,hi8(52)
 9646 4440 4FEF      		ldi r20,lo8(-1)
 9647 4442 0E94 0000 		call lcd_graphics_plot_pixel
 9648               	.LM1238:
 9649 4446 8FE2      		ldi r24,lo8(47)
 9650 4448 90E0      		ldi r25,hi8(47)
 9651 444a 65E3      		ldi r22,lo8(53)
 9652 444c 70E0      		ldi r23,hi8(53)
 9653 444e 4FEF      		ldi r20,lo8(-1)
 9654 4450 0E94 0000 		call lcd_graphics_plot_pixel
 9655               	.LM1239:
 9656 4454 80E3      		ldi r24,lo8(48)
 9657 4456 90E0      		ldi r25,hi8(48)
 9658 4458 6AE1      		ldi r22,lo8(26)
 9659 445a 70E0      		ldi r23,hi8(26)
 9660 445c 4FEF      		ldi r20,lo8(-1)
 9661 445e 0E94 0000 		call lcd_graphics_plot_pixel
 9662               	.LM1240:
 9663 4462 80E3      		ldi r24,lo8(48)
 9664 4464 90E0      		ldi r25,hi8(48)
 9665 4466 6BE1      		ldi r22,lo8(27)
 9666 4468 70E0      		ldi r23,hi8(27)
 9667 446a 4FEF      		ldi r20,lo8(-1)
 9668 446c 0E94 0000 		call lcd_graphics_plot_pixel
 9669               	.LM1241:
 9670 4470 80E3      		ldi r24,lo8(48)
 9671 4472 90E0      		ldi r25,hi8(48)
 9672 4474 60E3      		ldi r22,lo8(48)
 9673 4476 70E0      		ldi r23,hi8(48)
 9674 4478 4FEF      		ldi r20,lo8(-1)
 9675 447a 0E94 0000 		call lcd_graphics_plot_pixel
 9676               	.LM1242:
 9677 447e 80E3      		ldi r24,lo8(48)
 9678 4480 90E0      		ldi r25,hi8(48)
 9679 4482 61E3      		ldi r22,lo8(49)
 9680 4484 70E0      		ldi r23,hi8(49)
 9681 4486 4FEF      		ldi r20,lo8(-1)
 9682 4488 0E94 0000 		call lcd_graphics_plot_pixel
 9683               	.LM1243:
 9684 448c 80E3      		ldi r24,lo8(48)
 9685 448e 90E0      		ldi r25,hi8(48)
 9686 4490 62E3      		ldi r22,lo8(50)
 9687 4492 70E0      		ldi r23,hi8(50)
 9688 4494 4FEF      		ldi r20,lo8(-1)
 9689 4496 0E94 0000 		call lcd_graphics_plot_pixel
 9690               	.LM1244:
 9691 449a 80E3      		ldi r24,lo8(48)
 9692 449c 90E0      		ldi r25,hi8(48)
 9693 449e 63E3      		ldi r22,lo8(51)
 9694 44a0 70E0      		ldi r23,hi8(51)
 9695 44a2 4FEF      		ldi r20,lo8(-1)
 9696 44a4 0E94 0000 		call lcd_graphics_plot_pixel
 9697               	.LM1245:
 9698 44a8 80E3      		ldi r24,lo8(48)
 9699 44aa 90E0      		ldi r25,hi8(48)
 9700 44ac 64E3      		ldi r22,lo8(52)
 9701 44ae 70E0      		ldi r23,hi8(52)
 9702 44b0 4FEF      		ldi r20,lo8(-1)
 9703 44b2 0E94 0000 		call lcd_graphics_plot_pixel
 9704               	.LM1246:
 9705 44b6 80E3      		ldi r24,lo8(48)
 9706 44b8 90E0      		ldi r25,hi8(48)
 9707 44ba 65E3      		ldi r22,lo8(53)
 9708 44bc 70E0      		ldi r23,hi8(53)
 9709 44be 4FEF      		ldi r20,lo8(-1)
 9710 44c0 0E94 0000 		call lcd_graphics_plot_pixel
 9711               	.LM1247:
 9712 44c4 81E3      		ldi r24,lo8(49)
 9713 44c6 90E0      		ldi r25,hi8(49)
 9714 44c8 6AE1      		ldi r22,lo8(26)
 9715 44ca 70E0      		ldi r23,hi8(26)
 9716 44cc 4FEF      		ldi r20,lo8(-1)
 9717 44ce 0E94 0000 		call lcd_graphics_plot_pixel
 9718               	.LM1248:
 9719 44d2 81E3      		ldi r24,lo8(49)
 9720 44d4 90E0      		ldi r25,hi8(49)
 9721 44d6 6BE1      		ldi r22,lo8(27)
 9722 44d8 70E0      		ldi r23,hi8(27)
 9723 44da 4FEF      		ldi r20,lo8(-1)
 9724 44dc 0E94 0000 		call lcd_graphics_plot_pixel
 9725               	.LM1249:
 9726 44e0 82E3      		ldi r24,lo8(50)
 9727 44e2 90E0      		ldi r25,hi8(50)
 9728 44e4 6AE1      		ldi r22,lo8(26)
 9729 44e6 70E0      		ldi r23,hi8(26)
 9730 44e8 4FEF      		ldi r20,lo8(-1)
 9731 44ea 0E94 0000 		call lcd_graphics_plot_pixel
 9732               	.LM1250:
 9733 44ee 82E3      		ldi r24,lo8(50)
 9734 44f0 90E0      		ldi r25,hi8(50)
 9735 44f2 6BE1      		ldi r22,lo8(27)
 9736 44f4 70E0      		ldi r23,hi8(27)
 9737 44f6 4FEF      		ldi r20,lo8(-1)
 9738 44f8 0E94 0000 		call lcd_graphics_plot_pixel
 9739               	.LM1251:
 9740 44fc 82E3      		ldi r24,lo8(50)
 9741 44fe 90E0      		ldi r25,hi8(50)
 9742 4500 6CE1      		ldi r22,lo8(28)
 9743 4502 70E0      		ldi r23,hi8(28)
 9744 4504 4FEF      		ldi r20,lo8(-1)
 9745 4506 0E94 0000 		call lcd_graphics_plot_pixel
 9746               	.LM1252:
 9747 450a 82E3      		ldi r24,lo8(50)
 9748 450c 90E0      		ldi r25,hi8(50)
 9749 450e 6DE1      		ldi r22,lo8(29)
 9750 4510 70E0      		ldi r23,hi8(29)
 9751 4512 4FEF      		ldi r20,lo8(-1)
 9752 4514 0E94 0000 		call lcd_graphics_plot_pixel
 9753               	.LM1253:
 9754 4518 82E3      		ldi r24,lo8(50)
 9755 451a 90E0      		ldi r25,hi8(50)
 9756 451c 6EE1      		ldi r22,lo8(30)
 9757 451e 70E0      		ldi r23,hi8(30)
 9758 4520 4FEF      		ldi r20,lo8(-1)
 9759 4522 0E94 0000 		call lcd_graphics_plot_pixel
 9760               	.LM1254:
 9761 4526 82E3      		ldi r24,lo8(50)
 9762 4528 90E0      		ldi r25,hi8(50)
 9763 452a 6FE1      		ldi r22,lo8(31)
 9764 452c 70E0      		ldi r23,hi8(31)
 9765 452e 4FEF      		ldi r20,lo8(-1)
 9766 4530 0E94 0000 		call lcd_graphics_plot_pixel
 9767               	.LM1255:
 9768 4534 82E3      		ldi r24,lo8(50)
 9769 4536 90E0      		ldi r25,hi8(50)
 9770 4538 60E2      		ldi r22,lo8(32)
 9771 453a 70E0      		ldi r23,hi8(32)
 9772 453c 4FEF      		ldi r20,lo8(-1)
 9773 453e 0E94 0000 		call lcd_graphics_plot_pixel
 9774               	.LM1256:
 9775 4542 82E3      		ldi r24,lo8(50)
 9776 4544 90E0      		ldi r25,hi8(50)
 9777 4546 61E2      		ldi r22,lo8(33)
 9778 4548 70E0      		ldi r23,hi8(33)
 9779 454a 4FEF      		ldi r20,lo8(-1)
 9780 454c 0E94 0000 		call lcd_graphics_plot_pixel
 9781               	.LM1257:
 9782 4550 82E3      		ldi r24,lo8(50)
 9783 4552 90E0      		ldi r25,hi8(50)
 9784 4554 62E2      		ldi r22,lo8(34)
 9785 4556 70E0      		ldi r23,hi8(34)
 9786 4558 4FEF      		ldi r20,lo8(-1)
 9787 455a 0E94 0000 		call lcd_graphics_plot_pixel
 9788               	.LM1258:
 9789 455e 82E3      		ldi r24,lo8(50)
 9790 4560 90E0      		ldi r25,hi8(50)
 9791 4562 63E2      		ldi r22,lo8(35)
 9792 4564 70E0      		ldi r23,hi8(35)
 9793 4566 4FEF      		ldi r20,lo8(-1)
 9794 4568 0E94 0000 		call lcd_graphics_plot_pixel
 9795               	.LM1259:
 9796 456c 83E3      		ldi r24,lo8(51)
 9797 456e 90E0      		ldi r25,hi8(51)
 9798 4570 6AE1      		ldi r22,lo8(26)
 9799 4572 70E0      		ldi r23,hi8(26)
 9800 4574 4FEF      		ldi r20,lo8(-1)
 9801 4576 0E94 0000 		call lcd_graphics_plot_pixel
 9802               	.LM1260:
 9803 457a 83E3      		ldi r24,lo8(51)
 9804 457c 90E0      		ldi r25,hi8(51)
 9805 457e 6BE1      		ldi r22,lo8(27)
 9806 4580 70E0      		ldi r23,hi8(27)
 9807 4582 4FEF      		ldi r20,lo8(-1)
 9808 4584 0E94 0000 		call lcd_graphics_plot_pixel
 9809               	.LM1261:
 9810 4588 83E3      		ldi r24,lo8(51)
 9811 458a 90E0      		ldi r25,hi8(51)
 9812 458c 6CE1      		ldi r22,lo8(28)
 9813 458e 70E0      		ldi r23,hi8(28)
 9814 4590 4FEF      		ldi r20,lo8(-1)
 9815 4592 0E94 0000 		call lcd_graphics_plot_pixel
 9816               	.LM1262:
 9817 4596 83E3      		ldi r24,lo8(51)
 9818 4598 90E0      		ldi r25,hi8(51)
 9819 459a 6DE1      		ldi r22,lo8(29)
 9820 459c 70E0      		ldi r23,hi8(29)
 9821 459e 4FEF      		ldi r20,lo8(-1)
 9822 45a0 0E94 0000 		call lcd_graphics_plot_pixel
 9823               	.LM1263:
 9824 45a4 83E3      		ldi r24,lo8(51)
 9825 45a6 90E0      		ldi r25,hi8(51)
 9826 45a8 6EE1      		ldi r22,lo8(30)
 9827 45aa 70E0      		ldi r23,hi8(30)
 9828 45ac 4FEF      		ldi r20,lo8(-1)
 9829 45ae 0E94 0000 		call lcd_graphics_plot_pixel
 9830               	.LM1264:
 9831 45b2 83E3      		ldi r24,lo8(51)
 9832 45b4 90E0      		ldi r25,hi8(51)
 9833 45b6 6FE1      		ldi r22,lo8(31)
 9834 45b8 70E0      		ldi r23,hi8(31)
 9835 45ba 4FEF      		ldi r20,lo8(-1)
 9836 45bc 0E94 0000 		call lcd_graphics_plot_pixel
 9837               	.LM1265:
 9838 45c0 83E3      		ldi r24,lo8(51)
 9839 45c2 90E0      		ldi r25,hi8(51)
 9840 45c4 60E2      		ldi r22,lo8(32)
 9841 45c6 70E0      		ldi r23,hi8(32)
 9842 45c8 4FEF      		ldi r20,lo8(-1)
 9843 45ca 0E94 0000 		call lcd_graphics_plot_pixel
 9844               	.LM1266:
 9845 45ce 83E3      		ldi r24,lo8(51)
 9846 45d0 90E0      		ldi r25,hi8(51)
 9847 45d2 61E2      		ldi r22,lo8(33)
 9848 45d4 70E0      		ldi r23,hi8(33)
 9849 45d6 4FEF      		ldi r20,lo8(-1)
 9850 45d8 0E94 0000 		call lcd_graphics_plot_pixel
 9851               	.LM1267:
 9852 45dc 83E3      		ldi r24,lo8(51)
 9853 45de 90E0      		ldi r25,hi8(51)
 9854 45e0 62E2      		ldi r22,lo8(34)
 9855 45e2 70E0      		ldi r23,hi8(34)
 9856 45e4 4FEF      		ldi r20,lo8(-1)
 9857 45e6 0E94 0000 		call lcd_graphics_plot_pixel
 9858               	.LM1268:
 9859 45ea 83E3      		ldi r24,lo8(51)
 9860 45ec 90E0      		ldi r25,hi8(51)
 9861 45ee 63E2      		ldi r22,lo8(35)
 9862 45f0 70E0      		ldi r23,hi8(35)
 9863 45f2 4FEF      		ldi r20,lo8(-1)
 9864 45f4 0E94 0000 		call lcd_graphics_plot_pixel
 9865               	.LM1269:
 9866 45f8 84E3      		ldi r24,lo8(52)
 9867 45fa 90E0      		ldi r25,hi8(52)
 9868 45fc 6AE1      		ldi r22,lo8(26)
 9869 45fe 70E0      		ldi r23,hi8(26)
 9870 4600 4FEF      		ldi r20,lo8(-1)
 9871 4602 0E94 0000 		call lcd_graphics_plot_pixel
 9872               	.LM1270:
 9873 4606 84E3      		ldi r24,lo8(52)
 9874 4608 90E0      		ldi r25,hi8(52)
 9875 460a 6BE1      		ldi r22,lo8(27)
 9876 460c 70E0      		ldi r23,hi8(27)
 9877 460e 4FEF      		ldi r20,lo8(-1)
 9878 4610 0E94 0000 		call lcd_graphics_plot_pixel
 9879               	.LM1271:
 9880 4614 85E3      		ldi r24,lo8(53)
 9881 4616 90E0      		ldi r25,hi8(53)
 9882 4618 6AE1      		ldi r22,lo8(26)
 9883 461a 70E0      		ldi r23,hi8(26)
 9884 461c 4FEF      		ldi r20,lo8(-1)
 9885 461e 0E94 0000 		call lcd_graphics_plot_pixel
 9886               	.LM1272:
 9887 4622 85E3      		ldi r24,lo8(53)
 9888 4624 90E0      		ldi r25,hi8(53)
 9889 4626 6BE1      		ldi r22,lo8(27)
 9890 4628 70E0      		ldi r23,hi8(27)
 9891 462a 4FEF      		ldi r20,lo8(-1)
 9892 462c 0E94 0000 		call lcd_graphics_plot_pixel
 9893               	.LM1273:
 9894 4630 86E3      		ldi r24,lo8(54)
 9895 4632 90E0      		ldi r25,hi8(54)
 9896 4634 6AE1      		ldi r22,lo8(26)
 9897 4636 70E0      		ldi r23,hi8(26)
 9898 4638 4FEF      		ldi r20,lo8(-1)
 9899 463a 0E94 0000 		call lcd_graphics_plot_pixel
 9900               	.LM1274:
 9901 463e 86E3      		ldi r24,lo8(54)
 9902 4640 90E0      		ldi r25,hi8(54)
 9903 4642 6BE1      		ldi r22,lo8(27)
 9904 4644 70E0      		ldi r23,hi8(27)
 9905 4646 4FEF      		ldi r20,lo8(-1)
 9906 4648 0E94 0000 		call lcd_graphics_plot_pixel
 9907               	.LM1275:
 9908 464c 8DE3      		ldi r24,lo8(61)
 9909 464e 90E0      		ldi r25,hi8(61)
 9910 4650 6BE0      		ldi r22,lo8(11)
 9911 4652 70E0      		ldi r23,hi8(11)
 9912 4654 4FEF      		ldi r20,lo8(-1)
 9913 4656 0E94 0000 		call lcd_graphics_plot_pixel
 9914               	.LM1276:
 9915 465a 8DE3      		ldi r24,lo8(61)
 9916 465c 90E0      		ldi r25,hi8(61)
 9917 465e 6CE0      		ldi r22,lo8(12)
 9918 4660 70E0      		ldi r23,hi8(12)
 9919 4662 4FEF      		ldi r20,lo8(-1)
 9920 4664 0E94 0000 		call lcd_graphics_plot_pixel
 9921               	.LM1277:
 9922 4668 8DE3      		ldi r24,lo8(61)
 9923 466a 90E0      		ldi r25,hi8(61)
 9924 466c 6DE0      		ldi r22,lo8(13)
 9925 466e 70E0      		ldi r23,hi8(13)
 9926 4670 4FEF      		ldi r20,lo8(-1)
 9927 4672 0E94 0000 		call lcd_graphics_plot_pixel
 9928               	.LM1278:
 9929 4676 8DE3      		ldi r24,lo8(61)
 9930 4678 90E0      		ldi r25,hi8(61)
 9931 467a 6EE0      		ldi r22,lo8(14)
 9932 467c 70E0      		ldi r23,hi8(14)
 9933 467e 4FEF      		ldi r20,lo8(-1)
 9934 4680 0E94 0000 		call lcd_graphics_plot_pixel
 9935               	.LM1279:
 9936 4684 8DE3      		ldi r24,lo8(61)
 9937 4686 90E0      		ldi r25,hi8(61)
 9938 4688 6FE0      		ldi r22,lo8(15)
 9939 468a 70E0      		ldi r23,hi8(15)
 9940 468c 4FEF      		ldi r20,lo8(-1)
 9941 468e 0E94 0000 		call lcd_graphics_plot_pixel
 9942               	.LM1280:
 9943 4692 8DE3      		ldi r24,lo8(61)
 9944 4694 90E0      		ldi r25,hi8(61)
 9945 4696 60E1      		ldi r22,lo8(16)
 9946 4698 70E0      		ldi r23,hi8(16)
 9947 469a 4FEF      		ldi r20,lo8(-1)
 9948 469c 0E94 0000 		call lcd_graphics_plot_pixel
 9949               	.LM1281:
 9950 46a0 8DE3      		ldi r24,lo8(61)
 9951 46a2 90E0      		ldi r25,hi8(61)
 9952 46a4 61E1      		ldi r22,lo8(17)
 9953 46a6 70E0      		ldi r23,hi8(17)
 9954 46a8 4FEF      		ldi r20,lo8(-1)
 9955 46aa 0E94 0000 		call lcd_graphics_plot_pixel
 9956               	.LM1282:
 9957 46ae 8DE3      		ldi r24,lo8(61)
 9958 46b0 90E0      		ldi r25,hi8(61)
 9959 46b2 62E1      		ldi r22,lo8(18)
 9960 46b4 70E0      		ldi r23,hi8(18)
 9961 46b6 4FEF      		ldi r20,lo8(-1)
 9962 46b8 0E94 0000 		call lcd_graphics_plot_pixel
 9963               	.LM1283:
 9964 46bc 8DE3      		ldi r24,lo8(61)
 9965 46be 90E0      		ldi r25,hi8(61)
 9966 46c0 63E1      		ldi r22,lo8(19)
 9967 46c2 70E0      		ldi r23,hi8(19)
 9968 46c4 4FEF      		ldi r20,lo8(-1)
 9969 46c6 0E94 0000 		call lcd_graphics_plot_pixel
 9970               	.LM1284:
 9971 46ca 8DE3      		ldi r24,lo8(61)
 9972 46cc 90E0      		ldi r25,hi8(61)
 9973 46ce 64E1      		ldi r22,lo8(20)
 9974 46d0 70E0      		ldi r23,hi8(20)
 9975 46d2 4FEF      		ldi r20,lo8(-1)
 9976 46d4 0E94 0000 		call lcd_graphics_plot_pixel
 9977               	.LM1285:
 9978 46d8 8DE3      		ldi r24,lo8(61)
 9979 46da 90E0      		ldi r25,hi8(61)
 9980 46dc 65E1      		ldi r22,lo8(21)
 9981 46de 70E0      		ldi r23,hi8(21)
 9982 46e0 4FEF      		ldi r20,lo8(-1)
 9983 46e2 0E94 0000 		call lcd_graphics_plot_pixel
 9984               	.LM1286:
 9985 46e6 8DE3      		ldi r24,lo8(61)
 9986 46e8 90E0      		ldi r25,hi8(61)
 9987 46ea 66E1      		ldi r22,lo8(22)
 9988 46ec 70E0      		ldi r23,hi8(22)
 9989 46ee 4FEF      		ldi r20,lo8(-1)
 9990 46f0 0E94 0000 		call lcd_graphics_plot_pixel
 9991               	.LM1287:
 9992 46f4 8DE3      		ldi r24,lo8(61)
 9993 46f6 90E0      		ldi r25,hi8(61)
 9994 46f8 67E1      		ldi r22,lo8(23)
 9995 46fa 70E0      		ldi r23,hi8(23)
 9996 46fc 4FEF      		ldi r20,lo8(-1)
 9997 46fe 0E94 0000 		call lcd_graphics_plot_pixel
 9998               	.LM1288:
 9999 4702 8DE3      		ldi r24,lo8(61)
 10000 4704 90E0      		ldi r25,hi8(61)
 10001 4706 68E1      		ldi r22,lo8(24)
 10002 4708 70E0      		ldi r23,hi8(24)
 10003 470a 4FEF      		ldi r20,lo8(-1)
 10004 470c 0E94 0000 		call lcd_graphics_plot_pixel
 10005               	.LM1289:
 10006 4710 8DE3      		ldi r24,lo8(61)
 10007 4712 90E0      		ldi r25,hi8(61)
 10008 4714 69E1      		ldi r22,lo8(25)
 10009 4716 70E0      		ldi r23,hi8(25)
 10010 4718 4FEF      		ldi r20,lo8(-1)
 10011 471a 0E94 0000 		call lcd_graphics_plot_pixel
 10012               	.LM1290:
 10013 471e 8DE3      		ldi r24,lo8(61)
 10014 4720 90E0      		ldi r25,hi8(61)
 10015 4722 6AE1      		ldi r22,lo8(26)
 10016 4724 70E0      		ldi r23,hi8(26)
 10017 4726 4FEF      		ldi r20,lo8(-1)
 10018 4728 0E94 0000 		call lcd_graphics_plot_pixel
 10019               	.LM1291:
 10020 472c 8DE3      		ldi r24,lo8(61)
 10021 472e 90E0      		ldi r25,hi8(61)
 10022 4730 6BE1      		ldi r22,lo8(27)
 10023 4732 70E0      		ldi r23,hi8(27)
 10024 4734 4FEF      		ldi r20,lo8(-1)
 10025 4736 0E94 0000 		call lcd_graphics_plot_pixel
 10026               	.LM1292:
 10027 473a 8DE3      		ldi r24,lo8(61)
 10028 473c 90E0      		ldi r25,hi8(61)
 10029 473e 6CE1      		ldi r22,lo8(28)
 10030 4740 70E0      		ldi r23,hi8(28)
 10031 4742 4FEF      		ldi r20,lo8(-1)
 10032 4744 0E94 0000 		call lcd_graphics_plot_pixel
 10033               	.LM1293:
 10034 4748 8DE3      		ldi r24,lo8(61)
 10035 474a 90E0      		ldi r25,hi8(61)
 10036 474c 6DE1      		ldi r22,lo8(29)
 10037 474e 70E0      		ldi r23,hi8(29)
 10038 4750 4FEF      		ldi r20,lo8(-1)
 10039 4752 0E94 0000 		call lcd_graphics_plot_pixel
 10040               	.LM1294:
 10041 4756 8DE3      		ldi r24,lo8(61)
 10042 4758 90E0      		ldi r25,hi8(61)
 10043 475a 6EE1      		ldi r22,lo8(30)
 10044 475c 70E0      		ldi r23,hi8(30)
 10045 475e 4FEF      		ldi r20,lo8(-1)
 10046 4760 0E94 0000 		call lcd_graphics_plot_pixel
 10047               	.LM1295:
 10048 4764 8DE3      		ldi r24,lo8(61)
 10049 4766 90E0      		ldi r25,hi8(61)
 10050 4768 6FE1      		ldi r22,lo8(31)
 10051 476a 70E0      		ldi r23,hi8(31)
 10052 476c 4FEF      		ldi r20,lo8(-1)
 10053 476e 0E94 0000 		call lcd_graphics_plot_pixel
 10054               	.LM1296:
 10055 4772 8DE3      		ldi r24,lo8(61)
 10056 4774 90E0      		ldi r25,hi8(61)
 10057 4776 60E2      		ldi r22,lo8(32)
 10058 4778 70E0      		ldi r23,hi8(32)
 10059 477a 4FEF      		ldi r20,lo8(-1)
 10060 477c 0E94 0000 		call lcd_graphics_plot_pixel
 10061               	.LM1297:
 10062 4780 8DE3      		ldi r24,lo8(61)
 10063 4782 90E0      		ldi r25,hi8(61)
 10064 4784 61E2      		ldi r22,lo8(33)
 10065 4786 70E0      		ldi r23,hi8(33)
 10066 4788 4FEF      		ldi r20,lo8(-1)
 10067 478a 0E94 0000 		call lcd_graphics_plot_pixel
 10068               	.LM1298:
 10069 478e 8DE3      		ldi r24,lo8(61)
 10070 4790 90E0      		ldi r25,hi8(61)
 10071 4792 62E2      		ldi r22,lo8(34)
 10072 4794 70E0      		ldi r23,hi8(34)
 10073 4796 4FEF      		ldi r20,lo8(-1)
 10074 4798 0E94 0000 		call lcd_graphics_plot_pixel
 10075               	.LM1299:
 10076 479c 8DE3      		ldi r24,lo8(61)
 10077 479e 90E0      		ldi r25,hi8(61)
 10078 47a0 63E2      		ldi r22,lo8(35)
 10079 47a2 70E0      		ldi r23,hi8(35)
 10080 47a4 4FEF      		ldi r20,lo8(-1)
 10081 47a6 0E94 0000 		call lcd_graphics_plot_pixel
 10082               	.LM1300:
 10083 47aa 8DE3      		ldi r24,lo8(61)
 10084 47ac 90E0      		ldi r25,hi8(61)
 10085 47ae 64E2      		ldi r22,lo8(36)
 10086 47b0 70E0      		ldi r23,hi8(36)
 10087 47b2 4FEF      		ldi r20,lo8(-1)
 10088 47b4 0E94 0000 		call lcd_graphics_plot_pixel
 10089               	.LM1301:
 10090 47b8 8DE3      		ldi r24,lo8(61)
 10091 47ba 90E0      		ldi r25,hi8(61)
 10092 47bc 65E2      		ldi r22,lo8(37)
 10093 47be 70E0      		ldi r23,hi8(37)
 10094 47c0 4FEF      		ldi r20,lo8(-1)
 10095 47c2 0E94 0000 		call lcd_graphics_plot_pixel
 10096               	.LM1302:
 10097 47c6 8DE3      		ldi r24,lo8(61)
 10098 47c8 90E0      		ldi r25,hi8(61)
 10099 47ca 66E2      		ldi r22,lo8(38)
 10100 47cc 70E0      		ldi r23,hi8(38)
 10101 47ce 4FEF      		ldi r20,lo8(-1)
 10102 47d0 0E94 0000 		call lcd_graphics_plot_pixel
 10103               	.LM1303:
 10104 47d4 8DE3      		ldi r24,lo8(61)
 10105 47d6 90E0      		ldi r25,hi8(61)
 10106 47d8 67E2      		ldi r22,lo8(39)
 10107 47da 70E0      		ldi r23,hi8(39)
 10108 47dc 4FEF      		ldi r20,lo8(-1)
 10109 47de 0E94 0000 		call lcd_graphics_plot_pixel
 10110               	.LM1304:
 10111 47e2 8DE3      		ldi r24,lo8(61)
 10112 47e4 90E0      		ldi r25,hi8(61)
 10113 47e6 68E2      		ldi r22,lo8(40)
 10114 47e8 70E0      		ldi r23,hi8(40)
 10115 47ea 4FEF      		ldi r20,lo8(-1)
 10116 47ec 0E94 0000 		call lcd_graphics_plot_pixel
 10117               	.LM1305:
 10118 47f0 8DE3      		ldi r24,lo8(61)
 10119 47f2 90E0      		ldi r25,hi8(61)
 10120 47f4 69E2      		ldi r22,lo8(41)
 10121 47f6 70E0      		ldi r23,hi8(41)
 10122 47f8 4FEF      		ldi r20,lo8(-1)
 10123 47fa 0E94 0000 		call lcd_graphics_plot_pixel
 10124               	.LM1306:
 10125 47fe 8DE3      		ldi r24,lo8(61)
 10126 4800 90E0      		ldi r25,hi8(61)
 10127 4802 6AE2      		ldi r22,lo8(42)
 10128 4804 70E0      		ldi r23,hi8(42)
 10129 4806 4FEF      		ldi r20,lo8(-1)
 10130 4808 0E94 0000 		call lcd_graphics_plot_pixel
 10131               	.LM1307:
 10132 480c 8DE3      		ldi r24,lo8(61)
 10133 480e 90E0      		ldi r25,hi8(61)
 10134 4810 6BE2      		ldi r22,lo8(43)
 10135 4812 70E0      		ldi r23,hi8(43)
 10136 4814 4FEF      		ldi r20,lo8(-1)
 10137 4816 0E94 0000 		call lcd_graphics_plot_pixel
 10138               	.LM1308:
 10139 481a 8DE3      		ldi r24,lo8(61)
 10140 481c 90E0      		ldi r25,hi8(61)
 10141 481e 6CE2      		ldi r22,lo8(44)
 10142 4820 70E0      		ldi r23,hi8(44)
 10143 4822 4FEF      		ldi r20,lo8(-1)
 10144 4824 0E94 0000 		call lcd_graphics_plot_pixel
 10145               	.LM1309:
 10146 4828 8DE3      		ldi r24,lo8(61)
 10147 482a 90E0      		ldi r25,hi8(61)
 10148 482c 6DE2      		ldi r22,lo8(45)
 10149 482e 70E0      		ldi r23,hi8(45)
 10150 4830 4FEF      		ldi r20,lo8(-1)
 10151 4832 0E94 0000 		call lcd_graphics_plot_pixel
 10152               	.LM1310:
 10153 4836 8DE3      		ldi r24,lo8(61)
 10154 4838 90E0      		ldi r25,hi8(61)
 10155 483a 6EE2      		ldi r22,lo8(46)
 10156 483c 70E0      		ldi r23,hi8(46)
 10157 483e 4FEF      		ldi r20,lo8(-1)
 10158 4840 0E94 0000 		call lcd_graphics_plot_pixel
 10159               	.LM1311:
 10160 4844 8DE3      		ldi r24,lo8(61)
 10161 4846 90E0      		ldi r25,hi8(61)
 10162 4848 6FE2      		ldi r22,lo8(47)
 10163 484a 70E0      		ldi r23,hi8(47)
 10164 484c 4FEF      		ldi r20,lo8(-1)
 10165 484e 0E94 0000 		call lcd_graphics_plot_pixel
 10166               	.LM1312:
 10167 4852 8DE3      		ldi r24,lo8(61)
 10168 4854 90E0      		ldi r25,hi8(61)
 10169 4856 60E3      		ldi r22,lo8(48)
 10170 4858 70E0      		ldi r23,hi8(48)
 10171 485a 4FEF      		ldi r20,lo8(-1)
 10172 485c 0E94 0000 		call lcd_graphics_plot_pixel
 10173               	.LM1313:
 10174 4860 8DE3      		ldi r24,lo8(61)
 10175 4862 90E0      		ldi r25,hi8(61)
 10176 4864 61E3      		ldi r22,lo8(49)
 10177 4866 70E0      		ldi r23,hi8(49)
 10178 4868 4FEF      		ldi r20,lo8(-1)
 10179 486a 0E94 0000 		call lcd_graphics_plot_pixel
 10180               	.LM1314:
 10181 486e 8DE3      		ldi r24,lo8(61)
 10182 4870 90E0      		ldi r25,hi8(61)
 10183 4872 62E3      		ldi r22,lo8(50)
 10184 4874 70E0      		ldi r23,hi8(50)
 10185 4876 4FEF      		ldi r20,lo8(-1)
 10186 4878 0E94 0000 		call lcd_graphics_plot_pixel
 10187               	.LM1315:
 10188 487c 8DE3      		ldi r24,lo8(61)
 10189 487e 90E0      		ldi r25,hi8(61)
 10190 4880 63E3      		ldi r22,lo8(51)
 10191 4882 70E0      		ldi r23,hi8(51)
 10192 4884 4FEF      		ldi r20,lo8(-1)
 10193 4886 0E94 0000 		call lcd_graphics_plot_pixel
 10194               	.LM1316:
 10195 488a 8DE3      		ldi r24,lo8(61)
 10196 488c 90E0      		ldi r25,hi8(61)
 10197 488e 64E3      		ldi r22,lo8(52)
 10198 4890 70E0      		ldi r23,hi8(52)
 10199 4892 4FEF      		ldi r20,lo8(-1)
 10200 4894 0E94 0000 		call lcd_graphics_plot_pixel
 10201               	.LM1317:
 10202 4898 8DE3      		ldi r24,lo8(61)
 10203 489a 90E0      		ldi r25,hi8(61)
 10204 489c 65E3      		ldi r22,lo8(53)
 10205 489e 70E0      		ldi r23,hi8(53)
 10206 48a0 4FEF      		ldi r20,lo8(-1)
 10207 48a2 0E94 0000 		call lcd_graphics_plot_pixel
 10208               	.LM1318:
 10209 48a6 8DE3      		ldi r24,lo8(61)
 10210 48a8 90E0      		ldi r25,hi8(61)
 10211 48aa 66E3      		ldi r22,lo8(54)
 10212 48ac 70E0      		ldi r23,hi8(54)
 10213 48ae 4FEF      		ldi r20,lo8(-1)
 10214 48b0 0E94 0000 		call lcd_graphics_plot_pixel
 10215               	.LM1319:
 10216 48b4 8DE3      		ldi r24,lo8(61)
 10217 48b6 90E0      		ldi r25,hi8(61)
 10218 48b8 67E3      		ldi r22,lo8(55)
 10219 48ba 70E0      		ldi r23,hi8(55)
 10220 48bc 4FEF      		ldi r20,lo8(-1)
 10221 48be 0E94 0000 		call lcd_graphics_plot_pixel
 10222               	.LM1320:
 10223 48c2 8DE3      		ldi r24,lo8(61)
 10224 48c4 90E0      		ldi r25,hi8(61)
 10225 48c6 68E3      		ldi r22,lo8(56)
 10226 48c8 70E0      		ldi r23,hi8(56)
 10227 48ca 4FEF      		ldi r20,lo8(-1)
 10228 48cc 0E94 0000 		call lcd_graphics_plot_pixel
 10229               	.LM1321:
 10230 48d0 8DE3      		ldi r24,lo8(61)
 10231 48d2 90E0      		ldi r25,hi8(61)
 10232 48d4 69E3      		ldi r22,lo8(57)
 10233 48d6 70E0      		ldi r23,hi8(57)
 10234 48d8 4FEF      		ldi r20,lo8(-1)
 10235 48da 0E94 0000 		call lcd_graphics_plot_pixel
 10236               	.LM1322:
 10237 48de 8DE3      		ldi r24,lo8(61)
 10238 48e0 90E0      		ldi r25,hi8(61)
 10239 48e2 6AE3      		ldi r22,lo8(58)
 10240 48e4 70E0      		ldi r23,hi8(58)
 10241 48e6 4FEF      		ldi r20,lo8(-1)
 10242 48e8 0E94 0000 		call lcd_graphics_plot_pixel
 10243               	.LM1323:
 10244 48ec 8DE3      		ldi r24,lo8(61)
 10245 48ee 90E0      		ldi r25,hi8(61)
 10246 48f0 6BE3      		ldi r22,lo8(59)
 10247 48f2 70E0      		ldi r23,hi8(59)
 10248 48f4 4FEF      		ldi r20,lo8(-1)
 10249 48f6 0E94 0000 		call lcd_graphics_plot_pixel
 10250               	.LM1324:
 10251 48fa 8DE3      		ldi r24,lo8(61)
 10252 48fc 90E0      		ldi r25,hi8(61)
 10253 48fe 6CE3      		ldi r22,lo8(60)
 10254 4900 70E0      		ldi r23,hi8(60)
 10255 4902 4FEF      		ldi r20,lo8(-1)
 10256 4904 0E94 0000 		call lcd_graphics_plot_pixel
 10257               	.LM1325:
 10258 4908 8DE3      		ldi r24,lo8(61)
 10259 490a 90E0      		ldi r25,hi8(61)
 10260 490c 6DE3      		ldi r22,lo8(61)
 10261 490e 70E0      		ldi r23,hi8(61)
 10262 4910 4FEF      		ldi r20,lo8(-1)
 10263 4912 0E94 0000 		call lcd_graphics_plot_pixel
 10264               	.LM1326:
 10265 4916 8DE3      		ldi r24,lo8(61)
 10266 4918 90E0      		ldi r25,hi8(61)
 10267 491a 6EE3      		ldi r22,lo8(62)
 10268 491c 70E0      		ldi r23,hi8(62)
 10269 491e 4FEF      		ldi r20,lo8(-1)
 10270 4920 0E94 0000 		call lcd_graphics_plot_pixel
 10271               	.LM1327:
 10272 4924 8DE3      		ldi r24,lo8(61)
 10273 4926 90E0      		ldi r25,hi8(61)
 10274 4928 6FE3      		ldi r22,lo8(63)
 10275 492a 70E0      		ldi r23,hi8(63)
 10276 492c 4FEF      		ldi r20,lo8(-1)
 10277 492e 0E94 0000 		call lcd_graphics_plot_pixel
 10278               	.LM1328:
 10279 4932 8DE3      		ldi r24,lo8(61)
 10280 4934 90E0      		ldi r25,hi8(61)
 10281 4936 60E4      		ldi r22,lo8(64)
 10282 4938 70E0      		ldi r23,hi8(64)
 10283 493a 4FEF      		ldi r20,lo8(-1)
 10284 493c 0E94 0000 		call lcd_graphics_plot_pixel
 10285               	.LM1329:
 10286 4940 8DE3      		ldi r24,lo8(61)
 10287 4942 90E0      		ldi r25,hi8(61)
 10288 4944 61E4      		ldi r22,lo8(65)
 10289 4946 70E0      		ldi r23,hi8(65)
 10290 4948 4FEF      		ldi r20,lo8(-1)
 10291 494a 0E94 0000 		call lcd_graphics_plot_pixel
 10292               	.LM1330:
 10293 494e 8DE3      		ldi r24,lo8(61)
 10294 4950 90E0      		ldi r25,hi8(61)
 10295 4952 62E4      		ldi r22,lo8(66)
 10296 4954 70E0      		ldi r23,hi8(66)
 10297 4956 4FEF      		ldi r20,lo8(-1)
 10298 4958 0E94 0000 		call lcd_graphics_plot_pixel
 10299               	.LM1331:
 10300 495c 8DE3      		ldi r24,lo8(61)
 10301 495e 90E0      		ldi r25,hi8(61)
 10302 4960 63E4      		ldi r22,lo8(67)
 10303 4962 70E0      		ldi r23,hi8(67)
 10304 4964 4FEF      		ldi r20,lo8(-1)
 10305 4966 0E94 0000 		call lcd_graphics_plot_pixel
 10306               	.LM1332:
 10307 496a 8DE3      		ldi r24,lo8(61)
 10308 496c 90E0      		ldi r25,hi8(61)
 10309 496e 64E4      		ldi r22,lo8(68)
 10310 4970 70E0      		ldi r23,hi8(68)
 10311 4972 4FEF      		ldi r20,lo8(-1)
 10312 4974 0E94 0000 		call lcd_graphics_plot_pixel
 10313               	.LM1333:
 10314 4978 8DE3      		ldi r24,lo8(61)
 10315 497a 90E0      		ldi r25,hi8(61)
 10316 497c 65E4      		ldi r22,lo8(69)
 10317 497e 70E0      		ldi r23,hi8(69)
 10318 4980 4FEF      		ldi r20,lo8(-1)
 10319 4982 0E94 0000 		call lcd_graphics_plot_pixel
 10320               	.LM1334:
 10321 4986 8DE3      		ldi r24,lo8(61)
 10322 4988 90E0      		ldi r25,hi8(61)
 10323 498a 66E4      		ldi r22,lo8(70)
 10324 498c 70E0      		ldi r23,hi8(70)
 10325 498e 4FEF      		ldi r20,lo8(-1)
 10326 4990 0E94 0000 		call lcd_graphics_plot_pixel
 10327               	.LM1335:
 10328 4994 8DE3      		ldi r24,lo8(61)
 10329 4996 90E0      		ldi r25,hi8(61)
 10330 4998 67E4      		ldi r22,lo8(71)
 10331 499a 70E0      		ldi r23,hi8(71)
 10332 499c 4FEF      		ldi r20,lo8(-1)
 10333 499e 0E94 0000 		call lcd_graphics_plot_pixel
 10334               	.LM1336:
 10335 49a2 8DE3      		ldi r24,lo8(61)
 10336 49a4 90E0      		ldi r25,hi8(61)
 10337 49a6 68E4      		ldi r22,lo8(72)
 10338 49a8 70E0      		ldi r23,hi8(72)
 10339 49aa 4FEF      		ldi r20,lo8(-1)
 10340 49ac 0E94 0000 		call lcd_graphics_plot_pixel
 10341               	.LM1337:
 10342 49b0 8EE3      		ldi r24,lo8(62)
 10343 49b2 90E0      		ldi r25,hi8(62)
 10344 49b4 6AE0      		ldi r22,lo8(10)
 10345 49b6 70E0      		ldi r23,hi8(10)
 10346 49b8 4FEF      		ldi r20,lo8(-1)
 10347 49ba 0E94 0000 		call lcd_graphics_plot_pixel
 10348               	.LM1338:
 10349 49be 8EE3      		ldi r24,lo8(62)
 10350 49c0 90E0      		ldi r25,hi8(62)
 10351 49c2 6BE0      		ldi r22,lo8(11)
 10352 49c4 70E0      		ldi r23,hi8(11)
 10353 49c6 4FEF      		ldi r20,lo8(-1)
 10354 49c8 0E94 0000 		call lcd_graphics_plot_pixel
 10355               	.LM1339:
 10356 49cc 8EE3      		ldi r24,lo8(62)
 10357 49ce 90E0      		ldi r25,hi8(62)
 10358 49d0 6CE0      		ldi r22,lo8(12)
 10359 49d2 70E0      		ldi r23,hi8(12)
 10360 49d4 4FEF      		ldi r20,lo8(-1)
 10361 49d6 0E94 0000 		call lcd_graphics_plot_pixel
 10362               	.LM1340:
 10363 49da 8EE3      		ldi r24,lo8(62)
 10364 49dc 90E0      		ldi r25,hi8(62)
 10365 49de 6DE0      		ldi r22,lo8(13)
 10366 49e0 70E0      		ldi r23,hi8(13)
 10367 49e2 4FEF      		ldi r20,lo8(-1)
 10368 49e4 0E94 0000 		call lcd_graphics_plot_pixel
 10369               	.LM1341:
 10370 49e8 8EE3      		ldi r24,lo8(62)
 10371 49ea 90E0      		ldi r25,hi8(62)
 10372 49ec 6EE0      		ldi r22,lo8(14)
 10373 49ee 70E0      		ldi r23,hi8(14)
 10374 49f0 4FEF      		ldi r20,lo8(-1)
 10375 49f2 0E94 0000 		call lcd_graphics_plot_pixel
 10376               	.LM1342:
 10377 49f6 8EE3      		ldi r24,lo8(62)
 10378 49f8 90E0      		ldi r25,hi8(62)
 10379 49fa 6FE0      		ldi r22,lo8(15)
 10380 49fc 70E0      		ldi r23,hi8(15)
 10381 49fe 4FEF      		ldi r20,lo8(-1)
 10382 4a00 0E94 0000 		call lcd_graphics_plot_pixel
 10383               	.LM1343:
 10384 4a04 8EE3      		ldi r24,lo8(62)
 10385 4a06 90E0      		ldi r25,hi8(62)
 10386 4a08 60E1      		ldi r22,lo8(16)
 10387 4a0a 70E0      		ldi r23,hi8(16)
 10388 4a0c 4FEF      		ldi r20,lo8(-1)
 10389 4a0e 0E94 0000 		call lcd_graphics_plot_pixel
 10390               	.LM1344:
 10391 4a12 8EE3      		ldi r24,lo8(62)
 10392 4a14 90E0      		ldi r25,hi8(62)
 10393 4a16 61E1      		ldi r22,lo8(17)
 10394 4a18 70E0      		ldi r23,hi8(17)
 10395 4a1a 4FEF      		ldi r20,lo8(-1)
 10396 4a1c 0E94 0000 		call lcd_graphics_plot_pixel
 10397               	.LM1345:
 10398 4a20 8EE3      		ldi r24,lo8(62)
 10399 4a22 90E0      		ldi r25,hi8(62)
 10400 4a24 62E1      		ldi r22,lo8(18)
 10401 4a26 70E0      		ldi r23,hi8(18)
 10402 4a28 4FEF      		ldi r20,lo8(-1)
 10403 4a2a 0E94 0000 		call lcd_graphics_plot_pixel
 10404               	.LM1346:
 10405 4a2e 8EE3      		ldi r24,lo8(62)
 10406 4a30 90E0      		ldi r25,hi8(62)
 10407 4a32 63E1      		ldi r22,lo8(19)
 10408 4a34 70E0      		ldi r23,hi8(19)
 10409 4a36 4FEF      		ldi r20,lo8(-1)
 10410 4a38 0E94 0000 		call lcd_graphics_plot_pixel
 10411               	.LM1347:
 10412 4a3c 8EE3      		ldi r24,lo8(62)
 10413 4a3e 90E0      		ldi r25,hi8(62)
 10414 4a40 64E1      		ldi r22,lo8(20)
 10415 4a42 70E0      		ldi r23,hi8(20)
 10416 4a44 4FEF      		ldi r20,lo8(-1)
 10417 4a46 0E94 0000 		call lcd_graphics_plot_pixel
 10418               	.LM1348:
 10419 4a4a 8EE3      		ldi r24,lo8(62)
 10420 4a4c 90E0      		ldi r25,hi8(62)
 10421 4a4e 65E1      		ldi r22,lo8(21)
 10422 4a50 70E0      		ldi r23,hi8(21)
 10423 4a52 4FEF      		ldi r20,lo8(-1)
 10424 4a54 0E94 0000 		call lcd_graphics_plot_pixel
 10425               	.LM1349:
 10426 4a58 8EE3      		ldi r24,lo8(62)
 10427 4a5a 90E0      		ldi r25,hi8(62)
 10428 4a5c 66E1      		ldi r22,lo8(22)
 10429 4a5e 70E0      		ldi r23,hi8(22)
 10430 4a60 4FEF      		ldi r20,lo8(-1)
 10431 4a62 0E94 0000 		call lcd_graphics_plot_pixel
 10432               	.LM1350:
 10433 4a66 8EE3      		ldi r24,lo8(62)
 10434 4a68 90E0      		ldi r25,hi8(62)
 10435 4a6a 67E1      		ldi r22,lo8(23)
 10436 4a6c 70E0      		ldi r23,hi8(23)
 10437 4a6e 4FEF      		ldi r20,lo8(-1)
 10438 4a70 0E94 0000 		call lcd_graphics_plot_pixel
 10439               	.LM1351:
 10440 4a74 8EE3      		ldi r24,lo8(62)
 10441 4a76 90E0      		ldi r25,hi8(62)
 10442 4a78 68E1      		ldi r22,lo8(24)
 10443 4a7a 70E0      		ldi r23,hi8(24)
 10444 4a7c 4FEF      		ldi r20,lo8(-1)
 10445 4a7e 0E94 0000 		call lcd_graphics_plot_pixel
 10446               	.LM1352:
 10447 4a82 8EE3      		ldi r24,lo8(62)
 10448 4a84 90E0      		ldi r25,hi8(62)
 10449 4a86 69E1      		ldi r22,lo8(25)
 10450 4a88 70E0      		ldi r23,hi8(25)
 10451 4a8a 4FEF      		ldi r20,lo8(-1)
 10452 4a8c 0E94 0000 		call lcd_graphics_plot_pixel
 10453               	.LM1353:
 10454 4a90 8EE3      		ldi r24,lo8(62)
 10455 4a92 90E0      		ldi r25,hi8(62)
 10456 4a94 6AE1      		ldi r22,lo8(26)
 10457 4a96 70E0      		ldi r23,hi8(26)
 10458 4a98 4FEF      		ldi r20,lo8(-1)
 10459 4a9a 0E94 0000 		call lcd_graphics_plot_pixel
 10460               	.LM1354:
 10461 4a9e 8EE3      		ldi r24,lo8(62)
 10462 4aa0 90E0      		ldi r25,hi8(62)
 10463 4aa2 6BE1      		ldi r22,lo8(27)
 10464 4aa4 70E0      		ldi r23,hi8(27)
 10465 4aa6 4FEF      		ldi r20,lo8(-1)
 10466 4aa8 0E94 0000 		call lcd_graphics_plot_pixel
 10467               	.LM1355:
 10468 4aac 8EE3      		ldi r24,lo8(62)
 10469 4aae 90E0      		ldi r25,hi8(62)
 10470 4ab0 6CE1      		ldi r22,lo8(28)
 10471 4ab2 70E0      		ldi r23,hi8(28)
 10472 4ab4 4FEF      		ldi r20,lo8(-1)
 10473 4ab6 0E94 0000 		call lcd_graphics_plot_pixel
 10474               	.LM1356:
 10475 4aba 8EE3      		ldi r24,lo8(62)
 10476 4abc 90E0      		ldi r25,hi8(62)
 10477 4abe 6DE1      		ldi r22,lo8(29)
 10478 4ac0 70E0      		ldi r23,hi8(29)
 10479 4ac2 4FEF      		ldi r20,lo8(-1)
 10480 4ac4 0E94 0000 		call lcd_graphics_plot_pixel
 10481               	.LM1357:
 10482 4ac8 8EE3      		ldi r24,lo8(62)
 10483 4aca 90E0      		ldi r25,hi8(62)
 10484 4acc 6EE1      		ldi r22,lo8(30)
 10485 4ace 70E0      		ldi r23,hi8(30)
 10486 4ad0 4FEF      		ldi r20,lo8(-1)
 10487 4ad2 0E94 0000 		call lcd_graphics_plot_pixel
 10488               	.LM1358:
 10489 4ad6 8EE3      		ldi r24,lo8(62)
 10490 4ad8 90E0      		ldi r25,hi8(62)
 10491 4ada 6FE1      		ldi r22,lo8(31)
 10492 4adc 70E0      		ldi r23,hi8(31)
 10493 4ade 4FEF      		ldi r20,lo8(-1)
 10494 4ae0 0E94 0000 		call lcd_graphics_plot_pixel
 10495               	.LM1359:
 10496 4ae4 8EE3      		ldi r24,lo8(62)
 10497 4ae6 90E0      		ldi r25,hi8(62)
 10498 4ae8 60E2      		ldi r22,lo8(32)
 10499 4aea 70E0      		ldi r23,hi8(32)
 10500 4aec 4FEF      		ldi r20,lo8(-1)
 10501 4aee 0E94 0000 		call lcd_graphics_plot_pixel
 10502               	.LM1360:
 10503 4af2 8EE3      		ldi r24,lo8(62)
 10504 4af4 90E0      		ldi r25,hi8(62)
 10505 4af6 61E2      		ldi r22,lo8(33)
 10506 4af8 70E0      		ldi r23,hi8(33)
 10507 4afa 4FEF      		ldi r20,lo8(-1)
 10508 4afc 0E94 0000 		call lcd_graphics_plot_pixel
 10509               	.LM1361:
 10510 4b00 8EE3      		ldi r24,lo8(62)
 10511 4b02 90E0      		ldi r25,hi8(62)
 10512 4b04 62E2      		ldi r22,lo8(34)
 10513 4b06 70E0      		ldi r23,hi8(34)
 10514 4b08 4FEF      		ldi r20,lo8(-1)
 10515 4b0a 0E94 0000 		call lcd_graphics_plot_pixel
 10516               	.LM1362:
 10517 4b0e 8EE3      		ldi r24,lo8(62)
 10518 4b10 90E0      		ldi r25,hi8(62)
 10519 4b12 63E2      		ldi r22,lo8(35)
 10520 4b14 70E0      		ldi r23,hi8(35)
 10521 4b16 4FEF      		ldi r20,lo8(-1)
 10522 4b18 0E94 0000 		call lcd_graphics_plot_pixel
 10523               	.LM1363:
 10524 4b1c 8EE3      		ldi r24,lo8(62)
 10525 4b1e 90E0      		ldi r25,hi8(62)
 10526 4b20 64E2      		ldi r22,lo8(36)
 10527 4b22 70E0      		ldi r23,hi8(36)
 10528 4b24 4FEF      		ldi r20,lo8(-1)
 10529 4b26 0E94 0000 		call lcd_graphics_plot_pixel
 10530               	.LM1364:
 10531 4b2a 8EE3      		ldi r24,lo8(62)
 10532 4b2c 90E0      		ldi r25,hi8(62)
 10533 4b2e 65E2      		ldi r22,lo8(37)
 10534 4b30 70E0      		ldi r23,hi8(37)
 10535 4b32 4FEF      		ldi r20,lo8(-1)
 10536 4b34 0E94 0000 		call lcd_graphics_plot_pixel
 10537               	.LM1365:
 10538 4b38 8EE3      		ldi r24,lo8(62)
 10539 4b3a 90E0      		ldi r25,hi8(62)
 10540 4b3c 66E2      		ldi r22,lo8(38)
 10541 4b3e 70E0      		ldi r23,hi8(38)
 10542 4b40 4FEF      		ldi r20,lo8(-1)
 10543 4b42 0E94 0000 		call lcd_graphics_plot_pixel
 10544               	.LM1366:
 10545 4b46 8EE3      		ldi r24,lo8(62)
 10546 4b48 90E0      		ldi r25,hi8(62)
 10547 4b4a 67E2      		ldi r22,lo8(39)
 10548 4b4c 70E0      		ldi r23,hi8(39)
 10549 4b4e 4FEF      		ldi r20,lo8(-1)
 10550 4b50 0E94 0000 		call lcd_graphics_plot_pixel
 10551               	.LM1367:
 10552 4b54 8EE3      		ldi r24,lo8(62)
 10553 4b56 90E0      		ldi r25,hi8(62)
 10554 4b58 68E2      		ldi r22,lo8(40)
 10555 4b5a 70E0      		ldi r23,hi8(40)
 10556 4b5c 4FEF      		ldi r20,lo8(-1)
 10557 4b5e 0E94 0000 		call lcd_graphics_plot_pixel
 10558               	.LM1368:
 10559 4b62 8EE3      		ldi r24,lo8(62)
 10560 4b64 90E0      		ldi r25,hi8(62)
 10561 4b66 69E2      		ldi r22,lo8(41)
 10562 4b68 70E0      		ldi r23,hi8(41)
 10563 4b6a 4FEF      		ldi r20,lo8(-1)
 10564 4b6c 0E94 0000 		call lcd_graphics_plot_pixel
 10565               	.LM1369:
 10566 4b70 8EE3      		ldi r24,lo8(62)
 10567 4b72 90E0      		ldi r25,hi8(62)
 10568 4b74 6AE2      		ldi r22,lo8(42)
 10569 4b76 70E0      		ldi r23,hi8(42)
 10570 4b78 4FEF      		ldi r20,lo8(-1)
 10571 4b7a 0E94 0000 		call lcd_graphics_plot_pixel
 10572               	.LM1370:
 10573 4b7e 8EE3      		ldi r24,lo8(62)
 10574 4b80 90E0      		ldi r25,hi8(62)
 10575 4b82 6BE2      		ldi r22,lo8(43)
 10576 4b84 70E0      		ldi r23,hi8(43)
 10577 4b86 4FEF      		ldi r20,lo8(-1)
 10578 4b88 0E94 0000 		call lcd_graphics_plot_pixel
 10579               	.LM1371:
 10580 4b8c 8EE3      		ldi r24,lo8(62)
 10581 4b8e 90E0      		ldi r25,hi8(62)
 10582 4b90 6CE2      		ldi r22,lo8(44)
 10583 4b92 70E0      		ldi r23,hi8(44)
 10584 4b94 4FEF      		ldi r20,lo8(-1)
 10585 4b96 0E94 0000 		call lcd_graphics_plot_pixel
 10586               	.LM1372:
 10587 4b9a 8EE3      		ldi r24,lo8(62)
 10588 4b9c 90E0      		ldi r25,hi8(62)
 10589 4b9e 6DE2      		ldi r22,lo8(45)
 10590 4ba0 70E0      		ldi r23,hi8(45)
 10591 4ba2 4FEF      		ldi r20,lo8(-1)
 10592 4ba4 0E94 0000 		call lcd_graphics_plot_pixel
 10593               	.LM1373:
 10594 4ba8 8EE3      		ldi r24,lo8(62)
 10595 4baa 90E0      		ldi r25,hi8(62)
 10596 4bac 6EE2      		ldi r22,lo8(46)
 10597 4bae 70E0      		ldi r23,hi8(46)
 10598 4bb0 4FEF      		ldi r20,lo8(-1)
 10599 4bb2 0E94 0000 		call lcd_graphics_plot_pixel
 10600               	.LM1374:
 10601 4bb6 8EE3      		ldi r24,lo8(62)
 10602 4bb8 90E0      		ldi r25,hi8(62)
 10603 4bba 6FE2      		ldi r22,lo8(47)
 10604 4bbc 70E0      		ldi r23,hi8(47)
 10605 4bbe 4FEF      		ldi r20,lo8(-1)
 10606 4bc0 0E94 0000 		call lcd_graphics_plot_pixel
 10607               	.LM1375:
 10608 4bc4 8EE3      		ldi r24,lo8(62)
 10609 4bc6 90E0      		ldi r25,hi8(62)
 10610 4bc8 60E3      		ldi r22,lo8(48)
 10611 4bca 70E0      		ldi r23,hi8(48)
 10612 4bcc 4FEF      		ldi r20,lo8(-1)
 10613 4bce 0E94 0000 		call lcd_graphics_plot_pixel
 10614               	.LM1376:
 10615 4bd2 8EE3      		ldi r24,lo8(62)
 10616 4bd4 90E0      		ldi r25,hi8(62)
 10617 4bd6 61E3      		ldi r22,lo8(49)
 10618 4bd8 70E0      		ldi r23,hi8(49)
 10619 4bda 4FEF      		ldi r20,lo8(-1)
 10620 4bdc 0E94 0000 		call lcd_graphics_plot_pixel
 10621               	.LM1377:
 10622 4be0 8EE3      		ldi r24,lo8(62)
 10623 4be2 90E0      		ldi r25,hi8(62)
 10624 4be4 62E3      		ldi r22,lo8(50)
 10625 4be6 70E0      		ldi r23,hi8(50)
 10626 4be8 4FEF      		ldi r20,lo8(-1)
 10627 4bea 0E94 0000 		call lcd_graphics_plot_pixel
 10628               	.LM1378:
 10629 4bee 8EE3      		ldi r24,lo8(62)
 10630 4bf0 90E0      		ldi r25,hi8(62)
 10631 4bf2 63E3      		ldi r22,lo8(51)
 10632 4bf4 70E0      		ldi r23,hi8(51)
 10633 4bf6 4FEF      		ldi r20,lo8(-1)
 10634 4bf8 0E94 0000 		call lcd_graphics_plot_pixel
 10635               	.LM1379:
 10636 4bfc 8EE3      		ldi r24,lo8(62)
 10637 4bfe 90E0      		ldi r25,hi8(62)
 10638 4c00 64E3      		ldi r22,lo8(52)
 10639 4c02 70E0      		ldi r23,hi8(52)
 10640 4c04 4FEF      		ldi r20,lo8(-1)
 10641 4c06 0E94 0000 		call lcd_graphics_plot_pixel
 10642               	.LM1380:
 10643 4c0a 8EE3      		ldi r24,lo8(62)
 10644 4c0c 90E0      		ldi r25,hi8(62)
 10645 4c0e 65E3      		ldi r22,lo8(53)
 10646 4c10 70E0      		ldi r23,hi8(53)
 10647 4c12 4FEF      		ldi r20,lo8(-1)
 10648 4c14 0E94 0000 		call lcd_graphics_plot_pixel
 10649               	.LM1381:
 10650 4c18 8EE3      		ldi r24,lo8(62)
 10651 4c1a 90E0      		ldi r25,hi8(62)
 10652 4c1c 66E3      		ldi r22,lo8(54)
 10653 4c1e 70E0      		ldi r23,hi8(54)
 10654 4c20 4FEF      		ldi r20,lo8(-1)
 10655 4c22 0E94 0000 		call lcd_graphics_plot_pixel
 10656               	.LM1382:
 10657 4c26 8EE3      		ldi r24,lo8(62)
 10658 4c28 90E0      		ldi r25,hi8(62)
 10659 4c2a 67E3      		ldi r22,lo8(55)
 10660 4c2c 70E0      		ldi r23,hi8(55)
 10661 4c2e 4FEF      		ldi r20,lo8(-1)
 10662 4c30 0E94 0000 		call lcd_graphics_plot_pixel
 10663               	.LM1383:
 10664 4c34 8EE3      		ldi r24,lo8(62)
 10665 4c36 90E0      		ldi r25,hi8(62)
 10666 4c38 68E3      		ldi r22,lo8(56)
 10667 4c3a 70E0      		ldi r23,hi8(56)
 10668 4c3c 4FEF      		ldi r20,lo8(-1)
 10669 4c3e 0E94 0000 		call lcd_graphics_plot_pixel
 10670               	.LM1384:
 10671 4c42 8EE3      		ldi r24,lo8(62)
 10672 4c44 90E0      		ldi r25,hi8(62)
 10673 4c46 69E3      		ldi r22,lo8(57)
 10674 4c48 70E0      		ldi r23,hi8(57)
 10675 4c4a 4FEF      		ldi r20,lo8(-1)
 10676 4c4c 0E94 0000 		call lcd_graphics_plot_pixel
 10677               	.LM1385:
 10678 4c50 8EE3      		ldi r24,lo8(62)
 10679 4c52 90E0      		ldi r25,hi8(62)
 10680 4c54 6AE3      		ldi r22,lo8(58)
 10681 4c56 70E0      		ldi r23,hi8(58)
 10682 4c58 4FEF      		ldi r20,lo8(-1)
 10683 4c5a 0E94 0000 		call lcd_graphics_plot_pixel
 10684               	.LM1386:
 10685 4c5e 8EE3      		ldi r24,lo8(62)
 10686 4c60 90E0      		ldi r25,hi8(62)
 10687 4c62 6BE3      		ldi r22,lo8(59)
 10688 4c64 70E0      		ldi r23,hi8(59)
 10689 4c66 4FEF      		ldi r20,lo8(-1)
 10690 4c68 0E94 0000 		call lcd_graphics_plot_pixel
 10691               	.LM1387:
 10692 4c6c 8EE3      		ldi r24,lo8(62)
 10693 4c6e 90E0      		ldi r25,hi8(62)
 10694 4c70 6CE3      		ldi r22,lo8(60)
 10695 4c72 70E0      		ldi r23,hi8(60)
 10696 4c74 4FEF      		ldi r20,lo8(-1)
 10697 4c76 0E94 0000 		call lcd_graphics_plot_pixel
 10698               	.LM1388:
 10699 4c7a 8EE3      		ldi r24,lo8(62)
 10700 4c7c 90E0      		ldi r25,hi8(62)
 10701 4c7e 6DE3      		ldi r22,lo8(61)
 10702 4c80 70E0      		ldi r23,hi8(61)
 10703 4c82 4FEF      		ldi r20,lo8(-1)
 10704 4c84 0E94 0000 		call lcd_graphics_plot_pixel
 10705               	.LM1389:
 10706 4c88 8EE3      		ldi r24,lo8(62)
 10707 4c8a 90E0      		ldi r25,hi8(62)
 10708 4c8c 6EE3      		ldi r22,lo8(62)
 10709 4c8e 70E0      		ldi r23,hi8(62)
 10710 4c90 4FEF      		ldi r20,lo8(-1)
 10711 4c92 0E94 0000 		call lcd_graphics_plot_pixel
 10712               	.LM1390:
 10713 4c96 8EE3      		ldi r24,lo8(62)
 10714 4c98 90E0      		ldi r25,hi8(62)
 10715 4c9a 6FE3      		ldi r22,lo8(63)
 10716 4c9c 70E0      		ldi r23,hi8(63)
 10717 4c9e 4FEF      		ldi r20,lo8(-1)
 10718 4ca0 0E94 0000 		call lcd_graphics_plot_pixel
 10719               	.LM1391:
 10720 4ca4 8EE3      		ldi r24,lo8(62)
 10721 4ca6 90E0      		ldi r25,hi8(62)
 10722 4ca8 60E4      		ldi r22,lo8(64)
 10723 4caa 70E0      		ldi r23,hi8(64)
 10724 4cac 4FEF      		ldi r20,lo8(-1)
 10725 4cae 0E94 0000 		call lcd_graphics_plot_pixel
 10726               	.LM1392:
 10727 4cb2 8EE3      		ldi r24,lo8(62)
 10728 4cb4 90E0      		ldi r25,hi8(62)
 10729 4cb6 61E4      		ldi r22,lo8(65)
 10730 4cb8 70E0      		ldi r23,hi8(65)
 10731 4cba 4FEF      		ldi r20,lo8(-1)
 10732 4cbc 0E94 0000 		call lcd_graphics_plot_pixel
 10733               	.LM1393:
 10734 4cc0 8EE3      		ldi r24,lo8(62)
 10735 4cc2 90E0      		ldi r25,hi8(62)
 10736 4cc4 62E4      		ldi r22,lo8(66)
 10737 4cc6 70E0      		ldi r23,hi8(66)
 10738 4cc8 4FEF      		ldi r20,lo8(-1)
 10739 4cca 0E94 0000 		call lcd_graphics_plot_pixel
 10740               	.LM1394:
 10741 4cce 8EE3      		ldi r24,lo8(62)
 10742 4cd0 90E0      		ldi r25,hi8(62)
 10743 4cd2 63E4      		ldi r22,lo8(67)
 10744 4cd4 70E0      		ldi r23,hi8(67)
 10745 4cd6 4FEF      		ldi r20,lo8(-1)
 10746 4cd8 0E94 0000 		call lcd_graphics_plot_pixel
 10747               	.LM1395:
 10748 4cdc 8EE3      		ldi r24,lo8(62)
 10749 4cde 90E0      		ldi r25,hi8(62)
 10750 4ce0 64E4      		ldi r22,lo8(68)
 10751 4ce2 70E0      		ldi r23,hi8(68)
 10752 4ce4 4FEF      		ldi r20,lo8(-1)
 10753 4ce6 0E94 0000 		call lcd_graphics_plot_pixel
 10754               	.LM1396:
 10755 4cea 8EE3      		ldi r24,lo8(62)
 10756 4cec 90E0      		ldi r25,hi8(62)
 10757 4cee 65E4      		ldi r22,lo8(69)
 10758 4cf0 70E0      		ldi r23,hi8(69)
 10759 4cf2 4FEF      		ldi r20,lo8(-1)
 10760 4cf4 0E94 0000 		call lcd_graphics_plot_pixel
 10761               	.LM1397:
 10762 4cf8 8EE3      		ldi r24,lo8(62)
 10763 4cfa 90E0      		ldi r25,hi8(62)
 10764 4cfc 66E4      		ldi r22,lo8(70)
 10765 4cfe 70E0      		ldi r23,hi8(70)
 10766 4d00 4FEF      		ldi r20,lo8(-1)
 10767 4d02 0E94 0000 		call lcd_graphics_plot_pixel
 10768               	.LM1398:
 10769 4d06 8EE3      		ldi r24,lo8(62)
 10770 4d08 90E0      		ldi r25,hi8(62)
 10771 4d0a 67E4      		ldi r22,lo8(71)
 10772 4d0c 70E0      		ldi r23,hi8(71)
 10773 4d0e 4FEF      		ldi r20,lo8(-1)
 10774 4d10 0E94 0000 		call lcd_graphics_plot_pixel
 10775               	.LM1399:
 10776 4d14 8EE3      		ldi r24,lo8(62)
 10777 4d16 90E0      		ldi r25,hi8(62)
 10778 4d18 68E4      		ldi r22,lo8(72)
 10779 4d1a 70E0      		ldi r23,hi8(72)
 10780 4d1c 4FEF      		ldi r20,lo8(-1)
 10781 4d1e 0E94 0000 		call lcd_graphics_plot_pixel
 10782               	.LM1400:
 10783 4d22 8EE3      		ldi r24,lo8(62)
 10784 4d24 90E0      		ldi r25,hi8(62)
 10785 4d26 69E4      		ldi r22,lo8(73)
 10786 4d28 70E0      		ldi r23,hi8(73)
 10787 4d2a 4FEF      		ldi r20,lo8(-1)
 10788 4d2c 0E94 0000 		call lcd_graphics_plot_pixel
 10789               	.LM1401:
 10790 4d30 8EE3      		ldi r24,lo8(62)
 10791 4d32 90E0      		ldi r25,hi8(62)
 10792 4d34 6AE4      		ldi r22,lo8(74)
 10793 4d36 70E0      		ldi r23,hi8(74)
 10794 4d38 4FEF      		ldi r20,lo8(-1)
 10795 4d3a 0E94 0000 		call lcd_graphics_plot_pixel
 10796               	.LM1402:
 10797 4d3e 8FE3      		ldi r24,lo8(63)
 10798 4d40 90E0      		ldi r25,hi8(63)
 10799 4d42 69E0      		ldi r22,lo8(9)
 10800 4d44 70E0      		ldi r23,hi8(9)
 10801 4d46 4FEF      		ldi r20,lo8(-1)
 10802 4d48 0E94 0000 		call lcd_graphics_plot_pixel
 10803               	.LM1403:
 10804 4d4c 8FE3      		ldi r24,lo8(63)
 10805 4d4e 90E0      		ldi r25,hi8(63)
 10806 4d50 6AE0      		ldi r22,lo8(10)
 10807 4d52 70E0      		ldi r23,hi8(10)
 10808 4d54 4FEF      		ldi r20,lo8(-1)
 10809 4d56 0E94 0000 		call lcd_graphics_plot_pixel
 10810               	.LM1404:
 10811 4d5a 8FE3      		ldi r24,lo8(63)
 10812 4d5c 90E0      		ldi r25,hi8(63)
 10813 4d5e 6BE0      		ldi r22,lo8(11)
 10814 4d60 70E0      		ldi r23,hi8(11)
 10815 4d62 4FEF      		ldi r20,lo8(-1)
 10816 4d64 0E94 0000 		call lcd_graphics_plot_pixel
 10817               	.LM1405:
 10818 4d68 8FE3      		ldi r24,lo8(63)
 10819 4d6a 90E0      		ldi r25,hi8(63)
 10820 4d6c 6CE0      		ldi r22,lo8(12)
 10821 4d6e 70E0      		ldi r23,hi8(12)
 10822 4d70 4FEF      		ldi r20,lo8(-1)
 10823 4d72 0E94 0000 		call lcd_graphics_plot_pixel
 10824               	.LM1406:
 10825 4d76 8FE3      		ldi r24,lo8(63)
 10826 4d78 90E0      		ldi r25,hi8(63)
 10827 4d7a 6DE0      		ldi r22,lo8(13)
 10828 4d7c 70E0      		ldi r23,hi8(13)
 10829 4d7e 4FEF      		ldi r20,lo8(-1)
 10830 4d80 0E94 0000 		call lcd_graphics_plot_pixel
 10831               	.LM1407:
 10832 4d84 8FE3      		ldi r24,lo8(63)
 10833 4d86 90E0      		ldi r25,hi8(63)
 10834 4d88 6EE0      		ldi r22,lo8(14)
 10835 4d8a 70E0      		ldi r23,hi8(14)
 10836 4d8c 4FEF      		ldi r20,lo8(-1)
 10837 4d8e 0E94 0000 		call lcd_graphics_plot_pixel
 10838               	.LM1408:
 10839 4d92 8FE3      		ldi r24,lo8(63)
 10840 4d94 90E0      		ldi r25,hi8(63)
 10841 4d96 6FE0      		ldi r22,lo8(15)
 10842 4d98 70E0      		ldi r23,hi8(15)
 10843 4d9a 4FEF      		ldi r20,lo8(-1)
 10844 4d9c 0E94 0000 		call lcd_graphics_plot_pixel
 10845               	.LM1409:
 10846 4da0 8FE3      		ldi r24,lo8(63)
 10847 4da2 90E0      		ldi r25,hi8(63)
 10848 4da4 60E1      		ldi r22,lo8(16)
 10849 4da6 70E0      		ldi r23,hi8(16)
 10850 4da8 4FEF      		ldi r20,lo8(-1)
 10851 4daa 0E94 0000 		call lcd_graphics_plot_pixel
 10852               	.LM1410:
 10853 4dae 8FE3      		ldi r24,lo8(63)
 10854 4db0 90E0      		ldi r25,hi8(63)
 10855 4db2 61E1      		ldi r22,lo8(17)
 10856 4db4 70E0      		ldi r23,hi8(17)
 10857 4db6 4FEF      		ldi r20,lo8(-1)
 10858 4db8 0E94 0000 		call lcd_graphics_plot_pixel
 10859               	.LM1411:
 10860 4dbc 8FE3      		ldi r24,lo8(63)
 10861 4dbe 90E0      		ldi r25,hi8(63)
 10862 4dc0 62E1      		ldi r22,lo8(18)
 10863 4dc2 70E0      		ldi r23,hi8(18)
 10864 4dc4 4FEF      		ldi r20,lo8(-1)
 10865 4dc6 0E94 0000 		call lcd_graphics_plot_pixel
 10866               	.LM1412:
 10867 4dca 8FE3      		ldi r24,lo8(63)
 10868 4dcc 90E0      		ldi r25,hi8(63)
 10869 4dce 63E1      		ldi r22,lo8(19)
 10870 4dd0 70E0      		ldi r23,hi8(19)
 10871 4dd2 4FEF      		ldi r20,lo8(-1)
 10872 4dd4 0E94 0000 		call lcd_graphics_plot_pixel
 10873               	.LM1413:
 10874 4dd8 8FE3      		ldi r24,lo8(63)
 10875 4dda 90E0      		ldi r25,hi8(63)
 10876 4ddc 64E1      		ldi r22,lo8(20)
 10877 4dde 70E0      		ldi r23,hi8(20)
 10878 4de0 4FEF      		ldi r20,lo8(-1)
 10879 4de2 0E94 0000 		call lcd_graphics_plot_pixel
 10880               	.LM1414:
 10881 4de6 8FE3      		ldi r24,lo8(63)
 10882 4de8 90E0      		ldi r25,hi8(63)
 10883 4dea 65E1      		ldi r22,lo8(21)
 10884 4dec 70E0      		ldi r23,hi8(21)
 10885 4dee 4FEF      		ldi r20,lo8(-1)
 10886 4df0 0E94 0000 		call lcd_graphics_plot_pixel
 10887               	.LM1415:
 10888 4df4 8FE3      		ldi r24,lo8(63)
 10889 4df6 90E0      		ldi r25,hi8(63)
 10890 4df8 66E1      		ldi r22,lo8(22)
 10891 4dfa 70E0      		ldi r23,hi8(22)
 10892 4dfc 4FEF      		ldi r20,lo8(-1)
 10893 4dfe 0E94 0000 		call lcd_graphics_plot_pixel
 10894               	.LM1416:
 10895 4e02 8FE3      		ldi r24,lo8(63)
 10896 4e04 90E0      		ldi r25,hi8(63)
 10897 4e06 67E1      		ldi r22,lo8(23)
 10898 4e08 70E0      		ldi r23,hi8(23)
 10899 4e0a 4FEF      		ldi r20,lo8(-1)
 10900 4e0c 0E94 0000 		call lcd_graphics_plot_pixel
 10901               	.LM1417:
 10902 4e10 8FE3      		ldi r24,lo8(63)
 10903 4e12 90E0      		ldi r25,hi8(63)
 10904 4e14 68E1      		ldi r22,lo8(24)
 10905 4e16 70E0      		ldi r23,hi8(24)
 10906 4e18 4FEF      		ldi r20,lo8(-1)
 10907 4e1a 0E94 0000 		call lcd_graphics_plot_pixel
 10908               	.LM1418:
 10909 4e1e 8FE3      		ldi r24,lo8(63)
 10910 4e20 90E0      		ldi r25,hi8(63)
 10911 4e22 69E1      		ldi r22,lo8(25)
 10912 4e24 70E0      		ldi r23,hi8(25)
 10913 4e26 4FEF      		ldi r20,lo8(-1)
 10914 4e28 0E94 0000 		call lcd_graphics_plot_pixel
 10915               	.LM1419:
 10916 4e2c 8FE3      		ldi r24,lo8(63)
 10917 4e2e 90E0      		ldi r25,hi8(63)
 10918 4e30 6AE1      		ldi r22,lo8(26)
 10919 4e32 70E0      		ldi r23,hi8(26)
 10920 4e34 4FEF      		ldi r20,lo8(-1)
 10921 4e36 0E94 0000 		call lcd_graphics_plot_pixel
 10922               	.LM1420:
 10923 4e3a 8FE3      		ldi r24,lo8(63)
 10924 4e3c 90E0      		ldi r25,hi8(63)
 10925 4e3e 6BE1      		ldi r22,lo8(27)
 10926 4e40 70E0      		ldi r23,hi8(27)
 10927 4e42 4FEF      		ldi r20,lo8(-1)
 10928 4e44 0E94 0000 		call lcd_graphics_plot_pixel
 10929               	.LM1421:
 10930 4e48 8FE3      		ldi r24,lo8(63)
 10931 4e4a 90E0      		ldi r25,hi8(63)
 10932 4e4c 6CE1      		ldi r22,lo8(28)
 10933 4e4e 70E0      		ldi r23,hi8(28)
 10934 4e50 4FEF      		ldi r20,lo8(-1)
 10935 4e52 0E94 0000 		call lcd_graphics_plot_pixel
 10936               	.LM1422:
 10937 4e56 8FE3      		ldi r24,lo8(63)
 10938 4e58 90E0      		ldi r25,hi8(63)
 10939 4e5a 6DE1      		ldi r22,lo8(29)
 10940 4e5c 70E0      		ldi r23,hi8(29)
 10941 4e5e 4FEF      		ldi r20,lo8(-1)
 10942 4e60 0E94 0000 		call lcd_graphics_plot_pixel
 10943               	.LM1423:
 10944 4e64 8FE3      		ldi r24,lo8(63)
 10945 4e66 90E0      		ldi r25,hi8(63)
 10946 4e68 6EE1      		ldi r22,lo8(30)
 10947 4e6a 70E0      		ldi r23,hi8(30)
 10948 4e6c 4FEF      		ldi r20,lo8(-1)
 10949 4e6e 0E94 0000 		call lcd_graphics_plot_pixel
 10950               	.LM1424:
 10951 4e72 8FE3      		ldi r24,lo8(63)
 10952 4e74 90E0      		ldi r25,hi8(63)
 10953 4e76 6FE1      		ldi r22,lo8(31)
 10954 4e78 70E0      		ldi r23,hi8(31)
 10955 4e7a 4FEF      		ldi r20,lo8(-1)
 10956 4e7c 0E94 0000 		call lcd_graphics_plot_pixel
 10957               	.LM1425:
 10958 4e80 8FE3      		ldi r24,lo8(63)
 10959 4e82 90E0      		ldi r25,hi8(63)
 10960 4e84 60E2      		ldi r22,lo8(32)
 10961 4e86 70E0      		ldi r23,hi8(32)
 10962 4e88 4FEF      		ldi r20,lo8(-1)
 10963 4e8a 0E94 0000 		call lcd_graphics_plot_pixel
 10964               	.LM1426:
 10965 4e8e 8FE3      		ldi r24,lo8(63)
 10966 4e90 90E0      		ldi r25,hi8(63)
 10967 4e92 61E2      		ldi r22,lo8(33)
 10968 4e94 70E0      		ldi r23,hi8(33)
 10969 4e96 4FEF      		ldi r20,lo8(-1)
 10970 4e98 0E94 0000 		call lcd_graphics_plot_pixel
 10971               	.LM1427:
 10972 4e9c 8FE3      		ldi r24,lo8(63)
 10973 4e9e 90E0      		ldi r25,hi8(63)
 10974 4ea0 62E2      		ldi r22,lo8(34)
 10975 4ea2 70E0      		ldi r23,hi8(34)
 10976 4ea4 4FEF      		ldi r20,lo8(-1)
 10977 4ea6 0E94 0000 		call lcd_graphics_plot_pixel
 10978               	.LM1428:
 10979 4eaa 8FE3      		ldi r24,lo8(63)
 10980 4eac 90E0      		ldi r25,hi8(63)
 10981 4eae 63E2      		ldi r22,lo8(35)
 10982 4eb0 70E0      		ldi r23,hi8(35)
 10983 4eb2 4FEF      		ldi r20,lo8(-1)
 10984 4eb4 0E94 0000 		call lcd_graphics_plot_pixel
 10985               	.LM1429:
 10986 4eb8 8FE3      		ldi r24,lo8(63)
 10987 4eba 90E0      		ldi r25,hi8(63)
 10988 4ebc 64E2      		ldi r22,lo8(36)
 10989 4ebe 70E0      		ldi r23,hi8(36)
 10990 4ec0 4FEF      		ldi r20,lo8(-1)
 10991 4ec2 0E94 0000 		call lcd_graphics_plot_pixel
 10992               	.LM1430:
 10993 4ec6 8FE3      		ldi r24,lo8(63)
 10994 4ec8 90E0      		ldi r25,hi8(63)
 10995 4eca 65E2      		ldi r22,lo8(37)
 10996 4ecc 70E0      		ldi r23,hi8(37)
 10997 4ece 4FEF      		ldi r20,lo8(-1)
 10998 4ed0 0E94 0000 		call lcd_graphics_plot_pixel
 10999               	.LM1431:
 11000 4ed4 8FE3      		ldi r24,lo8(63)
 11001 4ed6 90E0      		ldi r25,hi8(63)
 11002 4ed8 66E2      		ldi r22,lo8(38)
 11003 4eda 70E0      		ldi r23,hi8(38)
 11004 4edc 4FEF      		ldi r20,lo8(-1)
 11005 4ede 0E94 0000 		call lcd_graphics_plot_pixel
 11006               	.LM1432:
 11007 4ee2 8FE3      		ldi r24,lo8(63)
 11008 4ee4 90E0      		ldi r25,hi8(63)
 11009 4ee6 67E2      		ldi r22,lo8(39)
 11010 4ee8 70E0      		ldi r23,hi8(39)
 11011 4eea 4FEF      		ldi r20,lo8(-1)
 11012 4eec 0E94 0000 		call lcd_graphics_plot_pixel
 11013               	.LM1433:
 11014 4ef0 8FE3      		ldi r24,lo8(63)
 11015 4ef2 90E0      		ldi r25,hi8(63)
 11016 4ef4 68E2      		ldi r22,lo8(40)
 11017 4ef6 70E0      		ldi r23,hi8(40)
 11018 4ef8 4FEF      		ldi r20,lo8(-1)
 11019 4efa 0E94 0000 		call lcd_graphics_plot_pixel
 11020               	.LM1434:
 11021 4efe 8FE3      		ldi r24,lo8(63)
 11022 4f00 90E0      		ldi r25,hi8(63)
 11023 4f02 69E2      		ldi r22,lo8(41)
 11024 4f04 70E0      		ldi r23,hi8(41)
 11025 4f06 4FEF      		ldi r20,lo8(-1)
 11026 4f08 0E94 0000 		call lcd_graphics_plot_pixel
 11027               	.LM1435:
 11028 4f0c 8FE3      		ldi r24,lo8(63)
 11029 4f0e 90E0      		ldi r25,hi8(63)
 11030 4f10 6AE2      		ldi r22,lo8(42)
 11031 4f12 70E0      		ldi r23,hi8(42)
 11032 4f14 4FEF      		ldi r20,lo8(-1)
 11033 4f16 0E94 0000 		call lcd_graphics_plot_pixel
 11034               	.LM1436:
 11035 4f1a 8FE3      		ldi r24,lo8(63)
 11036 4f1c 90E0      		ldi r25,hi8(63)
 11037 4f1e 6BE2      		ldi r22,lo8(43)
 11038 4f20 70E0      		ldi r23,hi8(43)
 11039 4f22 4FEF      		ldi r20,lo8(-1)
 11040 4f24 0E94 0000 		call lcd_graphics_plot_pixel
 11041               	.LM1437:
 11042 4f28 8FE3      		ldi r24,lo8(63)
 11043 4f2a 90E0      		ldi r25,hi8(63)
 11044 4f2c 6CE2      		ldi r22,lo8(44)
 11045 4f2e 70E0      		ldi r23,hi8(44)
 11046 4f30 4FEF      		ldi r20,lo8(-1)
 11047 4f32 0E94 0000 		call lcd_graphics_plot_pixel
 11048               	.LM1438:
 11049 4f36 8FE3      		ldi r24,lo8(63)
 11050 4f38 90E0      		ldi r25,hi8(63)
 11051 4f3a 6DE2      		ldi r22,lo8(45)
 11052 4f3c 70E0      		ldi r23,hi8(45)
 11053 4f3e 4FEF      		ldi r20,lo8(-1)
 11054 4f40 0E94 0000 		call lcd_graphics_plot_pixel
 11055               	.LM1439:
 11056 4f44 8FE3      		ldi r24,lo8(63)
 11057 4f46 90E0      		ldi r25,hi8(63)
 11058 4f48 6EE2      		ldi r22,lo8(46)
 11059 4f4a 70E0      		ldi r23,hi8(46)
 11060 4f4c 4FEF      		ldi r20,lo8(-1)
 11061 4f4e 0E94 0000 		call lcd_graphics_plot_pixel
 11062               	.LM1440:
 11063 4f52 8FE3      		ldi r24,lo8(63)
 11064 4f54 90E0      		ldi r25,hi8(63)
 11065 4f56 6FE2      		ldi r22,lo8(47)
 11066 4f58 70E0      		ldi r23,hi8(47)
 11067 4f5a 4FEF      		ldi r20,lo8(-1)
 11068 4f5c 0E94 0000 		call lcd_graphics_plot_pixel
 11069               	.LM1441:
 11070 4f60 8FE3      		ldi r24,lo8(63)
 11071 4f62 90E0      		ldi r25,hi8(63)
 11072 4f64 60E3      		ldi r22,lo8(48)
 11073 4f66 70E0      		ldi r23,hi8(48)
 11074 4f68 4FEF      		ldi r20,lo8(-1)
 11075 4f6a 0E94 0000 		call lcd_graphics_plot_pixel
 11076               	.LM1442:
 11077 4f6e 8FE3      		ldi r24,lo8(63)
 11078 4f70 90E0      		ldi r25,hi8(63)
 11079 4f72 61E3      		ldi r22,lo8(49)
 11080 4f74 70E0      		ldi r23,hi8(49)
 11081 4f76 4FEF      		ldi r20,lo8(-1)
 11082 4f78 0E94 0000 		call lcd_graphics_plot_pixel
 11083               	.LM1443:
 11084 4f7c 8FE3      		ldi r24,lo8(63)
 11085 4f7e 90E0      		ldi r25,hi8(63)
 11086 4f80 62E3      		ldi r22,lo8(50)
 11087 4f82 70E0      		ldi r23,hi8(50)
 11088 4f84 4FEF      		ldi r20,lo8(-1)
 11089 4f86 0E94 0000 		call lcd_graphics_plot_pixel
 11090               	.LM1444:
 11091 4f8a 8FE3      		ldi r24,lo8(63)
 11092 4f8c 90E0      		ldi r25,hi8(63)
 11093 4f8e 63E3      		ldi r22,lo8(51)
 11094 4f90 70E0      		ldi r23,hi8(51)
 11095 4f92 4FEF      		ldi r20,lo8(-1)
 11096 4f94 0E94 0000 		call lcd_graphics_plot_pixel
 11097               	.LM1445:
 11098 4f98 8FE3      		ldi r24,lo8(63)
 11099 4f9a 90E0      		ldi r25,hi8(63)
 11100 4f9c 64E3      		ldi r22,lo8(52)
 11101 4f9e 70E0      		ldi r23,hi8(52)
 11102 4fa0 4FEF      		ldi r20,lo8(-1)
 11103 4fa2 0E94 0000 		call lcd_graphics_plot_pixel
 11104               	.LM1446:
 11105 4fa6 8FE3      		ldi r24,lo8(63)
 11106 4fa8 90E0      		ldi r25,hi8(63)
 11107 4faa 65E3      		ldi r22,lo8(53)
 11108 4fac 70E0      		ldi r23,hi8(53)
 11109 4fae 4FEF      		ldi r20,lo8(-1)
 11110 4fb0 0E94 0000 		call lcd_graphics_plot_pixel
 11111               	.LM1447:
 11112 4fb4 8FE3      		ldi r24,lo8(63)
 11113 4fb6 90E0      		ldi r25,hi8(63)
 11114 4fb8 66E3      		ldi r22,lo8(54)
 11115 4fba 70E0      		ldi r23,hi8(54)
 11116 4fbc 4FEF      		ldi r20,lo8(-1)
 11117 4fbe 0E94 0000 		call lcd_graphics_plot_pixel
 11118               	.LM1448:
 11119 4fc2 8FE3      		ldi r24,lo8(63)
 11120 4fc4 90E0      		ldi r25,hi8(63)
 11121 4fc6 67E3      		ldi r22,lo8(55)
 11122 4fc8 70E0      		ldi r23,hi8(55)
 11123 4fca 4FEF      		ldi r20,lo8(-1)
 11124 4fcc 0E94 0000 		call lcd_graphics_plot_pixel
 11125               	.LM1449:
 11126 4fd0 8FE3      		ldi r24,lo8(63)
 11127 4fd2 90E0      		ldi r25,hi8(63)
 11128 4fd4 68E3      		ldi r22,lo8(56)
 11129 4fd6 70E0      		ldi r23,hi8(56)
 11130 4fd8 4FEF      		ldi r20,lo8(-1)
 11131 4fda 0E94 0000 		call lcd_graphics_plot_pixel
 11132               	.LM1450:
 11133 4fde 8FE3      		ldi r24,lo8(63)
 11134 4fe0 90E0      		ldi r25,hi8(63)
 11135 4fe2 69E3      		ldi r22,lo8(57)
 11136 4fe4 70E0      		ldi r23,hi8(57)
 11137 4fe6 4FEF      		ldi r20,lo8(-1)
 11138 4fe8 0E94 0000 		call lcd_graphics_plot_pixel
 11139               	.LM1451:
 11140 4fec 8FE3      		ldi r24,lo8(63)
 11141 4fee 90E0      		ldi r25,hi8(63)
 11142 4ff0 6AE3      		ldi r22,lo8(58)
 11143 4ff2 70E0      		ldi r23,hi8(58)
 11144 4ff4 4FEF      		ldi r20,lo8(-1)
 11145 4ff6 0E94 0000 		call lcd_graphics_plot_pixel
 11146               	.LM1452:
 11147 4ffa 8FE3      		ldi r24,lo8(63)
 11148 4ffc 90E0      		ldi r25,hi8(63)
 11149 4ffe 6BE3      		ldi r22,lo8(59)
 11150 5000 70E0      		ldi r23,hi8(59)
 11151 5002 4FEF      		ldi r20,lo8(-1)
 11152 5004 0E94 0000 		call lcd_graphics_plot_pixel
 11153               	.LM1453:
 11154 5008 8FE3      		ldi r24,lo8(63)
 11155 500a 90E0      		ldi r25,hi8(63)
 11156 500c 6CE3      		ldi r22,lo8(60)
 11157 500e 70E0      		ldi r23,hi8(60)
 11158 5010 4FEF      		ldi r20,lo8(-1)
 11159 5012 0E94 0000 		call lcd_graphics_plot_pixel
 11160               	.LM1454:
 11161 5016 8FE3      		ldi r24,lo8(63)
 11162 5018 90E0      		ldi r25,hi8(63)
 11163 501a 6DE3      		ldi r22,lo8(61)
 11164 501c 70E0      		ldi r23,hi8(61)
 11165 501e 4FEF      		ldi r20,lo8(-1)
 11166 5020 0E94 0000 		call lcd_graphics_plot_pixel
 11167               	.LM1455:
 11168 5024 8FE3      		ldi r24,lo8(63)
 11169 5026 90E0      		ldi r25,hi8(63)
 11170 5028 6EE3      		ldi r22,lo8(62)
 11171 502a 70E0      		ldi r23,hi8(62)
 11172 502c 4FEF      		ldi r20,lo8(-1)
 11173 502e 0E94 0000 		call lcd_graphics_plot_pixel
 11174               	.LM1456:
 11175 5032 8FE3      		ldi r24,lo8(63)
 11176 5034 90E0      		ldi r25,hi8(63)
 11177 5036 6FE3      		ldi r22,lo8(63)
 11178 5038 70E0      		ldi r23,hi8(63)
 11179 503a 4FEF      		ldi r20,lo8(-1)
 11180 503c 0E94 0000 		call lcd_graphics_plot_pixel
 11181               	.LM1457:
 11182 5040 8FE3      		ldi r24,lo8(63)
 11183 5042 90E0      		ldi r25,hi8(63)
 11184 5044 60E4      		ldi r22,lo8(64)
 11185 5046 70E0      		ldi r23,hi8(64)
 11186 5048 4FEF      		ldi r20,lo8(-1)
 11187 504a 0E94 0000 		call lcd_graphics_plot_pixel
 11188               	.LM1458:
 11189 504e 8FE3      		ldi r24,lo8(63)
 11190 5050 90E0      		ldi r25,hi8(63)
 11191 5052 61E4      		ldi r22,lo8(65)
 11192 5054 70E0      		ldi r23,hi8(65)
 11193 5056 4FEF      		ldi r20,lo8(-1)
 11194 5058 0E94 0000 		call lcd_graphics_plot_pixel
 11195               	.LM1459:
 11196 505c 8FE3      		ldi r24,lo8(63)
 11197 505e 90E0      		ldi r25,hi8(63)
 11198 5060 62E4      		ldi r22,lo8(66)
 11199 5062 70E0      		ldi r23,hi8(66)
 11200 5064 4FEF      		ldi r20,lo8(-1)
 11201 5066 0E94 0000 		call lcd_graphics_plot_pixel
 11202               	.LM1460:
 11203 506a 8FE3      		ldi r24,lo8(63)
 11204 506c 90E0      		ldi r25,hi8(63)
 11205 506e 63E4      		ldi r22,lo8(67)
 11206 5070 70E0      		ldi r23,hi8(67)
 11207 5072 4FEF      		ldi r20,lo8(-1)
 11208 5074 0E94 0000 		call lcd_graphics_plot_pixel
 11209               	.LM1461:
 11210 5078 8FE3      		ldi r24,lo8(63)
 11211 507a 90E0      		ldi r25,hi8(63)
 11212 507c 64E4      		ldi r22,lo8(68)
 11213 507e 70E0      		ldi r23,hi8(68)
 11214 5080 4FEF      		ldi r20,lo8(-1)
 11215 5082 0E94 0000 		call lcd_graphics_plot_pixel
 11216               	.LM1462:
 11217 5086 8FE3      		ldi r24,lo8(63)
 11218 5088 90E0      		ldi r25,hi8(63)
 11219 508a 65E4      		ldi r22,lo8(69)
 11220 508c 70E0      		ldi r23,hi8(69)
 11221 508e 4FEF      		ldi r20,lo8(-1)
 11222 5090 0E94 0000 		call lcd_graphics_plot_pixel
 11223               	.LM1463:
 11224 5094 8FE3      		ldi r24,lo8(63)
 11225 5096 90E0      		ldi r25,hi8(63)
 11226 5098 66E4      		ldi r22,lo8(70)
 11227 509a 70E0      		ldi r23,hi8(70)
 11228 509c 4FEF      		ldi r20,lo8(-1)
 11229 509e 0E94 0000 		call lcd_graphics_plot_pixel
 11230               	.LM1464:
 11231 50a2 8FE3      		ldi r24,lo8(63)
 11232 50a4 90E0      		ldi r25,hi8(63)
 11233 50a6 67E4      		ldi r22,lo8(71)
 11234 50a8 70E0      		ldi r23,hi8(71)
 11235 50aa 4FEF      		ldi r20,lo8(-1)
 11236 50ac 0E94 0000 		call lcd_graphics_plot_pixel
 11237               	.LM1465:
 11238 50b0 8FE3      		ldi r24,lo8(63)
 11239 50b2 90E0      		ldi r25,hi8(63)
 11240 50b4 68E4      		ldi r22,lo8(72)
 11241 50b6 70E0      		ldi r23,hi8(72)
 11242 50b8 4FEF      		ldi r20,lo8(-1)
 11243 50ba 0E94 0000 		call lcd_graphics_plot_pixel
 11244               	.LM1466:
 11245 50be 8FE3      		ldi r24,lo8(63)
 11246 50c0 90E0      		ldi r25,hi8(63)
 11247 50c2 69E4      		ldi r22,lo8(73)
 11248 50c4 70E0      		ldi r23,hi8(73)
 11249 50c6 4FEF      		ldi r20,lo8(-1)
 11250 50c8 0E94 0000 		call lcd_graphics_plot_pixel
 11251               	.LM1467:
 11252 50cc 8FE3      		ldi r24,lo8(63)
 11253 50ce 90E0      		ldi r25,hi8(63)
 11254 50d0 6AE4      		ldi r22,lo8(74)
 11255 50d2 70E0      		ldi r23,hi8(74)
 11256 50d4 4FEF      		ldi r20,lo8(-1)
 11257 50d6 0E94 0000 		call lcd_graphics_plot_pixel
 11258               	.LM1468:
 11259 50da 8FE3      		ldi r24,lo8(63)
 11260 50dc 90E0      		ldi r25,hi8(63)
 11261 50de 6BE4      		ldi r22,lo8(75)
 11262 50e0 70E0      		ldi r23,hi8(75)
 11263 50e2 4FEF      		ldi r20,lo8(-1)
 11264 50e4 0E94 0000 		call lcd_graphics_plot_pixel
 11265               	.LM1469:
 11266 50e8 80E4      		ldi r24,lo8(64)
 11267 50ea 90E0      		ldi r25,hi8(64)
 11268 50ec 68E0      		ldi r22,lo8(8)
 11269 50ee 70E0      		ldi r23,hi8(8)
 11270 50f0 4FEF      		ldi r20,lo8(-1)
 11271 50f2 0E94 0000 		call lcd_graphics_plot_pixel
 11272               	.LM1470:
 11273 50f6 80E4      		ldi r24,lo8(64)
 11274 50f8 90E0      		ldi r25,hi8(64)
 11275 50fa 69E0      		ldi r22,lo8(9)
 11276 50fc 70E0      		ldi r23,hi8(9)
 11277 50fe 4FEF      		ldi r20,lo8(-1)
 11278 5100 0E94 0000 		call lcd_graphics_plot_pixel
 11279               	.LM1471:
 11280 5104 80E4      		ldi r24,lo8(64)
 11281 5106 90E0      		ldi r25,hi8(64)
 11282 5108 6AE0      		ldi r22,lo8(10)
 11283 510a 70E0      		ldi r23,hi8(10)
 11284 510c 4FEF      		ldi r20,lo8(-1)
 11285 510e 0E94 0000 		call lcd_graphics_plot_pixel
 11286               	.LM1472:
 11287 5112 80E4      		ldi r24,lo8(64)
 11288 5114 90E0      		ldi r25,hi8(64)
 11289 5116 6BE0      		ldi r22,lo8(11)
 11290 5118 70E0      		ldi r23,hi8(11)
 11291 511a 4FEF      		ldi r20,lo8(-1)
 11292 511c 0E94 0000 		call lcd_graphics_plot_pixel
 11293               	.LM1473:
 11294 5120 80E4      		ldi r24,lo8(64)
 11295 5122 90E0      		ldi r25,hi8(64)
 11296 5124 6CE0      		ldi r22,lo8(12)
 11297 5126 70E0      		ldi r23,hi8(12)
 11298 5128 4FEF      		ldi r20,lo8(-1)
 11299 512a 0E94 0000 		call lcd_graphics_plot_pixel
 11300               	.LM1474:
 11301 512e 80E4      		ldi r24,lo8(64)
 11302 5130 90E0      		ldi r25,hi8(64)
 11303 5132 6DE0      		ldi r22,lo8(13)
 11304 5134 70E0      		ldi r23,hi8(13)
 11305 5136 4FEF      		ldi r20,lo8(-1)
 11306 5138 0E94 0000 		call lcd_graphics_plot_pixel
 11307               	.LM1475:
 11308 513c 80E4      		ldi r24,lo8(64)
 11309 513e 90E0      		ldi r25,hi8(64)
 11310 5140 6EE0      		ldi r22,lo8(14)
 11311 5142 70E0      		ldi r23,hi8(14)
 11312 5144 4FEF      		ldi r20,lo8(-1)
 11313 5146 0E94 0000 		call lcd_graphics_plot_pixel
 11314               	.LM1476:
 11315 514a 80E4      		ldi r24,lo8(64)
 11316 514c 90E0      		ldi r25,hi8(64)
 11317 514e 6FE0      		ldi r22,lo8(15)
 11318 5150 70E0      		ldi r23,hi8(15)
 11319 5152 4FEF      		ldi r20,lo8(-1)
 11320 5154 0E94 0000 		call lcd_graphics_plot_pixel
 11321               	.LM1477:
 11322 5158 80E4      		ldi r24,lo8(64)
 11323 515a 90E0      		ldi r25,hi8(64)
 11324 515c 60E1      		ldi r22,lo8(16)
 11325 515e 70E0      		ldi r23,hi8(16)
 11326 5160 4FEF      		ldi r20,lo8(-1)
 11327 5162 0E94 0000 		call lcd_graphics_plot_pixel
 11328               	.LM1478:
 11329 5166 80E4      		ldi r24,lo8(64)
 11330 5168 90E0      		ldi r25,hi8(64)
 11331 516a 61E1      		ldi r22,lo8(17)
 11332 516c 70E0      		ldi r23,hi8(17)
 11333 516e 4FEF      		ldi r20,lo8(-1)
 11334 5170 0E94 0000 		call lcd_graphics_plot_pixel
 11335               	.LM1479:
 11336 5174 80E4      		ldi r24,lo8(64)
 11337 5176 90E0      		ldi r25,hi8(64)
 11338 5178 62E1      		ldi r22,lo8(18)
 11339 517a 70E0      		ldi r23,hi8(18)
 11340 517c 4FEF      		ldi r20,lo8(-1)
 11341 517e 0E94 0000 		call lcd_graphics_plot_pixel
 11342               	.LM1480:
 11343 5182 80E4      		ldi r24,lo8(64)
 11344 5184 90E0      		ldi r25,hi8(64)
 11345 5186 63E1      		ldi r22,lo8(19)
 11346 5188 70E0      		ldi r23,hi8(19)
 11347 518a 4FEF      		ldi r20,lo8(-1)
 11348 518c 0E94 0000 		call lcd_graphics_plot_pixel
 11349               	.LM1481:
 11350 5190 80E4      		ldi r24,lo8(64)
 11351 5192 90E0      		ldi r25,hi8(64)
 11352 5194 64E1      		ldi r22,lo8(20)
 11353 5196 70E0      		ldi r23,hi8(20)
 11354 5198 4FEF      		ldi r20,lo8(-1)
 11355 519a 0E94 0000 		call lcd_graphics_plot_pixel
 11356               	.LM1482:
 11357 519e 80E4      		ldi r24,lo8(64)
 11358 51a0 90E0      		ldi r25,hi8(64)
 11359 51a2 65E1      		ldi r22,lo8(21)
 11360 51a4 70E0      		ldi r23,hi8(21)
 11361 51a6 4FEF      		ldi r20,lo8(-1)
 11362 51a8 0E94 0000 		call lcd_graphics_plot_pixel
 11363               	.LM1483:
 11364 51ac 80E4      		ldi r24,lo8(64)
 11365 51ae 90E0      		ldi r25,hi8(64)
 11366 51b0 66E1      		ldi r22,lo8(22)
 11367 51b2 70E0      		ldi r23,hi8(22)
 11368 51b4 4FEF      		ldi r20,lo8(-1)
 11369 51b6 0E94 0000 		call lcd_graphics_plot_pixel
 11370               	.LM1484:
 11371 51ba 80E4      		ldi r24,lo8(64)
 11372 51bc 90E0      		ldi r25,hi8(64)
 11373 51be 67E1      		ldi r22,lo8(23)
 11374 51c0 70E0      		ldi r23,hi8(23)
 11375 51c2 4FEF      		ldi r20,lo8(-1)
 11376 51c4 0E94 0000 		call lcd_graphics_plot_pixel
 11377               	.LM1485:
 11378 51c8 80E4      		ldi r24,lo8(64)
 11379 51ca 90E0      		ldi r25,hi8(64)
 11380 51cc 68E1      		ldi r22,lo8(24)
 11381 51ce 70E0      		ldi r23,hi8(24)
 11382 51d0 4FEF      		ldi r20,lo8(-1)
 11383 51d2 0E94 0000 		call lcd_graphics_plot_pixel
 11384               	.LM1486:
 11385 51d6 80E4      		ldi r24,lo8(64)
 11386 51d8 90E0      		ldi r25,hi8(64)
 11387 51da 69E1      		ldi r22,lo8(25)
 11388 51dc 70E0      		ldi r23,hi8(25)
 11389 51de 4FEF      		ldi r20,lo8(-1)
 11390 51e0 0E94 0000 		call lcd_graphics_plot_pixel
 11391               	.LM1487:
 11392 51e4 80E4      		ldi r24,lo8(64)
 11393 51e6 90E0      		ldi r25,hi8(64)
 11394 51e8 6AE1      		ldi r22,lo8(26)
 11395 51ea 70E0      		ldi r23,hi8(26)
 11396 51ec 4FEF      		ldi r20,lo8(-1)
 11397 51ee 0E94 0000 		call lcd_graphics_plot_pixel
 11398               	.LM1488:
 11399 51f2 80E4      		ldi r24,lo8(64)
 11400 51f4 90E0      		ldi r25,hi8(64)
 11401 51f6 6BE1      		ldi r22,lo8(27)
 11402 51f8 70E0      		ldi r23,hi8(27)
 11403 51fa 4FEF      		ldi r20,lo8(-1)
 11404 51fc 0E94 0000 		call lcd_graphics_plot_pixel
 11405               	.LM1489:
 11406 5200 80E4      		ldi r24,lo8(64)
 11407 5202 90E0      		ldi r25,hi8(64)
 11408 5204 6CE1      		ldi r22,lo8(28)
 11409 5206 70E0      		ldi r23,hi8(28)
 11410 5208 4FEF      		ldi r20,lo8(-1)
 11411 520a 0E94 0000 		call lcd_graphics_plot_pixel
 11412               	.LM1490:
 11413 520e 80E4      		ldi r24,lo8(64)
 11414 5210 90E0      		ldi r25,hi8(64)
 11415 5212 6DE1      		ldi r22,lo8(29)
 11416 5214 70E0      		ldi r23,hi8(29)
 11417 5216 4FEF      		ldi r20,lo8(-1)
 11418 5218 0E94 0000 		call lcd_graphics_plot_pixel
 11419               	.LM1491:
 11420 521c 80E4      		ldi r24,lo8(64)
 11421 521e 90E0      		ldi r25,hi8(64)
 11422 5220 6EE1      		ldi r22,lo8(30)
 11423 5222 70E0      		ldi r23,hi8(30)
 11424 5224 4FEF      		ldi r20,lo8(-1)
 11425 5226 0E94 0000 		call lcd_graphics_plot_pixel
 11426               	.LM1492:
 11427 522a 80E4      		ldi r24,lo8(64)
 11428 522c 90E0      		ldi r25,hi8(64)
 11429 522e 6FE1      		ldi r22,lo8(31)
 11430 5230 70E0      		ldi r23,hi8(31)
 11431 5232 4FEF      		ldi r20,lo8(-1)
 11432 5234 0E94 0000 		call lcd_graphics_plot_pixel
 11433               	.LM1493:
 11434 5238 80E4      		ldi r24,lo8(64)
 11435 523a 90E0      		ldi r25,hi8(64)
 11436 523c 60E2      		ldi r22,lo8(32)
 11437 523e 70E0      		ldi r23,hi8(32)
 11438 5240 4FEF      		ldi r20,lo8(-1)
 11439 5242 0E94 0000 		call lcd_graphics_plot_pixel
 11440               	.LM1494:
 11441 5246 80E4      		ldi r24,lo8(64)
 11442 5248 90E0      		ldi r25,hi8(64)
 11443 524a 61E2      		ldi r22,lo8(33)
 11444 524c 70E0      		ldi r23,hi8(33)
 11445 524e 4FEF      		ldi r20,lo8(-1)
 11446 5250 0E94 0000 		call lcd_graphics_plot_pixel
 11447               	.LM1495:
 11448 5254 80E4      		ldi r24,lo8(64)
 11449 5256 90E0      		ldi r25,hi8(64)
 11450 5258 62E2      		ldi r22,lo8(34)
 11451 525a 70E0      		ldi r23,hi8(34)
 11452 525c 4FEF      		ldi r20,lo8(-1)
 11453 525e 0E94 0000 		call lcd_graphics_plot_pixel
 11454               	.LM1496:
 11455 5262 80E4      		ldi r24,lo8(64)
 11456 5264 90E0      		ldi r25,hi8(64)
 11457 5266 63E2      		ldi r22,lo8(35)
 11458 5268 70E0      		ldi r23,hi8(35)
 11459 526a 4FEF      		ldi r20,lo8(-1)
 11460 526c 0E94 0000 		call lcd_graphics_plot_pixel
 11461               	.LM1497:
 11462 5270 80E4      		ldi r24,lo8(64)
 11463 5272 90E0      		ldi r25,hi8(64)
 11464 5274 64E2      		ldi r22,lo8(36)
 11465 5276 70E0      		ldi r23,hi8(36)
 11466 5278 4FEF      		ldi r20,lo8(-1)
 11467 527a 0E94 0000 		call lcd_graphics_plot_pixel
 11468               	.LM1498:
 11469 527e 80E4      		ldi r24,lo8(64)
 11470 5280 90E0      		ldi r25,hi8(64)
 11471 5282 65E2      		ldi r22,lo8(37)
 11472 5284 70E0      		ldi r23,hi8(37)
 11473 5286 4FEF      		ldi r20,lo8(-1)
 11474 5288 0E94 0000 		call lcd_graphics_plot_pixel
 11475               	.LM1499:
 11476 528c 80E4      		ldi r24,lo8(64)
 11477 528e 90E0      		ldi r25,hi8(64)
 11478 5290 66E2      		ldi r22,lo8(38)
 11479 5292 70E0      		ldi r23,hi8(38)
 11480 5294 4FEF      		ldi r20,lo8(-1)
 11481 5296 0E94 0000 		call lcd_graphics_plot_pixel
 11482               	.LM1500:
 11483 529a 80E4      		ldi r24,lo8(64)
 11484 529c 90E0      		ldi r25,hi8(64)
 11485 529e 67E2      		ldi r22,lo8(39)
 11486 52a0 70E0      		ldi r23,hi8(39)
 11487 52a2 4FEF      		ldi r20,lo8(-1)
 11488 52a4 0E94 0000 		call lcd_graphics_plot_pixel
 11489               	.LM1501:
 11490 52a8 80E4      		ldi r24,lo8(64)
 11491 52aa 90E0      		ldi r25,hi8(64)
 11492 52ac 68E2      		ldi r22,lo8(40)
 11493 52ae 70E0      		ldi r23,hi8(40)
 11494 52b0 4FEF      		ldi r20,lo8(-1)
 11495 52b2 0E94 0000 		call lcd_graphics_plot_pixel
 11496               	.LM1502:
 11497 52b6 80E4      		ldi r24,lo8(64)
 11498 52b8 90E0      		ldi r25,hi8(64)
 11499 52ba 69E2      		ldi r22,lo8(41)
 11500 52bc 70E0      		ldi r23,hi8(41)
 11501 52be 4FEF      		ldi r20,lo8(-1)
 11502 52c0 0E94 0000 		call lcd_graphics_plot_pixel
 11503               	.LM1503:
 11504 52c4 80E4      		ldi r24,lo8(64)
 11505 52c6 90E0      		ldi r25,hi8(64)
 11506 52c8 6AE2      		ldi r22,lo8(42)
 11507 52ca 70E0      		ldi r23,hi8(42)
 11508 52cc 4FEF      		ldi r20,lo8(-1)
 11509 52ce 0E94 0000 		call lcd_graphics_plot_pixel
 11510               	.LM1504:
 11511 52d2 80E4      		ldi r24,lo8(64)
 11512 52d4 90E0      		ldi r25,hi8(64)
 11513 52d6 6BE2      		ldi r22,lo8(43)
 11514 52d8 70E0      		ldi r23,hi8(43)
 11515 52da 4FEF      		ldi r20,lo8(-1)
 11516 52dc 0E94 0000 		call lcd_graphics_plot_pixel
 11517               	.LM1505:
 11518 52e0 80E4      		ldi r24,lo8(64)
 11519 52e2 90E0      		ldi r25,hi8(64)
 11520 52e4 6CE2      		ldi r22,lo8(44)
 11521 52e6 70E0      		ldi r23,hi8(44)
 11522 52e8 4FEF      		ldi r20,lo8(-1)
 11523 52ea 0E94 0000 		call lcd_graphics_plot_pixel
 11524               	.LM1506:
 11525 52ee 80E4      		ldi r24,lo8(64)
 11526 52f0 90E0      		ldi r25,hi8(64)
 11527 52f2 6DE2      		ldi r22,lo8(45)
 11528 52f4 70E0      		ldi r23,hi8(45)
 11529 52f6 4FEF      		ldi r20,lo8(-1)
 11530 52f8 0E94 0000 		call lcd_graphics_plot_pixel
 11531               	.LM1507:
 11532 52fc 80E4      		ldi r24,lo8(64)
 11533 52fe 90E0      		ldi r25,hi8(64)
 11534 5300 6EE2      		ldi r22,lo8(46)
 11535 5302 70E0      		ldi r23,hi8(46)
 11536 5304 4FEF      		ldi r20,lo8(-1)
 11537 5306 0E94 0000 		call lcd_graphics_plot_pixel
 11538               	.LM1508:
 11539 530a 80E4      		ldi r24,lo8(64)
 11540 530c 90E0      		ldi r25,hi8(64)
 11541 530e 6FE2      		ldi r22,lo8(47)
 11542 5310 70E0      		ldi r23,hi8(47)
 11543 5312 4FEF      		ldi r20,lo8(-1)
 11544 5314 0E94 0000 		call lcd_graphics_plot_pixel
 11545               	.LM1509:
 11546 5318 80E4      		ldi r24,lo8(64)
 11547 531a 90E0      		ldi r25,hi8(64)
 11548 531c 60E3      		ldi r22,lo8(48)
 11549 531e 70E0      		ldi r23,hi8(48)
 11550 5320 4FEF      		ldi r20,lo8(-1)
 11551 5322 0E94 0000 		call lcd_graphics_plot_pixel
 11552               	.LM1510:
 11553 5326 80E4      		ldi r24,lo8(64)
 11554 5328 90E0      		ldi r25,hi8(64)
 11555 532a 61E3      		ldi r22,lo8(49)
 11556 532c 70E0      		ldi r23,hi8(49)
 11557 532e 4FEF      		ldi r20,lo8(-1)
 11558 5330 0E94 0000 		call lcd_graphics_plot_pixel
 11559               	.LM1511:
 11560 5334 80E4      		ldi r24,lo8(64)
 11561 5336 90E0      		ldi r25,hi8(64)
 11562 5338 62E3      		ldi r22,lo8(50)
 11563 533a 70E0      		ldi r23,hi8(50)
 11564 533c 4FEF      		ldi r20,lo8(-1)
 11565 533e 0E94 0000 		call lcd_graphics_plot_pixel
 11566               	.LM1512:
 11567 5342 80E4      		ldi r24,lo8(64)
 11568 5344 90E0      		ldi r25,hi8(64)
 11569 5346 63E3      		ldi r22,lo8(51)
 11570 5348 70E0      		ldi r23,hi8(51)
 11571 534a 4FEF      		ldi r20,lo8(-1)
 11572 534c 0E94 0000 		call lcd_graphics_plot_pixel
 11573               	.LM1513:
 11574 5350 80E4      		ldi r24,lo8(64)
 11575 5352 90E0      		ldi r25,hi8(64)
 11576 5354 64E3      		ldi r22,lo8(52)
 11577 5356 70E0      		ldi r23,hi8(52)
 11578 5358 4FEF      		ldi r20,lo8(-1)
 11579 535a 0E94 0000 		call lcd_graphics_plot_pixel
 11580               	.LM1514:
 11581 535e 80E4      		ldi r24,lo8(64)
 11582 5360 90E0      		ldi r25,hi8(64)
 11583 5362 65E3      		ldi r22,lo8(53)
 11584 5364 70E0      		ldi r23,hi8(53)
 11585 5366 4FEF      		ldi r20,lo8(-1)
 11586 5368 0E94 0000 		call lcd_graphics_plot_pixel
 11587               	.LM1515:
 11588 536c 80E4      		ldi r24,lo8(64)
 11589 536e 90E0      		ldi r25,hi8(64)
 11590 5370 66E3      		ldi r22,lo8(54)
 11591 5372 70E0      		ldi r23,hi8(54)
 11592 5374 4FEF      		ldi r20,lo8(-1)
 11593 5376 0E94 0000 		call lcd_graphics_plot_pixel
 11594               	.LM1516:
 11595 537a 80E4      		ldi r24,lo8(64)
 11596 537c 90E0      		ldi r25,hi8(64)
 11597 537e 67E3      		ldi r22,lo8(55)
 11598 5380 70E0      		ldi r23,hi8(55)
 11599 5382 4FEF      		ldi r20,lo8(-1)
 11600 5384 0E94 0000 		call lcd_graphics_plot_pixel
 11601               	.LM1517:
 11602 5388 80E4      		ldi r24,lo8(64)
 11603 538a 90E0      		ldi r25,hi8(64)
 11604 538c 68E3      		ldi r22,lo8(56)
 11605 538e 70E0      		ldi r23,hi8(56)
 11606 5390 4FEF      		ldi r20,lo8(-1)
 11607 5392 0E94 0000 		call lcd_graphics_plot_pixel
 11608               	.LM1518:
 11609 5396 80E4      		ldi r24,lo8(64)
 11610 5398 90E0      		ldi r25,hi8(64)
 11611 539a 69E3      		ldi r22,lo8(57)
 11612 539c 70E0      		ldi r23,hi8(57)
 11613 539e 4FEF      		ldi r20,lo8(-1)
 11614 53a0 0E94 0000 		call lcd_graphics_plot_pixel
 11615               	.LM1519:
 11616 53a4 80E4      		ldi r24,lo8(64)
 11617 53a6 90E0      		ldi r25,hi8(64)
 11618 53a8 6AE3      		ldi r22,lo8(58)
 11619 53aa 70E0      		ldi r23,hi8(58)
 11620 53ac 4FEF      		ldi r20,lo8(-1)
 11621 53ae 0E94 0000 		call lcd_graphics_plot_pixel
 11622               	.LM1520:
 11623 53b2 80E4      		ldi r24,lo8(64)
 11624 53b4 90E0      		ldi r25,hi8(64)
 11625 53b6 6BE3      		ldi r22,lo8(59)
 11626 53b8 70E0      		ldi r23,hi8(59)
 11627 53ba 4FEF      		ldi r20,lo8(-1)
 11628 53bc 0E94 0000 		call lcd_graphics_plot_pixel
 11629               	.LM1521:
 11630 53c0 80E4      		ldi r24,lo8(64)
 11631 53c2 90E0      		ldi r25,hi8(64)
 11632 53c4 6CE3      		ldi r22,lo8(60)
 11633 53c6 70E0      		ldi r23,hi8(60)
 11634 53c8 4FEF      		ldi r20,lo8(-1)
 11635 53ca 0E94 0000 		call lcd_graphics_plot_pixel
 11636               	.LM1522:
 11637 53ce 80E4      		ldi r24,lo8(64)
 11638 53d0 90E0      		ldi r25,hi8(64)
 11639 53d2 6DE3      		ldi r22,lo8(61)
 11640 53d4 70E0      		ldi r23,hi8(61)
 11641 53d6 4FEF      		ldi r20,lo8(-1)
 11642 53d8 0E94 0000 		call lcd_graphics_plot_pixel
 11643               	.LM1523:
 11644 53dc 80E4      		ldi r24,lo8(64)
 11645 53de 90E0      		ldi r25,hi8(64)
 11646 53e0 6EE3      		ldi r22,lo8(62)
 11647 53e2 70E0      		ldi r23,hi8(62)
 11648 53e4 4FEF      		ldi r20,lo8(-1)
 11649 53e6 0E94 0000 		call lcd_graphics_plot_pixel
 11650               	.LM1524:
 11651 53ea 80E4      		ldi r24,lo8(64)
 11652 53ec 90E0      		ldi r25,hi8(64)
 11653 53ee 6FE3      		ldi r22,lo8(63)
 11654 53f0 70E0      		ldi r23,hi8(63)
 11655 53f2 4FEF      		ldi r20,lo8(-1)
 11656 53f4 0E94 0000 		call lcd_graphics_plot_pixel
 11657               	.LM1525:
 11658 53f8 80E4      		ldi r24,lo8(64)
 11659 53fa 90E0      		ldi r25,hi8(64)
 11660 53fc 60E4      		ldi r22,lo8(64)
 11661 53fe 70E0      		ldi r23,hi8(64)
 11662 5400 4FEF      		ldi r20,lo8(-1)
 11663 5402 0E94 0000 		call lcd_graphics_plot_pixel
 11664               	.LM1526:
 11665 5406 80E4      		ldi r24,lo8(64)
 11666 5408 90E0      		ldi r25,hi8(64)
 11667 540a 61E4      		ldi r22,lo8(65)
 11668 540c 70E0      		ldi r23,hi8(65)
 11669 540e 4FEF      		ldi r20,lo8(-1)
 11670 5410 0E94 0000 		call lcd_graphics_plot_pixel
 11671               	.LM1527:
 11672 5414 80E4      		ldi r24,lo8(64)
 11673 5416 90E0      		ldi r25,hi8(64)
 11674 5418 62E4      		ldi r22,lo8(66)
 11675 541a 70E0      		ldi r23,hi8(66)
 11676 541c 4FEF      		ldi r20,lo8(-1)
 11677 541e 0E94 0000 		call lcd_graphics_plot_pixel
 11678               	.LM1528:
 11679 5422 80E4      		ldi r24,lo8(64)
 11680 5424 90E0      		ldi r25,hi8(64)
 11681 5426 63E4      		ldi r22,lo8(67)
 11682 5428 70E0      		ldi r23,hi8(67)
 11683 542a 4FEF      		ldi r20,lo8(-1)
 11684 542c 0E94 0000 		call lcd_graphics_plot_pixel
 11685               	.LM1529:
 11686 5430 80E4      		ldi r24,lo8(64)
 11687 5432 90E0      		ldi r25,hi8(64)
 11688 5434 64E4      		ldi r22,lo8(68)
 11689 5436 70E0      		ldi r23,hi8(68)
 11690 5438 4FEF      		ldi r20,lo8(-1)
 11691 543a 0E94 0000 		call lcd_graphics_plot_pixel
 11692               	.LM1530:
 11693 543e 80E4      		ldi r24,lo8(64)
 11694 5440 90E0      		ldi r25,hi8(64)
 11695 5442 65E4      		ldi r22,lo8(69)
 11696 5444 70E0      		ldi r23,hi8(69)
 11697 5446 4FEF      		ldi r20,lo8(-1)
 11698 5448 0E94 0000 		call lcd_graphics_plot_pixel
 11699               	.LM1531:
 11700 544c 80E4      		ldi r24,lo8(64)
 11701 544e 90E0      		ldi r25,hi8(64)
 11702 5450 66E4      		ldi r22,lo8(70)
 11703 5452 70E0      		ldi r23,hi8(70)
 11704 5454 4FEF      		ldi r20,lo8(-1)
 11705 5456 0E94 0000 		call lcd_graphics_plot_pixel
 11706               	.LM1532:
 11707 545a 80E4      		ldi r24,lo8(64)
 11708 545c 90E0      		ldi r25,hi8(64)
 11709 545e 67E4      		ldi r22,lo8(71)
 11710 5460 70E0      		ldi r23,hi8(71)
 11711 5462 4FEF      		ldi r20,lo8(-1)
 11712 5464 0E94 0000 		call lcd_graphics_plot_pixel
 11713               	.LM1533:
 11714 5468 80E4      		ldi r24,lo8(64)
 11715 546a 90E0      		ldi r25,hi8(64)
 11716 546c 68E4      		ldi r22,lo8(72)
 11717 546e 70E0      		ldi r23,hi8(72)
 11718 5470 4FEF      		ldi r20,lo8(-1)
 11719 5472 0E94 0000 		call lcd_graphics_plot_pixel
 11720               	.LM1534:
 11721 5476 80E4      		ldi r24,lo8(64)
 11722 5478 90E0      		ldi r25,hi8(64)
 11723 547a 69E4      		ldi r22,lo8(73)
 11724 547c 70E0      		ldi r23,hi8(73)
 11725 547e 4FEF      		ldi r20,lo8(-1)
 11726 5480 0E94 0000 		call lcd_graphics_plot_pixel
 11727               	.LM1535:
 11728 5484 80E4      		ldi r24,lo8(64)
 11729 5486 90E0      		ldi r25,hi8(64)
 11730 5488 6AE4      		ldi r22,lo8(74)
 11731 548a 70E0      		ldi r23,hi8(74)
 11732 548c 4FEF      		ldi r20,lo8(-1)
 11733 548e 0E94 0000 		call lcd_graphics_plot_pixel
 11734               	.LM1536:
 11735 5492 80E4      		ldi r24,lo8(64)
 11736 5494 90E0      		ldi r25,hi8(64)
 11737 5496 6BE4      		ldi r22,lo8(75)
 11738 5498 70E0      		ldi r23,hi8(75)
 11739 549a 4FEF      		ldi r20,lo8(-1)
 11740 549c 0E94 0000 		call lcd_graphics_plot_pixel
 11741               	.LM1537:
 11742 54a0 80E4      		ldi r24,lo8(64)
 11743 54a2 90E0      		ldi r25,hi8(64)
 11744 54a4 6CE4      		ldi r22,lo8(76)
 11745 54a6 70E0      		ldi r23,hi8(76)
 11746 54a8 4FEF      		ldi r20,lo8(-1)
 11747 54aa 0E94 0000 		call lcd_graphics_plot_pixel
 11748               	.LM1538:
 11749 54ae 81E4      		ldi r24,lo8(65)
 11750 54b0 90E0      		ldi r25,hi8(65)
 11751 54b2 68E0      		ldi r22,lo8(8)
 11752 54b4 70E0      		ldi r23,hi8(8)
 11753 54b6 4FEF      		ldi r20,lo8(-1)
 11754 54b8 0E94 0000 		call lcd_graphics_plot_pixel
 11755               	.LM1539:
 11756 54bc 81E4      		ldi r24,lo8(65)
 11757 54be 90E0      		ldi r25,hi8(65)
 11758 54c0 69E0      		ldi r22,lo8(9)
 11759 54c2 70E0      		ldi r23,hi8(9)
 11760 54c4 4FEF      		ldi r20,lo8(-1)
 11761 54c6 0E94 0000 		call lcd_graphics_plot_pixel
 11762               	.LM1540:
 11763 54ca 81E4      		ldi r24,lo8(65)
 11764 54cc 90E0      		ldi r25,hi8(65)
 11765 54ce 6AE0      		ldi r22,lo8(10)
 11766 54d0 70E0      		ldi r23,hi8(10)
 11767 54d2 4FEF      		ldi r20,lo8(-1)
 11768 54d4 0E94 0000 		call lcd_graphics_plot_pixel
 11769               	.LM1541:
 11770 54d8 81E4      		ldi r24,lo8(65)
 11771 54da 90E0      		ldi r25,hi8(65)
 11772 54dc 6BE0      		ldi r22,lo8(11)
 11773 54de 70E0      		ldi r23,hi8(11)
 11774 54e0 4FEF      		ldi r20,lo8(-1)
 11775 54e2 0E94 0000 		call lcd_graphics_plot_pixel
 11776               	.LM1542:
 11777 54e6 81E4      		ldi r24,lo8(65)
 11778 54e8 90E0      		ldi r25,hi8(65)
 11779 54ea 6CE0      		ldi r22,lo8(12)
 11780 54ec 70E0      		ldi r23,hi8(12)
 11781 54ee 4FEF      		ldi r20,lo8(-1)
 11782 54f0 0E94 0000 		call lcd_graphics_plot_pixel
 11783               	.LM1543:
 11784 54f4 81E4      		ldi r24,lo8(65)
 11785 54f6 90E0      		ldi r25,hi8(65)
 11786 54f8 6DE0      		ldi r22,lo8(13)
 11787 54fa 70E0      		ldi r23,hi8(13)
 11788 54fc 4FEF      		ldi r20,lo8(-1)
 11789 54fe 0E94 0000 		call lcd_graphics_plot_pixel
 11790               	.LM1544:
 11791 5502 81E4      		ldi r24,lo8(65)
 11792 5504 90E0      		ldi r25,hi8(65)
 11793 5506 6EE0      		ldi r22,lo8(14)
 11794 5508 70E0      		ldi r23,hi8(14)
 11795 550a 4FEF      		ldi r20,lo8(-1)
 11796 550c 0E94 0000 		call lcd_graphics_plot_pixel
 11797               	.LM1545:
 11798 5510 81E4      		ldi r24,lo8(65)
 11799 5512 90E0      		ldi r25,hi8(65)
 11800 5514 6FE0      		ldi r22,lo8(15)
 11801 5516 70E0      		ldi r23,hi8(15)
 11802 5518 4FEF      		ldi r20,lo8(-1)
 11803 551a 0E94 0000 		call lcd_graphics_plot_pixel
 11804               	.LM1546:
 11805 551e 81E4      		ldi r24,lo8(65)
 11806 5520 90E0      		ldi r25,hi8(65)
 11807 5522 60E1      		ldi r22,lo8(16)
 11808 5524 70E0      		ldi r23,hi8(16)
 11809 5526 4FEF      		ldi r20,lo8(-1)
 11810 5528 0E94 0000 		call lcd_graphics_plot_pixel
 11811               	.LM1547:
 11812 552c 81E4      		ldi r24,lo8(65)
 11813 552e 90E0      		ldi r25,hi8(65)
 11814 5530 61E1      		ldi r22,lo8(17)
 11815 5532 70E0      		ldi r23,hi8(17)
 11816 5534 4FEF      		ldi r20,lo8(-1)
 11817 5536 0E94 0000 		call lcd_graphics_plot_pixel
 11818               	.LM1548:
 11819 553a 81E4      		ldi r24,lo8(65)
 11820 553c 90E0      		ldi r25,hi8(65)
 11821 553e 62E1      		ldi r22,lo8(18)
 11822 5540 70E0      		ldi r23,hi8(18)
 11823 5542 4FEF      		ldi r20,lo8(-1)
 11824 5544 0E94 0000 		call lcd_graphics_plot_pixel
 11825               	.LM1549:
 11826 5548 81E4      		ldi r24,lo8(65)
 11827 554a 90E0      		ldi r25,hi8(65)
 11828 554c 68E4      		ldi r22,lo8(72)
 11829 554e 70E0      		ldi r23,hi8(72)
 11830 5550 4FEF      		ldi r20,lo8(-1)
 11831 5552 0E94 0000 		call lcd_graphics_plot_pixel
 11832               	.LM1550:
 11833 5556 81E4      		ldi r24,lo8(65)
 11834 5558 90E0      		ldi r25,hi8(65)
 11835 555a 69E4      		ldi r22,lo8(73)
 11836 555c 70E0      		ldi r23,hi8(73)
 11837 555e 4FEF      		ldi r20,lo8(-1)
 11838 5560 0E94 0000 		call lcd_graphics_plot_pixel
 11839               	.LM1551:
 11840 5564 81E4      		ldi r24,lo8(65)
 11841 5566 90E0      		ldi r25,hi8(65)
 11842 5568 6AE4      		ldi r22,lo8(74)
 11843 556a 70E0      		ldi r23,hi8(74)
 11844 556c 4FEF      		ldi r20,lo8(-1)
 11845 556e 0E94 0000 		call lcd_graphics_plot_pixel
 11846               	.LM1552:
 11847 5572 81E4      		ldi r24,lo8(65)
 11848 5574 90E0      		ldi r25,hi8(65)
 11849 5576 6BE4      		ldi r22,lo8(75)
 11850 5578 70E0      		ldi r23,hi8(75)
 11851 557a 4FEF      		ldi r20,lo8(-1)
 11852 557c 0E94 0000 		call lcd_graphics_plot_pixel
 11853               	.LM1553:
 11854 5580 81E4      		ldi r24,lo8(65)
 11855 5582 90E0      		ldi r25,hi8(65)
 11856 5584 6CE4      		ldi r22,lo8(76)
 11857 5586 70E0      		ldi r23,hi8(76)
 11858 5588 4FEF      		ldi r20,lo8(-1)
 11859 558a 0E94 0000 		call lcd_graphics_plot_pixel
 11860               	.LM1554:
 11861 558e 82E4      		ldi r24,lo8(66)
 11862 5590 90E0      		ldi r25,hi8(66)
 11863 5592 67E0      		ldi r22,lo8(7)
 11864 5594 70E0      		ldi r23,hi8(7)
 11865 5596 4FEF      		ldi r20,lo8(-1)
 11866 5598 0E94 0000 		call lcd_graphics_plot_pixel
 11867               	.LM1555:
 11868 559c 82E4      		ldi r24,lo8(66)
 11869 559e 90E0      		ldi r25,hi8(66)
 11870 55a0 68E0      		ldi r22,lo8(8)
 11871 55a2 70E0      		ldi r23,hi8(8)
 11872 55a4 4FEF      		ldi r20,lo8(-1)
 11873 55a6 0E94 0000 		call lcd_graphics_plot_pixel
 11874               	.LM1556:
 11875 55aa 82E4      		ldi r24,lo8(66)
 11876 55ac 90E0      		ldi r25,hi8(66)
 11877 55ae 69E0      		ldi r22,lo8(9)
 11878 55b0 70E0      		ldi r23,hi8(9)
 11879 55b2 4FEF      		ldi r20,lo8(-1)
 11880 55b4 0E94 0000 		call lcd_graphics_plot_pixel
 11881               	.LM1557:
 11882 55b8 82E4      		ldi r24,lo8(66)
 11883 55ba 90E0      		ldi r25,hi8(66)
 11884 55bc 6AE0      		ldi r22,lo8(10)
 11885 55be 70E0      		ldi r23,hi8(10)
 11886 55c0 4FEF      		ldi r20,lo8(-1)
 11887 55c2 0E94 0000 		call lcd_graphics_plot_pixel
 11888               	.LM1558:
 11889 55c6 82E4      		ldi r24,lo8(66)
 11890 55c8 90E0      		ldi r25,hi8(66)
 11891 55ca 6FE0      		ldi r22,lo8(15)
 11892 55cc 70E0      		ldi r23,hi8(15)
 11893 55ce 4FEF      		ldi r20,lo8(-1)
 11894 55d0 0E94 0000 		call lcd_graphics_plot_pixel
 11895               	.LM1559:
 11896 55d4 82E4      		ldi r24,lo8(66)
 11897 55d6 90E0      		ldi r25,hi8(66)
 11898 55d8 60E1      		ldi r22,lo8(16)
 11899 55da 70E0      		ldi r23,hi8(16)
 11900 55dc 4FEF      		ldi r20,lo8(-1)
 11901 55de 0E94 0000 		call lcd_graphics_plot_pixel
 11902               	.LM1560:
 11903 55e2 82E4      		ldi r24,lo8(66)
 11904 55e4 90E0      		ldi r25,hi8(66)
 11905 55e6 61E1      		ldi r22,lo8(17)
 11906 55e8 70E0      		ldi r23,hi8(17)
 11907 55ea 4FEF      		ldi r20,lo8(-1)
 11908 55ec 0E94 0000 		call lcd_graphics_plot_pixel
 11909               	.LM1561:
 11910 55f0 82E4      		ldi r24,lo8(66)
 11911 55f2 90E0      		ldi r25,hi8(66)
 11912 55f4 62E1      		ldi r22,lo8(18)
 11913 55f6 70E0      		ldi r23,hi8(18)
 11914 55f8 4FEF      		ldi r20,lo8(-1)
 11915 55fa 0E94 0000 		call lcd_graphics_plot_pixel
 11916               	.LM1562:
 11917 55fe 82E4      		ldi r24,lo8(66)
 11918 5600 90E0      		ldi r25,hi8(66)
 11919 5602 63E1      		ldi r22,lo8(19)
 11920 5604 70E0      		ldi r23,hi8(19)
 11921 5606 4FEF      		ldi r20,lo8(-1)
 11922 5608 0E94 0000 		call lcd_graphics_plot_pixel
 11923               	.LM1563:
 11924 560c 82E4      		ldi r24,lo8(66)
 11925 560e 90E0      		ldi r25,hi8(66)
 11926 5610 69E4      		ldi r22,lo8(73)
 11927 5612 70E0      		ldi r23,hi8(73)
 11928 5614 4FEF      		ldi r20,lo8(-1)
 11929 5616 0E94 0000 		call lcd_graphics_plot_pixel
 11930               	.LM1564:
 11931 561a 82E4      		ldi r24,lo8(66)
 11932 561c 90E0      		ldi r25,hi8(66)
 11933 561e 6AE4      		ldi r22,lo8(74)
 11934 5620 70E0      		ldi r23,hi8(74)
 11935 5622 4FEF      		ldi r20,lo8(-1)
 11936 5624 0E94 0000 		call lcd_graphics_plot_pixel
 11937               	.LM1565:
 11938 5628 82E4      		ldi r24,lo8(66)
 11939 562a 90E0      		ldi r25,hi8(66)
 11940 562c 6BE4      		ldi r22,lo8(75)
 11941 562e 70E0      		ldi r23,hi8(75)
 11942 5630 4FEF      		ldi r20,lo8(-1)
 11943 5632 0E94 0000 		call lcd_graphics_plot_pixel
 11944               	.LM1566:
 11945 5636 82E4      		ldi r24,lo8(66)
 11946 5638 90E0      		ldi r25,hi8(66)
 11947 563a 6CE4      		ldi r22,lo8(76)
 11948 563c 70E0      		ldi r23,hi8(76)
 11949 563e 4FEF      		ldi r20,lo8(-1)
 11950 5640 0E94 0000 		call lcd_graphics_plot_pixel
 11951               	.LM1567:
 11952 5644 82E4      		ldi r24,lo8(66)
 11953 5646 90E0      		ldi r25,hi8(66)
 11954 5648 6DE4      		ldi r22,lo8(77)
 11955 564a 70E0      		ldi r23,hi8(77)
 11956 564c 4FEF      		ldi r20,lo8(-1)
 11957 564e 0E94 0000 		call lcd_graphics_plot_pixel
 11958               	.LM1568:
 11959 5652 83E4      		ldi r24,lo8(67)
 11960 5654 90E0      		ldi r25,hi8(67)
 11961 5656 67E0      		ldi r22,lo8(7)
 11962 5658 70E0      		ldi r23,hi8(7)
 11963 565a 4FEF      		ldi r20,lo8(-1)
 11964 565c 0E94 0000 		call lcd_graphics_plot_pixel
 11965               	.LM1569:
 11966 5660 83E4      		ldi r24,lo8(67)
 11967 5662 90E0      		ldi r25,hi8(67)
 11968 5664 68E0      		ldi r22,lo8(8)
 11969 5666 70E0      		ldi r23,hi8(8)
 11970 5668 4FEF      		ldi r20,lo8(-1)
 11971 566a 0E94 0000 		call lcd_graphics_plot_pixel
 11972               	.LM1570:
 11973 566e 83E4      		ldi r24,lo8(67)
 11974 5670 90E0      		ldi r25,hi8(67)
 11975 5672 69E0      		ldi r22,lo8(9)
 11976 5674 70E0      		ldi r23,hi8(9)
 11977 5676 4FEF      		ldi r20,lo8(-1)
 11978 5678 0E94 0000 		call lcd_graphics_plot_pixel
 11979               	.LM1571:
 11980 567c 83E4      		ldi r24,lo8(67)
 11981 567e 90E0      		ldi r25,hi8(67)
 11982 5680 60E1      		ldi r22,lo8(16)
 11983 5682 70E0      		ldi r23,hi8(16)
 11984 5684 4FEF      		ldi r20,lo8(-1)
 11985 5686 0E94 0000 		call lcd_graphics_plot_pixel
 11986               	.LM1572:
 11987 568a 83E4      		ldi r24,lo8(67)
 11988 568c 90E0      		ldi r25,hi8(67)
 11989 568e 61E1      		ldi r22,lo8(17)
 11990 5690 70E0      		ldi r23,hi8(17)
 11991 5692 4FEF      		ldi r20,lo8(-1)
 11992 5694 0E94 0000 		call lcd_graphics_plot_pixel
 11993               	.LM1573:
 11994 5698 83E4      		ldi r24,lo8(67)
 11995 569a 90E0      		ldi r25,hi8(67)
 11996 569c 62E1      		ldi r22,lo8(18)
 11997 569e 70E0      		ldi r23,hi8(18)
 11998 56a0 4FEF      		ldi r20,lo8(-1)
 11999 56a2 0E94 0000 		call lcd_graphics_plot_pixel
 12000               	.LM1574:
 12001 56a6 83E4      		ldi r24,lo8(67)
 12002 56a8 90E0      		ldi r25,hi8(67)
 12003 56aa 63E1      		ldi r22,lo8(19)
 12004 56ac 70E0      		ldi r23,hi8(19)
 12005 56ae 4FEF      		ldi r20,lo8(-1)
 12006 56b0 0E94 0000 		call lcd_graphics_plot_pixel
 12007               	.LM1575:
 12008 56b4 83E4      		ldi r24,lo8(67)
 12009 56b6 90E0      		ldi r25,hi8(67)
 12010 56b8 64E1      		ldi r22,lo8(20)
 12011 56ba 70E0      		ldi r23,hi8(20)
 12012 56bc 4FEF      		ldi r20,lo8(-1)
 12013 56be 0E94 0000 		call lcd_graphics_plot_pixel
 12014               	.LM1576:
 12015 56c2 83E4      		ldi r24,lo8(67)
 12016 56c4 90E0      		ldi r25,hi8(67)
 12017 56c6 6AE4      		ldi r22,lo8(74)
 12018 56c8 70E0      		ldi r23,hi8(74)
 12019 56ca 4FEF      		ldi r20,lo8(-1)
 12020 56cc 0E94 0000 		call lcd_graphics_plot_pixel
 12021               	.LM1577:
 12022 56d0 83E4      		ldi r24,lo8(67)
 12023 56d2 90E0      		ldi r25,hi8(67)
 12024 56d4 6BE4      		ldi r22,lo8(75)
 12025 56d6 70E0      		ldi r23,hi8(75)
 12026 56d8 4FEF      		ldi r20,lo8(-1)
 12027 56da 0E94 0000 		call lcd_graphics_plot_pixel
 12028               	.LM1578:
 12029 56de 83E4      		ldi r24,lo8(67)
 12030 56e0 90E0      		ldi r25,hi8(67)
 12031 56e2 6CE4      		ldi r22,lo8(76)
 12032 56e4 70E0      		ldi r23,hi8(76)
 12033 56e6 4FEF      		ldi r20,lo8(-1)
 12034 56e8 0E94 0000 		call lcd_graphics_plot_pixel
 12035               	.LM1579:
 12036 56ec 83E4      		ldi r24,lo8(67)
 12037 56ee 90E0      		ldi r25,hi8(67)
 12038 56f0 6DE4      		ldi r22,lo8(77)
 12039 56f2 70E0      		ldi r23,hi8(77)
 12040 56f4 4FEF      		ldi r20,lo8(-1)
 12041 56f6 0E94 0000 		call lcd_graphics_plot_pixel
 12042               	.LM1580:
 12043 56fa 84E4      		ldi r24,lo8(68)
 12044 56fc 90E0      		ldi r25,hi8(68)
 12045 56fe 66E0      		ldi r22,lo8(6)
 12046 5700 70E0      		ldi r23,hi8(6)
 12047 5702 4FEF      		ldi r20,lo8(-1)
 12048 5704 0E94 0000 		call lcd_graphics_plot_pixel
 12049               	.LM1581:
 12050 5708 84E4      		ldi r24,lo8(68)
 12051 570a 90E0      		ldi r25,hi8(68)
 12052 570c 67E0      		ldi r22,lo8(7)
 12053 570e 70E0      		ldi r23,hi8(7)
 12054 5710 4FEF      		ldi r20,lo8(-1)
 12055 5712 0E94 0000 		call lcd_graphics_plot_pixel
 12056               	.LM1582:
 12057 5716 84E4      		ldi r24,lo8(68)
 12058 5718 90E0      		ldi r25,hi8(68)
 12059 571a 68E0      		ldi r22,lo8(8)
 12060 571c 70E0      		ldi r23,hi8(8)
 12061 571e 4FEF      		ldi r20,lo8(-1)
 12062 5720 0E94 0000 		call lcd_graphics_plot_pixel
 12063               	.LM1583:
 12064 5724 84E4      		ldi r24,lo8(68)
 12065 5726 90E0      		ldi r25,hi8(68)
 12066 5728 60E1      		ldi r22,lo8(16)
 12067 572a 70E0      		ldi r23,hi8(16)
 12068 572c 4FEF      		ldi r20,lo8(-1)
 12069 572e 0E94 0000 		call lcd_graphics_plot_pixel
 12070               	.LM1584:
 12071 5732 84E4      		ldi r24,lo8(68)
 12072 5734 90E0      		ldi r25,hi8(68)
 12073 5736 61E1      		ldi r22,lo8(17)
 12074 5738 70E0      		ldi r23,hi8(17)
 12075 573a 4FEF      		ldi r20,lo8(-1)
 12076 573c 0E94 0000 		call lcd_graphics_plot_pixel
 12077               	.LM1585:
 12078 5740 84E4      		ldi r24,lo8(68)
 12079 5742 90E0      		ldi r25,hi8(68)
 12080 5744 62E1      		ldi r22,lo8(18)
 12081 5746 70E0      		ldi r23,hi8(18)
 12082 5748 4FEF      		ldi r20,lo8(-1)
 12083 574a 0E94 0000 		call lcd_graphics_plot_pixel
 12084               	.LM1586:
 12085 574e 84E4      		ldi r24,lo8(68)
 12086 5750 90E0      		ldi r25,hi8(68)
 12087 5752 63E1      		ldi r22,lo8(19)
 12088 5754 70E0      		ldi r23,hi8(19)
 12089 5756 4FEF      		ldi r20,lo8(-1)
 12090 5758 0E94 0000 		call lcd_graphics_plot_pixel
 12091               	.LM1587:
 12092 575c 84E4      		ldi r24,lo8(68)
 12093 575e 90E0      		ldi r25,hi8(68)
 12094 5760 64E1      		ldi r22,lo8(20)
 12095 5762 70E0      		ldi r23,hi8(20)
 12096 5764 4FEF      		ldi r20,lo8(-1)
 12097 5766 0E94 0000 		call lcd_graphics_plot_pixel
 12098               	.LM1588:
 12099 576a 84E4      		ldi r24,lo8(68)
 12100 576c 90E0      		ldi r25,hi8(68)
 12101 576e 6AE4      		ldi r22,lo8(74)
 12102 5770 70E0      		ldi r23,hi8(74)
 12103 5772 4FEF      		ldi r20,lo8(-1)
 12104 5774 0E94 0000 		call lcd_graphics_plot_pixel
 12105               	.LM1589:
 12106 5778 84E4      		ldi r24,lo8(68)
 12107 577a 90E0      		ldi r25,hi8(68)
 12108 577c 6BE4      		ldi r22,lo8(75)
 12109 577e 70E0      		ldi r23,hi8(75)
 12110 5780 4FEF      		ldi r20,lo8(-1)
 12111 5782 0E94 0000 		call lcd_graphics_plot_pixel
 12112               	.LM1590:
 12113 5786 84E4      		ldi r24,lo8(68)
 12114 5788 90E0      		ldi r25,hi8(68)
 12115 578a 6CE4      		ldi r22,lo8(76)
 12116 578c 70E0      		ldi r23,hi8(76)
 12117 578e 4FEF      		ldi r20,lo8(-1)
 12118 5790 0E94 0000 		call lcd_graphics_plot_pixel
 12119               	.LM1591:
 12120 5794 84E4      		ldi r24,lo8(68)
 12121 5796 90E0      		ldi r25,hi8(68)
 12122 5798 6DE4      		ldi r22,lo8(77)
 12123 579a 70E0      		ldi r23,hi8(77)
 12124 579c 4FEF      		ldi r20,lo8(-1)
 12125 579e 0E94 0000 		call lcd_graphics_plot_pixel
 12126               	.LM1592:
 12127 57a2 85E4      		ldi r24,lo8(69)
 12128 57a4 90E0      		ldi r25,hi8(69)
 12129 57a6 66E0      		ldi r22,lo8(6)
 12130 57a8 70E0      		ldi r23,hi8(6)
 12131 57aa 4FEF      		ldi r20,lo8(-1)
 12132 57ac 0E94 0000 		call lcd_graphics_plot_pixel
 12133               	.LM1593:
 12134 57b0 85E4      		ldi r24,lo8(69)
 12135 57b2 90E0      		ldi r25,hi8(69)
 12136 57b4 67E0      		ldi r22,lo8(7)
 12137 57b6 70E0      		ldi r23,hi8(7)
 12138 57b8 4FEF      		ldi r20,lo8(-1)
 12139 57ba 0E94 0000 		call lcd_graphics_plot_pixel
 12140               	.LM1594:
 12141 57be 85E4      		ldi r24,lo8(69)
 12142 57c0 90E0      		ldi r25,hi8(69)
 12143 57c2 68E0      		ldi r22,lo8(8)
 12144 57c4 70E0      		ldi r23,hi8(8)
 12145 57c6 4FEF      		ldi r20,lo8(-1)
 12146 57c8 0E94 0000 		call lcd_graphics_plot_pixel
 12147               	.LM1595:
 12148 57cc 85E4      		ldi r24,lo8(69)
 12149 57ce 90E0      		ldi r25,hi8(69)
 12150 57d0 61E1      		ldi r22,lo8(17)
 12151 57d2 70E0      		ldi r23,hi8(17)
 12152 57d4 4FEF      		ldi r20,lo8(-1)
 12153 57d6 0E94 0000 		call lcd_graphics_plot_pixel
 12154               	.LM1596:
 12155 57da 85E4      		ldi r24,lo8(69)
 12156 57dc 90E0      		ldi r25,hi8(69)
 12157 57de 62E1      		ldi r22,lo8(18)
 12158 57e0 70E0      		ldi r23,hi8(18)
 12159 57e2 4FEF      		ldi r20,lo8(-1)
 12160 57e4 0E94 0000 		call lcd_graphics_plot_pixel
 12161               	.LM1597:
 12162 57e8 85E4      		ldi r24,lo8(69)
 12163 57ea 90E0      		ldi r25,hi8(69)
 12164 57ec 63E1      		ldi r22,lo8(19)
 12165 57ee 70E0      		ldi r23,hi8(19)
 12166 57f0 4FEF      		ldi r20,lo8(-1)
 12167 57f2 0E94 0000 		call lcd_graphics_plot_pixel
 12168               	.LM1598:
 12169 57f6 85E4      		ldi r24,lo8(69)
 12170 57f8 90E0      		ldi r25,hi8(69)
 12171 57fa 64E1      		ldi r22,lo8(20)
 12172 57fc 70E0      		ldi r23,hi8(20)
 12173 57fe 4FEF      		ldi r20,lo8(-1)
 12174 5800 0E94 0000 		call lcd_graphics_plot_pixel
 12175               	.LM1599:
 12176 5804 85E4      		ldi r24,lo8(69)
 12177 5806 90E0      		ldi r25,hi8(69)
 12178 5808 6BE4      		ldi r22,lo8(75)
 12179 580a 70E0      		ldi r23,hi8(75)
 12180 580c 4FEF      		ldi r20,lo8(-1)
 12181 580e 0E94 0000 		call lcd_graphics_plot_pixel
 12182               	.LM1600:
 12183 5812 85E4      		ldi r24,lo8(69)
 12184 5814 90E0      		ldi r25,hi8(69)
 12185 5816 6CE4      		ldi r22,lo8(76)
 12186 5818 70E0      		ldi r23,hi8(76)
 12187 581a 4FEF      		ldi r20,lo8(-1)
 12188 581c 0E94 0000 		call lcd_graphics_plot_pixel
 12189               	.LM1601:
 12190 5820 85E4      		ldi r24,lo8(69)
 12191 5822 90E0      		ldi r25,hi8(69)
 12192 5824 6DE4      		ldi r22,lo8(77)
 12193 5826 70E0      		ldi r23,hi8(77)
 12194 5828 4FEF      		ldi r20,lo8(-1)
 12195 582a 0E94 0000 		call lcd_graphics_plot_pixel
 12196               	.LM1602:
 12197 582e 85E4      		ldi r24,lo8(69)
 12198 5830 90E0      		ldi r25,hi8(69)
 12199 5832 6EE4      		ldi r22,lo8(78)
 12200 5834 70E0      		ldi r23,hi8(78)
 12201 5836 4FEF      		ldi r20,lo8(-1)
 12202 5838 0E94 0000 		call lcd_graphics_plot_pixel
 12203               	.LM1603:
 12204 583c 86E4      		ldi r24,lo8(70)
 12205 583e 90E0      		ldi r25,hi8(70)
 12206 5840 61E1      		ldi r22,lo8(17)
 12207 5842 70E0      		ldi r23,hi8(17)
 12208 5844 4FEF      		ldi r20,lo8(-1)
 12209 5846 0E94 0000 		call lcd_graphics_plot_pixel
 12210               	.LM1604:
 12211 584a 86E4      		ldi r24,lo8(70)
 12212 584c 90E0      		ldi r25,hi8(70)
 12213 584e 62E1      		ldi r22,lo8(18)
 12214 5850 70E0      		ldi r23,hi8(18)
 12215 5852 4FEF      		ldi r20,lo8(-1)
 12216 5854 0E94 0000 		call lcd_graphics_plot_pixel
 12217               	.LM1605:
 12218 5858 86E4      		ldi r24,lo8(70)
 12219 585a 90E0      		ldi r25,hi8(70)
 12220 585c 63E1      		ldi r22,lo8(19)
 12221 585e 70E0      		ldi r23,hi8(19)
 12222 5860 4FEF      		ldi r20,lo8(-1)
 12223 5862 0E94 0000 		call lcd_graphics_plot_pixel
 12224               	.LM1606:
 12225 5866 86E4      		ldi r24,lo8(70)
 12226 5868 90E0      		ldi r25,hi8(70)
 12227 586a 64E1      		ldi r22,lo8(20)
 12228 586c 70E0      		ldi r23,hi8(20)
 12229 586e 4FEF      		ldi r20,lo8(-1)
 12230 5870 0E94 0000 		call lcd_graphics_plot_pixel
 12231               	.LM1607:
 12232 5874 86E4      		ldi r24,lo8(70)
 12233 5876 90E0      		ldi r25,hi8(70)
 12234 5878 65E1      		ldi r22,lo8(21)
 12235 587a 70E0      		ldi r23,hi8(21)
 12236 587c 4FEF      		ldi r20,lo8(-1)
 12237 587e 0E94 0000 		call lcd_graphics_plot_pixel
 12238               	.LM1608:
 12239 5882 86E4      		ldi r24,lo8(70)
 12240 5884 90E0      		ldi r25,hi8(70)
 12241 5886 6BE4      		ldi r22,lo8(75)
 12242 5888 70E0      		ldi r23,hi8(75)
 12243 588a 4FEF      		ldi r20,lo8(-1)
 12244 588c 0E94 0000 		call lcd_graphics_plot_pixel
 12245               	.LM1609:
 12246 5890 86E4      		ldi r24,lo8(70)
 12247 5892 90E0      		ldi r25,hi8(70)
 12248 5894 6CE4      		ldi r22,lo8(76)
 12249 5896 70E0      		ldi r23,hi8(76)
 12250 5898 4FEF      		ldi r20,lo8(-1)
 12251 589a 0E94 0000 		call lcd_graphics_plot_pixel
 12252               	.LM1610:
 12253 589e 86E4      		ldi r24,lo8(70)
 12254 58a0 90E0      		ldi r25,hi8(70)
 12255 58a2 6DE4      		ldi r22,lo8(77)
 12256 58a4 70E0      		ldi r23,hi8(77)
 12257 58a6 4FEF      		ldi r20,lo8(-1)
 12258 58a8 0E94 0000 		call lcd_graphics_plot_pixel
 12259               	.LM1611:
 12260 58ac 86E4      		ldi r24,lo8(70)
 12261 58ae 90E0      		ldi r25,hi8(70)
 12262 58b0 6EE4      		ldi r22,lo8(78)
 12263 58b2 70E0      		ldi r23,hi8(78)
 12264 58b4 4FEF      		ldi r20,lo8(-1)
 12265 58b6 0E94 0000 		call lcd_graphics_plot_pixel
 12266               	.LM1612:
 12267 58ba 87E4      		ldi r24,lo8(71)
 12268 58bc 90E0      		ldi r25,hi8(71)
 12269 58be 66E0      		ldi r22,lo8(6)
 12270 58c0 70E0      		ldi r23,hi8(6)
 12271 58c2 4FEF      		ldi r20,lo8(-1)
 12272 58c4 0E94 0000 		call lcd_graphics_plot_pixel
 12273               	.LM1613:
 12274 58c8 87E4      		ldi r24,lo8(71)
 12275 58ca 90E0      		ldi r25,hi8(71)
 12276 58cc 67E0      		ldi r22,lo8(7)
 12277 58ce 70E0      		ldi r23,hi8(7)
 12278 58d0 4FEF      		ldi r20,lo8(-1)
 12279 58d2 0E94 0000 		call lcd_graphics_plot_pixel
 12280               	.LM1614:
 12281 58d6 87E4      		ldi r24,lo8(71)
 12282 58d8 90E0      		ldi r25,hi8(71)
 12283 58da 68E0      		ldi r22,lo8(8)
 12284 58dc 70E0      		ldi r23,hi8(8)
 12285 58de 4FEF      		ldi r20,lo8(-1)
 12286 58e0 0E94 0000 		call lcd_graphics_plot_pixel
 12287               	.LM1615:
 12288 58e4 87E4      		ldi r24,lo8(71)
 12289 58e6 90E0      		ldi r25,hi8(71)
 12290 58e8 69E0      		ldi r22,lo8(9)
 12291 58ea 70E0      		ldi r23,hi8(9)
 12292 58ec 4FEF      		ldi r20,lo8(-1)
 12293 58ee 0E94 0000 		call lcd_graphics_plot_pixel
 12294               	.LM1616:
 12295 58f2 87E4      		ldi r24,lo8(71)
 12296 58f4 90E0      		ldi r25,hi8(71)
 12297 58f6 6AE0      		ldi r22,lo8(10)
 12298 58f8 70E0      		ldi r23,hi8(10)
 12299 58fa 4FEF      		ldi r20,lo8(-1)
 12300 58fc 0E94 0000 		call lcd_graphics_plot_pixel
 12301               	.LM1617:
 12302 5900 87E4      		ldi r24,lo8(71)
 12303 5902 90E0      		ldi r25,hi8(71)
 12304 5904 6BE0      		ldi r22,lo8(11)
 12305 5906 70E0      		ldi r23,hi8(11)
 12306 5908 4FEF      		ldi r20,lo8(-1)
 12307 590a 0E94 0000 		call lcd_graphics_plot_pixel
 12308               	.LM1618:
 12309 590e 87E4      		ldi r24,lo8(71)
 12310 5910 90E0      		ldi r25,hi8(71)
 12311 5912 6CE0      		ldi r22,lo8(12)
 12312 5914 70E0      		ldi r23,hi8(12)
 12313 5916 4FEF      		ldi r20,lo8(-1)
 12314 5918 0E94 0000 		call lcd_graphics_plot_pixel
 12315               	.LM1619:
 12316 591c 87E4      		ldi r24,lo8(71)
 12317 591e 90E0      		ldi r25,hi8(71)
 12318 5920 6DE0      		ldi r22,lo8(13)
 12319 5922 70E0      		ldi r23,hi8(13)
 12320 5924 4FEF      		ldi r20,lo8(-1)
 12321 5926 0E94 0000 		call lcd_graphics_plot_pixel
 12322               	.LM1620:
 12323 592a 87E4      		ldi r24,lo8(71)
 12324 592c 90E0      		ldi r25,hi8(71)
 12325 592e 62E1      		ldi r22,lo8(18)
 12326 5930 70E0      		ldi r23,hi8(18)
 12327 5932 4FEF      		ldi r20,lo8(-1)
 12328 5934 0E94 0000 		call lcd_graphics_plot_pixel
 12329               	.LM1621:
 12330 5938 87E4      		ldi r24,lo8(71)
 12331 593a 90E0      		ldi r25,hi8(71)
 12332 593c 63E1      		ldi r22,lo8(19)
 12333 593e 70E0      		ldi r23,hi8(19)
 12334 5940 4FEF      		ldi r20,lo8(-1)
 12335 5942 0E94 0000 		call lcd_graphics_plot_pixel
 12336               	.LM1622:
 12337 5946 87E4      		ldi r24,lo8(71)
 12338 5948 90E0      		ldi r25,hi8(71)
 12339 594a 64E1      		ldi r22,lo8(20)
 12340 594c 70E0      		ldi r23,hi8(20)
 12341 594e 4FEF      		ldi r20,lo8(-1)
 12342 5950 0E94 0000 		call lcd_graphics_plot_pixel
 12343               	.LM1623:
 12344 5954 87E4      		ldi r24,lo8(71)
 12345 5956 90E0      		ldi r25,hi8(71)
 12346 5958 65E1      		ldi r22,lo8(21)
 12347 595a 70E0      		ldi r23,hi8(21)
 12348 595c 4FEF      		ldi r20,lo8(-1)
 12349 595e 0E94 0000 		call lcd_graphics_plot_pixel
 12350               	.LM1624:
 12351 5962 87E4      		ldi r24,lo8(71)
 12352 5964 90E0      		ldi r25,hi8(71)
 12353 5966 6BE4      		ldi r22,lo8(75)
 12354 5968 70E0      		ldi r23,hi8(75)
 12355 596a 4FEF      		ldi r20,lo8(-1)
 12356 596c 0E94 0000 		call lcd_graphics_plot_pixel
 12357               	.LM1625:
 12358 5970 87E4      		ldi r24,lo8(71)
 12359 5972 90E0      		ldi r25,hi8(71)
 12360 5974 6CE4      		ldi r22,lo8(76)
 12361 5976 70E0      		ldi r23,hi8(76)
 12362 5978 4FEF      		ldi r20,lo8(-1)
 12363 597a 0E94 0000 		call lcd_graphics_plot_pixel
 12364               	.LM1626:
 12365 597e 87E4      		ldi r24,lo8(71)
 12366 5980 90E0      		ldi r25,hi8(71)
 12367 5982 6DE4      		ldi r22,lo8(77)
 12368 5984 70E0      		ldi r23,hi8(77)
 12369 5986 4FEF      		ldi r20,lo8(-1)
 12370 5988 0E94 0000 		call lcd_graphics_plot_pixel
 12371               	.LM1627:
 12372 598c 87E4      		ldi r24,lo8(71)
 12373 598e 90E0      		ldi r25,hi8(71)
 12374 5990 6EE4      		ldi r22,lo8(78)
 12375 5992 70E0      		ldi r23,hi8(78)
 12376 5994 4FEF      		ldi r20,lo8(-1)
 12377 5996 0E94 0000 		call lcd_graphics_plot_pixel
 12378               	.LM1628:
 12379 599a 88E4      		ldi r24,lo8(72)
 12380 599c 90E0      		ldi r25,hi8(72)
 12381 599e 65E0      		ldi r22,lo8(5)
 12382 59a0 70E0      		ldi r23,hi8(5)
 12383 59a2 4FEF      		ldi r20,lo8(-1)
 12384 59a4 0E94 0000 		call lcd_graphics_plot_pixel
 12385               	.LM1629:
 12386 59a8 88E4      		ldi r24,lo8(72)
 12387 59aa 90E0      		ldi r25,hi8(72)
 12388 59ac 66E0      		ldi r22,lo8(6)
 12389 59ae 70E0      		ldi r23,hi8(6)
 12390 59b0 4FEF      		ldi r20,lo8(-1)
 12391 59b2 0E94 0000 		call lcd_graphics_plot_pixel
 12392               	.LM1630:
 12393 59b6 88E4      		ldi r24,lo8(72)
 12394 59b8 90E0      		ldi r25,hi8(72)
 12395 59ba 67E0      		ldi r22,lo8(7)
 12396 59bc 70E0      		ldi r23,hi8(7)
 12397 59be 4FEF      		ldi r20,lo8(-1)
 12398 59c0 0E94 0000 		call lcd_graphics_plot_pixel
 12399               	.LM1631:
 12400 59c4 88E4      		ldi r24,lo8(72)
 12401 59c6 90E0      		ldi r25,hi8(72)
 12402 59c8 68E0      		ldi r22,lo8(8)
 12403 59ca 70E0      		ldi r23,hi8(8)
 12404 59cc 4FEF      		ldi r20,lo8(-1)
 12405 59ce 0E94 0000 		call lcd_graphics_plot_pixel
 12406               	.LM1632:
 12407 59d2 88E4      		ldi r24,lo8(72)
 12408 59d4 90E0      		ldi r25,hi8(72)
 12409 59d6 69E0      		ldi r22,lo8(9)
 12410 59d8 70E0      		ldi r23,hi8(9)
 12411 59da 4FEF      		ldi r20,lo8(-1)
 12412 59dc 0E94 0000 		call lcd_graphics_plot_pixel
 12413               	.LM1633:
 12414 59e0 88E4      		ldi r24,lo8(72)
 12415 59e2 90E0      		ldi r25,hi8(72)
 12416 59e4 6AE0      		ldi r22,lo8(10)
 12417 59e6 70E0      		ldi r23,hi8(10)
 12418 59e8 4FEF      		ldi r20,lo8(-1)
 12419 59ea 0E94 0000 		call lcd_graphics_plot_pixel
 12420               	.LM1634:
 12421 59ee 88E4      		ldi r24,lo8(72)
 12422 59f0 90E0      		ldi r25,hi8(72)
 12423 59f2 6BE0      		ldi r22,lo8(11)
 12424 59f4 70E0      		ldi r23,hi8(11)
 12425 59f6 4FEF      		ldi r20,lo8(-1)
 12426 59f8 0E94 0000 		call lcd_graphics_plot_pixel
 12427               	.LM1635:
 12428 59fc 88E4      		ldi r24,lo8(72)
 12429 59fe 90E0      		ldi r25,hi8(72)
 12430 5a00 6CE0      		ldi r22,lo8(12)
 12431 5a02 70E0      		ldi r23,hi8(12)
 12432 5a04 4FEF      		ldi r20,lo8(-1)
 12433 5a06 0E94 0000 		call lcd_graphics_plot_pixel
 12434               	.LM1636:
 12435 5a0a 88E4      		ldi r24,lo8(72)
 12436 5a0c 90E0      		ldi r25,hi8(72)
 12437 5a0e 6DE0      		ldi r22,lo8(13)
 12438 5a10 70E0      		ldi r23,hi8(13)
 12439 5a12 4FEF      		ldi r20,lo8(-1)
 12440 5a14 0E94 0000 		call lcd_graphics_plot_pixel
 12441               	.LM1637:
 12442 5a18 88E4      		ldi r24,lo8(72)
 12443 5a1a 90E0      		ldi r25,hi8(72)
 12444 5a1c 6EE0      		ldi r22,lo8(14)
 12445 5a1e 70E0      		ldi r23,hi8(14)
 12446 5a20 4FEF      		ldi r20,lo8(-1)
 12447 5a22 0E94 0000 		call lcd_graphics_plot_pixel
 12448               	.LM1638:
 12449 5a26 88E4      		ldi r24,lo8(72)
 12450 5a28 90E0      		ldi r25,hi8(72)
 12451 5a2a 62E1      		ldi r22,lo8(18)
 12452 5a2c 70E0      		ldi r23,hi8(18)
 12453 5a2e 4FEF      		ldi r20,lo8(-1)
 12454 5a30 0E94 0000 		call lcd_graphics_plot_pixel
 12455               	.LM1639:
 12456 5a34 88E4      		ldi r24,lo8(72)
 12457 5a36 90E0      		ldi r25,hi8(72)
 12458 5a38 63E1      		ldi r22,lo8(19)
 12459 5a3a 70E0      		ldi r23,hi8(19)
 12460 5a3c 4FEF      		ldi r20,lo8(-1)
 12461 5a3e 0E94 0000 		call lcd_graphics_plot_pixel
 12462               	.LM1640:
 12463 5a42 88E4      		ldi r24,lo8(72)
 12464 5a44 90E0      		ldi r25,hi8(72)
 12465 5a46 64E1      		ldi r22,lo8(20)
 12466 5a48 70E0      		ldi r23,hi8(20)
 12467 5a4a 4FEF      		ldi r20,lo8(-1)
 12468 5a4c 0E94 0000 		call lcd_graphics_plot_pixel
 12469               	.LM1641:
 12470 5a50 88E4      		ldi r24,lo8(72)
 12471 5a52 90E0      		ldi r25,hi8(72)
 12472 5a54 65E1      		ldi r22,lo8(21)
 12473 5a56 70E0      		ldi r23,hi8(21)
 12474 5a58 4FEF      		ldi r20,lo8(-1)
 12475 5a5a 0E94 0000 		call lcd_graphics_plot_pixel
 12476               	.LM1642:
 12477 5a5e 88E4      		ldi r24,lo8(72)
 12478 5a60 90E0      		ldi r25,hi8(72)
 12479 5a62 6CE4      		ldi r22,lo8(76)
 12480 5a64 70E0      		ldi r23,hi8(76)
 12481 5a66 4FEF      		ldi r20,lo8(-1)
 12482 5a68 0E94 0000 		call lcd_graphics_plot_pixel
 12483               	.LM1643:
 12484 5a6c 88E4      		ldi r24,lo8(72)
 12485 5a6e 90E0      		ldi r25,hi8(72)
 12486 5a70 6DE4      		ldi r22,lo8(77)
 12487 5a72 70E0      		ldi r23,hi8(77)
 12488 5a74 4FEF      		ldi r20,lo8(-1)
 12489 5a76 0E94 0000 		call lcd_graphics_plot_pixel
 12490               	.LM1644:
 12491 5a7a 88E4      		ldi r24,lo8(72)
 12492 5a7c 90E0      		ldi r25,hi8(72)
 12493 5a7e 6EE4      		ldi r22,lo8(78)
 12494 5a80 70E0      		ldi r23,hi8(78)
 12495 5a82 4FEF      		ldi r20,lo8(-1)
 12496 5a84 0E94 0000 		call lcd_graphics_plot_pixel
 12497               	.LM1645:
 12498 5a88 89E4      		ldi r24,lo8(73)
 12499 5a8a 90E0      		ldi r25,hi8(73)
 12500 5a8c 64E0      		ldi r22,lo8(4)
 12501 5a8e 70E0      		ldi r23,hi8(4)
 12502 5a90 4FEF      		ldi r20,lo8(-1)
 12503 5a92 0E94 0000 		call lcd_graphics_plot_pixel
 12504               	.LM1646:
 12505 5a96 89E4      		ldi r24,lo8(73)
 12506 5a98 90E0      		ldi r25,hi8(73)
 12507 5a9a 65E0      		ldi r22,lo8(5)
 12508 5a9c 70E0      		ldi r23,hi8(5)
 12509 5a9e 4FEF      		ldi r20,lo8(-1)
 12510 5aa0 0E94 0000 		call lcd_graphics_plot_pixel
 12511               	.LM1647:
 12512 5aa4 89E4      		ldi r24,lo8(73)
 12513 5aa6 90E0      		ldi r25,hi8(73)
 12514 5aa8 68E0      		ldi r22,lo8(8)
 12515 5aaa 70E0      		ldi r23,hi8(8)
 12516 5aac 4FEF      		ldi r20,lo8(-1)
 12517 5aae 0E94 0000 		call lcd_graphics_plot_pixel
 12518               	.LM1648:
 12519 5ab2 89E4      		ldi r24,lo8(73)
 12520 5ab4 90E0      		ldi r25,hi8(73)
 12521 5ab6 69E0      		ldi r22,lo8(9)
 12522 5ab8 70E0      		ldi r23,hi8(9)
 12523 5aba 4FEF      		ldi r20,lo8(-1)
 12524 5abc 0E94 0000 		call lcd_graphics_plot_pixel
 12525               	.LM1649:
 12526 5ac0 89E4      		ldi r24,lo8(73)
 12527 5ac2 90E0      		ldi r25,hi8(73)
 12528 5ac4 6AE0      		ldi r22,lo8(10)
 12529 5ac6 70E0      		ldi r23,hi8(10)
 12530 5ac8 4FEF      		ldi r20,lo8(-1)
 12531 5aca 0E94 0000 		call lcd_graphics_plot_pixel
 12532               	.LM1650:
 12533 5ace 89E4      		ldi r24,lo8(73)
 12534 5ad0 90E0      		ldi r25,hi8(73)
 12535 5ad2 6BE0      		ldi r22,lo8(11)
 12536 5ad4 70E0      		ldi r23,hi8(11)
 12537 5ad6 4FEF      		ldi r20,lo8(-1)
 12538 5ad8 0E94 0000 		call lcd_graphics_plot_pixel
 12539               	.LM1651:
 12540 5adc 89E4      		ldi r24,lo8(73)
 12541 5ade 90E0      		ldi r25,hi8(73)
 12542 5ae0 6CE0      		ldi r22,lo8(12)
 12543 5ae2 70E0      		ldi r23,hi8(12)
 12544 5ae4 4FEF      		ldi r20,lo8(-1)
 12545 5ae6 0E94 0000 		call lcd_graphics_plot_pixel
 12546               	.LM1652:
 12547 5aea 89E4      		ldi r24,lo8(73)
 12548 5aec 90E0      		ldi r25,hi8(73)
 12549 5aee 6DE0      		ldi r22,lo8(13)
 12550 5af0 70E0      		ldi r23,hi8(13)
 12551 5af2 4FEF      		ldi r20,lo8(-1)
 12552 5af4 0E94 0000 		call lcd_graphics_plot_pixel
 12553               	.LM1653:
 12554 5af8 89E4      		ldi r24,lo8(73)
 12555 5afa 90E0      		ldi r25,hi8(73)
 12556 5afc 6EE0      		ldi r22,lo8(14)
 12557 5afe 70E0      		ldi r23,hi8(14)
 12558 5b00 4FEF      		ldi r20,lo8(-1)
 12559 5b02 0E94 0000 		call lcd_graphics_plot_pixel
 12560               	.LM1654:
 12561 5b06 89E4      		ldi r24,lo8(73)
 12562 5b08 90E0      		ldi r25,hi8(73)
 12563 5b0a 62E1      		ldi r22,lo8(18)
 12564 5b0c 70E0      		ldi r23,hi8(18)
 12565 5b0e 4FEF      		ldi r20,lo8(-1)
 12566 5b10 0E94 0000 		call lcd_graphics_plot_pixel
 12567               	.LM1655:
 12568 5b14 89E4      		ldi r24,lo8(73)
 12569 5b16 90E0      		ldi r25,hi8(73)
 12570 5b18 63E1      		ldi r22,lo8(19)
 12571 5b1a 70E0      		ldi r23,hi8(19)
 12572 5b1c 4FEF      		ldi r20,lo8(-1)
 12573 5b1e 0E94 0000 		call lcd_graphics_plot_pixel
 12574               	.LM1656:
 12575 5b22 89E4      		ldi r24,lo8(73)
 12576 5b24 90E0      		ldi r25,hi8(73)
 12577 5b26 64E1      		ldi r22,lo8(20)
 12578 5b28 70E0      		ldi r23,hi8(20)
 12579 5b2a 4FEF      		ldi r20,lo8(-1)
 12580 5b2c 0E94 0000 		call lcd_graphics_plot_pixel
 12581               	.LM1657:
 12582 5b30 89E4      		ldi r24,lo8(73)
 12583 5b32 90E0      		ldi r25,hi8(73)
 12584 5b34 65E1      		ldi r22,lo8(21)
 12585 5b36 70E0      		ldi r23,hi8(21)
 12586 5b38 4FEF      		ldi r20,lo8(-1)
 12587 5b3a 0E94 0000 		call lcd_graphics_plot_pixel
 12588               	.LM1658:
 12589 5b3e 89E4      		ldi r24,lo8(73)
 12590 5b40 90E0      		ldi r25,hi8(73)
 12591 5b42 66E1      		ldi r22,lo8(22)
 12592 5b44 70E0      		ldi r23,hi8(22)
 12593 5b46 4FEF      		ldi r20,lo8(-1)
 12594 5b48 0E94 0000 		call lcd_graphics_plot_pixel
 12595               	.LM1659:
 12596 5b4c 89E4      		ldi r24,lo8(73)
 12597 5b4e 90E0      		ldi r25,hi8(73)
 12598 5b50 6CE4      		ldi r22,lo8(76)
 12599 5b52 70E0      		ldi r23,hi8(76)
 12600 5b54 4FEF      		ldi r20,lo8(-1)
 12601 5b56 0E94 0000 		call lcd_graphics_plot_pixel
 12602               	.LM1660:
 12603 5b5a 89E4      		ldi r24,lo8(73)
 12604 5b5c 90E0      		ldi r25,hi8(73)
 12605 5b5e 6DE4      		ldi r22,lo8(77)
 12606 5b60 70E0      		ldi r23,hi8(77)
 12607 5b62 4FEF      		ldi r20,lo8(-1)
 12608 5b64 0E94 0000 		call lcd_graphics_plot_pixel
 12609               	.LM1661:
 12610 5b68 89E4      		ldi r24,lo8(73)
 12611 5b6a 90E0      		ldi r25,hi8(73)
 12612 5b6c 6EE4      		ldi r22,lo8(78)
 12613 5b6e 70E0      		ldi r23,hi8(78)
 12614 5b70 4FEF      		ldi r20,lo8(-1)
 12615 5b72 0E94 0000 		call lcd_graphics_plot_pixel
 12616               	.LM1662:
 12617 5b76 89E4      		ldi r24,lo8(73)
 12618 5b78 90E0      		ldi r25,hi8(73)
 12619 5b7a 6FE4      		ldi r22,lo8(79)
 12620 5b7c 70E0      		ldi r23,hi8(79)
 12621 5b7e 4FEF      		ldi r20,lo8(-1)
 12622 5b80 0E94 0000 		call lcd_graphics_plot_pixel
 12623               	.LM1663:
 12624 5b84 8AE4      		ldi r24,lo8(74)
 12625 5b86 90E0      		ldi r25,hi8(74)
 12626 5b88 64E0      		ldi r22,lo8(4)
 12627 5b8a 70E0      		ldi r23,hi8(4)
 12628 5b8c 4FEF      		ldi r20,lo8(-1)
 12629 5b8e 0E94 0000 		call lcd_graphics_plot_pixel
 12630               	.LM1664:
 12631 5b92 8AE4      		ldi r24,lo8(74)
 12632 5b94 90E0      		ldi r25,hi8(74)
 12633 5b96 69E0      		ldi r22,lo8(9)
 12634 5b98 70E0      		ldi r23,hi8(9)
 12635 5b9a 4FEF      		ldi r20,lo8(-1)
 12636 5b9c 0E94 0000 		call lcd_graphics_plot_pixel
 12637               	.LM1665:
 12638 5ba0 8AE4      		ldi r24,lo8(74)
 12639 5ba2 90E0      		ldi r25,hi8(74)
 12640 5ba4 6AE0      		ldi r22,lo8(10)
 12641 5ba6 70E0      		ldi r23,hi8(10)
 12642 5ba8 4FEF      		ldi r20,lo8(-1)
 12643 5baa 0E94 0000 		call lcd_graphics_plot_pixel
 12644               	.LM1666:
 12645 5bae 8AE4      		ldi r24,lo8(74)
 12646 5bb0 90E0      		ldi r25,hi8(74)
 12647 5bb2 6BE0      		ldi r22,lo8(11)
 12648 5bb4 70E0      		ldi r23,hi8(11)
 12649 5bb6 4FEF      		ldi r20,lo8(-1)
 12650 5bb8 0E94 0000 		call lcd_graphics_plot_pixel
 12651               	.LM1667:
 12652 5bbc 8AE4      		ldi r24,lo8(74)
 12653 5bbe 90E0      		ldi r25,hi8(74)
 12654 5bc0 6CE0      		ldi r22,lo8(12)
 12655 5bc2 70E0      		ldi r23,hi8(12)
 12656 5bc4 4FEF      		ldi r20,lo8(-1)
 12657 5bc6 0E94 0000 		call lcd_graphics_plot_pixel
 12658               	.LM1668:
 12659 5bca 8AE4      		ldi r24,lo8(74)
 12660 5bcc 90E0      		ldi r25,hi8(74)
 12661 5bce 6DE0      		ldi r22,lo8(13)
 12662 5bd0 70E0      		ldi r23,hi8(13)
 12663 5bd2 4FEF      		ldi r20,lo8(-1)
 12664 5bd4 0E94 0000 		call lcd_graphics_plot_pixel
 12665               	.LM1669:
 12666 5bd8 8AE4      		ldi r24,lo8(74)
 12667 5bda 90E0      		ldi r25,hi8(74)
 12668 5bdc 6EE0      		ldi r22,lo8(14)
 12669 5bde 70E0      		ldi r23,hi8(14)
 12670 5be0 4FEF      		ldi r20,lo8(-1)
 12671 5be2 0E94 0000 		call lcd_graphics_plot_pixel
 12672               	.LM1670:
 12673 5be6 8AE4      		ldi r24,lo8(74)
 12674 5be8 90E0      		ldi r25,hi8(74)
 12675 5bea 6FE0      		ldi r22,lo8(15)
 12676 5bec 70E0      		ldi r23,hi8(15)
 12677 5bee 4FEF      		ldi r20,lo8(-1)
 12678 5bf0 0E94 0000 		call lcd_graphics_plot_pixel
 12679               	.LM1671:
 12680 5bf4 8AE4      		ldi r24,lo8(74)
 12681 5bf6 90E0      		ldi r25,hi8(74)
 12682 5bf8 63E1      		ldi r22,lo8(19)
 12683 5bfa 70E0      		ldi r23,hi8(19)
 12684 5bfc 4FEF      		ldi r20,lo8(-1)
 12685 5bfe 0E94 0000 		call lcd_graphics_plot_pixel
 12686               	.LM1672:
 12687 5c02 8AE4      		ldi r24,lo8(74)
 12688 5c04 90E0      		ldi r25,hi8(74)
 12689 5c06 64E1      		ldi r22,lo8(20)
 12690 5c08 70E0      		ldi r23,hi8(20)
 12691 5c0a 4FEF      		ldi r20,lo8(-1)
 12692 5c0c 0E94 0000 		call lcd_graphics_plot_pixel
 12693               	.LM1673:
 12694 5c10 8AE4      		ldi r24,lo8(74)
 12695 5c12 90E0      		ldi r25,hi8(74)
 12696 5c14 65E1      		ldi r22,lo8(21)
 12697 5c16 70E0      		ldi r23,hi8(21)
 12698 5c18 4FEF      		ldi r20,lo8(-1)
 12699 5c1a 0E94 0000 		call lcd_graphics_plot_pixel
 12700               	.LM1674:
 12701 5c1e 8AE4      		ldi r24,lo8(74)
 12702 5c20 90E0      		ldi r25,hi8(74)
 12703 5c22 66E1      		ldi r22,lo8(22)
 12704 5c24 70E0      		ldi r23,hi8(22)
 12705 5c26 4FEF      		ldi r20,lo8(-1)
 12706 5c28 0E94 0000 		call lcd_graphics_plot_pixel
 12707               	.LM1675:
 12708 5c2c 8AE4      		ldi r24,lo8(74)
 12709 5c2e 90E0      		ldi r25,hi8(74)
 12710 5c30 6CE4      		ldi r22,lo8(76)
 12711 5c32 70E0      		ldi r23,hi8(76)
 12712 5c34 4FEF      		ldi r20,lo8(-1)
 12713 5c36 0E94 0000 		call lcd_graphics_plot_pixel
 12714               	.LM1676:
 12715 5c3a 8AE4      		ldi r24,lo8(74)
 12716 5c3c 90E0      		ldi r25,hi8(74)
 12717 5c3e 6DE4      		ldi r22,lo8(77)
 12718 5c40 70E0      		ldi r23,hi8(77)
 12719 5c42 4FEF      		ldi r20,lo8(-1)
 12720 5c44 0E94 0000 		call lcd_graphics_plot_pixel
 12721               	.LM1677:
 12722 5c48 8AE4      		ldi r24,lo8(74)
 12723 5c4a 90E0      		ldi r25,hi8(74)
 12724 5c4c 6EE4      		ldi r22,lo8(78)
 12725 5c4e 70E0      		ldi r23,hi8(78)
 12726 5c50 4FEF      		ldi r20,lo8(-1)
 12727 5c52 0E94 0000 		call lcd_graphics_plot_pixel
 12728               	.LM1678:
 12729 5c56 8AE4      		ldi r24,lo8(74)
 12730 5c58 90E0      		ldi r25,hi8(74)
 12731 5c5a 6FE4      		ldi r22,lo8(79)
 12732 5c5c 70E0      		ldi r23,hi8(79)
 12733 5c5e 4FEF      		ldi r20,lo8(-1)
 12734 5c60 0E94 0000 		call lcd_graphics_plot_pixel
 12735               	.LM1679:
 12736 5c64 8BE4      		ldi r24,lo8(75)
 12737 5c66 90E0      		ldi r25,hi8(75)
 12738 5c68 63E0      		ldi r22,lo8(3)
 12739 5c6a 70E0      		ldi r23,hi8(3)
 12740 5c6c 4FEF      		ldi r20,lo8(-1)
 12741 5c6e 0E94 0000 		call lcd_graphics_plot_pixel
 12742               	.LM1680:
 12743 5c72 8BE4      		ldi r24,lo8(75)
 12744 5c74 90E0      		ldi r25,hi8(75)
 12745 5c76 64E0      		ldi r22,lo8(4)
 12746 5c78 70E0      		ldi r23,hi8(4)
 12747 5c7a 4FEF      		ldi r20,lo8(-1)
 12748 5c7c 0E94 0000 		call lcd_graphics_plot_pixel
 12749               	.LM1681:
 12750 5c80 8BE4      		ldi r24,lo8(75)
 12751 5c82 90E0      		ldi r25,hi8(75)
 12752 5c84 69E0      		ldi r22,lo8(9)
 12753 5c86 70E0      		ldi r23,hi8(9)
 12754 5c88 4FEF      		ldi r20,lo8(-1)
 12755 5c8a 0E94 0000 		call lcd_graphics_plot_pixel
 12756               	.LM1682:
 12757 5c8e 8BE4      		ldi r24,lo8(75)
 12758 5c90 90E0      		ldi r25,hi8(75)
 12759 5c92 6AE0      		ldi r22,lo8(10)
 12760 5c94 70E0      		ldi r23,hi8(10)
 12761 5c96 4FEF      		ldi r20,lo8(-1)
 12762 5c98 0E94 0000 		call lcd_graphics_plot_pixel
 12763               	.LM1683:
 12764 5c9c 8BE4      		ldi r24,lo8(75)
 12765 5c9e 90E0      		ldi r25,hi8(75)
 12766 5ca0 6BE0      		ldi r22,lo8(11)
 12767 5ca2 70E0      		ldi r23,hi8(11)
 12768 5ca4 4FEF      		ldi r20,lo8(-1)
 12769 5ca6 0E94 0000 		call lcd_graphics_plot_pixel
 12770               	.LM1684:
 12771 5caa 8BE4      		ldi r24,lo8(75)
 12772 5cac 90E0      		ldi r25,hi8(75)
 12773 5cae 6CE0      		ldi r22,lo8(12)
 12774 5cb0 70E0      		ldi r23,hi8(12)
 12775 5cb2 4FEF      		ldi r20,lo8(-1)
 12776 5cb4 0E94 0000 		call lcd_graphics_plot_pixel
 12777               	.LM1685:
 12778 5cb8 8BE4      		ldi r24,lo8(75)
 12779 5cba 90E0      		ldi r25,hi8(75)
 12780 5cbc 6DE0      		ldi r22,lo8(13)
 12781 5cbe 70E0      		ldi r23,hi8(13)
 12782 5cc0 4FEF      		ldi r20,lo8(-1)
 12783 5cc2 0E94 0000 		call lcd_graphics_plot_pixel
 12784               	.LM1686:
 12785 5cc6 8BE4      		ldi r24,lo8(75)
 12786 5cc8 90E0      		ldi r25,hi8(75)
 12787 5cca 6EE0      		ldi r22,lo8(14)
 12788 5ccc 70E0      		ldi r23,hi8(14)
 12789 5cce 4FEF      		ldi r20,lo8(-1)
 12790 5cd0 0E94 0000 		call lcd_graphics_plot_pixel
 12791               	.LM1687:
 12792 5cd4 8BE4      		ldi r24,lo8(75)
 12793 5cd6 90E0      		ldi r25,hi8(75)
 12794 5cd8 6FE0      		ldi r22,lo8(15)
 12795 5cda 70E0      		ldi r23,hi8(15)
 12796 5cdc 4FEF      		ldi r20,lo8(-1)
 12797 5cde 0E94 0000 		call lcd_graphics_plot_pixel
 12798               	.LM1688:
 12799 5ce2 8BE4      		ldi r24,lo8(75)
 12800 5ce4 90E0      		ldi r25,hi8(75)
 12801 5ce6 63E1      		ldi r22,lo8(19)
 12802 5ce8 70E0      		ldi r23,hi8(19)
 12803 5cea 4FEF      		ldi r20,lo8(-1)
 12804 5cec 0E94 0000 		call lcd_graphics_plot_pixel
 12805               	.LM1689:
 12806 5cf0 8BE4      		ldi r24,lo8(75)
 12807 5cf2 90E0      		ldi r25,hi8(75)
 12808 5cf4 64E1      		ldi r22,lo8(20)
 12809 5cf6 70E0      		ldi r23,hi8(20)
 12810 5cf8 4FEF      		ldi r20,lo8(-1)
 12811 5cfa 0E94 0000 		call lcd_graphics_plot_pixel
 12812               	.LM1690:
 12813 5cfe 8BE4      		ldi r24,lo8(75)
 12814 5d00 90E0      		ldi r25,hi8(75)
 12815 5d02 65E1      		ldi r22,lo8(21)
 12816 5d04 70E0      		ldi r23,hi8(21)
 12817 5d06 4FEF      		ldi r20,lo8(-1)
 12818 5d08 0E94 0000 		call lcd_graphics_plot_pixel
 12819               	.LM1691:
 12820 5d0c 8BE4      		ldi r24,lo8(75)
 12821 5d0e 90E0      		ldi r25,hi8(75)
 12822 5d10 66E1      		ldi r22,lo8(22)
 12823 5d12 70E0      		ldi r23,hi8(22)
 12824 5d14 4FEF      		ldi r20,lo8(-1)
 12825 5d16 0E94 0000 		call lcd_graphics_plot_pixel
 12826               	.LM1692:
 12827 5d1a 8BE4      		ldi r24,lo8(75)
 12828 5d1c 90E0      		ldi r25,hi8(75)
 12829 5d1e 6CE4      		ldi r22,lo8(76)
 12830 5d20 70E0      		ldi r23,hi8(76)
 12831 5d22 4FEF      		ldi r20,lo8(-1)
 12832 5d24 0E94 0000 		call lcd_graphics_plot_pixel
 12833               	.LM1693:
 12834 5d28 8BE4      		ldi r24,lo8(75)
 12835 5d2a 90E0      		ldi r25,hi8(75)
 12836 5d2c 6DE4      		ldi r22,lo8(77)
 12837 5d2e 70E0      		ldi r23,hi8(77)
 12838 5d30 4FEF      		ldi r20,lo8(-1)
 12839 5d32 0E94 0000 		call lcd_graphics_plot_pixel
 12840               	.LM1694:
 12841 5d36 8BE4      		ldi r24,lo8(75)
 12842 5d38 90E0      		ldi r25,hi8(75)
 12843 5d3a 6EE4      		ldi r22,lo8(78)
 12844 5d3c 70E0      		ldi r23,hi8(78)
 12845 5d3e 4FEF      		ldi r20,lo8(-1)
 12846 5d40 0E94 0000 		call lcd_graphics_plot_pixel
 12847               	.LM1695:
 12848 5d44 8BE4      		ldi r24,lo8(75)
 12849 5d46 90E0      		ldi r25,hi8(75)
 12850 5d48 6FE4      		ldi r22,lo8(79)
 12851 5d4a 70E0      		ldi r23,hi8(79)
 12852 5d4c 4FEF      		ldi r20,lo8(-1)
 12853 5d4e 0E94 0000 		call lcd_graphics_plot_pixel
 12854               	.LM1696:
 12855 5d52 8CE4      		ldi r24,lo8(76)
 12856 5d54 90E0      		ldi r25,hi8(76)
 12857 5d56 63E0      		ldi r22,lo8(3)
 12858 5d58 70E0      		ldi r23,hi8(3)
 12859 5d5a 4FEF      		ldi r20,lo8(-1)
 12860 5d5c 0E94 0000 		call lcd_graphics_plot_pixel
 12861               	.LM1697:
 12862 5d60 8CE4      		ldi r24,lo8(76)
 12863 5d62 90E0      		ldi r25,hi8(76)
 12864 5d64 64E0      		ldi r22,lo8(4)
 12865 5d66 70E0      		ldi r23,hi8(4)
 12866 5d68 4FEF      		ldi r20,lo8(-1)
 12867 5d6a 0E94 0000 		call lcd_graphics_plot_pixel
 12868               	.LM1698:
 12869 5d6e 8CE4      		ldi r24,lo8(76)
 12870 5d70 90E0      		ldi r25,hi8(76)
 12871 5d72 69E0      		ldi r22,lo8(9)
 12872 5d74 70E0      		ldi r23,hi8(9)
 12873 5d76 4FEF      		ldi r20,lo8(-1)
 12874 5d78 0E94 0000 		call lcd_graphics_plot_pixel
 12875               	.LM1699:
 12876 5d7c 8CE4      		ldi r24,lo8(76)
 12877 5d7e 90E0      		ldi r25,hi8(76)
 12878 5d80 6AE0      		ldi r22,lo8(10)
 12879 5d82 70E0      		ldi r23,hi8(10)
 12880 5d84 4FEF      		ldi r20,lo8(-1)
 12881 5d86 0E94 0000 		call lcd_graphics_plot_pixel
 12882               	.LM1700:
 12883 5d8a 8CE4      		ldi r24,lo8(76)
 12884 5d8c 90E0      		ldi r25,hi8(76)
 12885 5d8e 6BE0      		ldi r22,lo8(11)
 12886 5d90 70E0      		ldi r23,hi8(11)
 12887 5d92 4FEF      		ldi r20,lo8(-1)
 12888 5d94 0E94 0000 		call lcd_graphics_plot_pixel
 12889               	.LM1701:
 12890 5d98 8CE4      		ldi r24,lo8(76)
 12891 5d9a 90E0      		ldi r25,hi8(76)
 12892 5d9c 6CE0      		ldi r22,lo8(12)
 12893 5d9e 70E0      		ldi r23,hi8(12)
 12894 5da0 4FEF      		ldi r20,lo8(-1)
 12895 5da2 0E94 0000 		call lcd_graphics_plot_pixel
 12896               	.LM1702:
 12897 5da6 8CE4      		ldi r24,lo8(76)
 12898 5da8 90E0      		ldi r25,hi8(76)
 12899 5daa 6DE0      		ldi r22,lo8(13)
 12900 5dac 70E0      		ldi r23,hi8(13)
 12901 5dae 4FEF      		ldi r20,lo8(-1)
 12902 5db0 0E94 0000 		call lcd_graphics_plot_pixel
 12903               	.LM1703:
 12904 5db4 8CE4      		ldi r24,lo8(76)
 12905 5db6 90E0      		ldi r25,hi8(76)
 12906 5db8 6EE0      		ldi r22,lo8(14)
 12907 5dba 70E0      		ldi r23,hi8(14)
 12908 5dbc 4FEF      		ldi r20,lo8(-1)
 12909 5dbe 0E94 0000 		call lcd_graphics_plot_pixel
 12910               	.LM1704:
 12911 5dc2 8CE4      		ldi r24,lo8(76)
 12912 5dc4 90E0      		ldi r25,hi8(76)
 12913 5dc6 6FE0      		ldi r22,lo8(15)
 12914 5dc8 70E0      		ldi r23,hi8(15)
 12915 5dca 4FEF      		ldi r20,lo8(-1)
 12916 5dcc 0E94 0000 		call lcd_graphics_plot_pixel
 12917               	.LM1705:
 12918 5dd0 8CE4      		ldi r24,lo8(76)
 12919 5dd2 90E0      		ldi r25,hi8(76)
 12920 5dd4 63E1      		ldi r22,lo8(19)
 12921 5dd6 70E0      		ldi r23,hi8(19)
 12922 5dd8 4FEF      		ldi r20,lo8(-1)
 12923 5dda 0E94 0000 		call lcd_graphics_plot_pixel
 12924               	.LM1706:
 12925 5dde 8CE4      		ldi r24,lo8(76)
 12926 5de0 90E0      		ldi r25,hi8(76)
 12927 5de2 64E1      		ldi r22,lo8(20)
 12928 5de4 70E0      		ldi r23,hi8(20)
 12929 5de6 4FEF      		ldi r20,lo8(-1)
 12930 5de8 0E94 0000 		call lcd_graphics_plot_pixel
 12931               	.LM1707:
 12932 5dec 8CE4      		ldi r24,lo8(76)
 12933 5dee 90E0      		ldi r25,hi8(76)
 12934 5df0 65E1      		ldi r22,lo8(21)
 12935 5df2 70E0      		ldi r23,hi8(21)
 12936 5df4 4FEF      		ldi r20,lo8(-1)
 12937 5df6 0E94 0000 		call lcd_graphics_plot_pixel
 12938               	.LM1708:
 12939 5dfa 8CE4      		ldi r24,lo8(76)
 12940 5dfc 90E0      		ldi r25,hi8(76)
 12941 5dfe 66E1      		ldi r22,lo8(22)
 12942 5e00 70E0      		ldi r23,hi8(22)
 12943 5e02 4FEF      		ldi r20,lo8(-1)
 12944 5e04 0E94 0000 		call lcd_graphics_plot_pixel
 12945               	.LM1709:
 12946 5e08 8CE4      		ldi r24,lo8(76)
 12947 5e0a 90E0      		ldi r25,hi8(76)
 12948 5e0c 6CE4      		ldi r22,lo8(76)
 12949 5e0e 70E0      		ldi r23,hi8(76)
 12950 5e10 4FEF      		ldi r20,lo8(-1)
 12951 5e12 0E94 0000 		call lcd_graphics_plot_pixel
 12952               	.LM1710:
 12953 5e16 8CE4      		ldi r24,lo8(76)
 12954 5e18 90E0      		ldi r25,hi8(76)
 12955 5e1a 6DE4      		ldi r22,lo8(77)
 12956 5e1c 70E0      		ldi r23,hi8(77)
 12957 5e1e 4FEF      		ldi r20,lo8(-1)
 12958 5e20 0E94 0000 		call lcd_graphics_plot_pixel
 12959               	.LM1711:
 12960 5e24 8CE4      		ldi r24,lo8(76)
 12961 5e26 90E0      		ldi r25,hi8(76)
 12962 5e28 6EE4      		ldi r22,lo8(78)
 12963 5e2a 70E0      		ldi r23,hi8(78)
 12964 5e2c 4FEF      		ldi r20,lo8(-1)
 12965 5e2e 0E94 0000 		call lcd_graphics_plot_pixel
 12966               	.LM1712:
 12967 5e32 8CE4      		ldi r24,lo8(76)
 12968 5e34 90E0      		ldi r25,hi8(76)
 12969 5e36 6FE4      		ldi r22,lo8(79)
 12970 5e38 70E0      		ldi r23,hi8(79)
 12971 5e3a 4FEF      		ldi r20,lo8(-1)
 12972 5e3c 0E94 0000 		call lcd_graphics_plot_pixel
 12973               	.LM1713:
 12974 5e40 8DE4      		ldi r24,lo8(77)
 12975 5e42 90E0      		ldi r25,hi8(77)
 12976 5e44 63E0      		ldi r22,lo8(3)
 12977 5e46 70E0      		ldi r23,hi8(3)
 12978 5e48 4FEF      		ldi r20,lo8(-1)
 12979 5e4a 0E94 0000 		call lcd_graphics_plot_pixel
 12980               	.LM1714:
 12981 5e4e 8DE4      		ldi r24,lo8(77)
 12982 5e50 90E0      		ldi r25,hi8(77)
 12983 5e52 64E0      		ldi r22,lo8(4)
 12984 5e54 70E0      		ldi r23,hi8(4)
 12985 5e56 4FEF      		ldi r20,lo8(-1)
 12986 5e58 0E94 0000 		call lcd_graphics_plot_pixel
 12987               	.LM1715:
 12988 5e5c 8DE4      		ldi r24,lo8(77)
 12989 5e5e 90E0      		ldi r25,hi8(77)
 12990 5e60 6AE0      		ldi r22,lo8(10)
 12991 5e62 70E0      		ldi r23,hi8(10)
 12992 5e64 4FEF      		ldi r20,lo8(-1)
 12993 5e66 0E94 0000 		call lcd_graphics_plot_pixel
 12994               	.LM1716:
 12995 5e6a 8DE4      		ldi r24,lo8(77)
 12996 5e6c 90E0      		ldi r25,hi8(77)
 12997 5e6e 6BE0      		ldi r22,lo8(11)
 12998 5e70 70E0      		ldi r23,hi8(11)
 12999 5e72 4FEF      		ldi r20,lo8(-1)
 13000 5e74 0E94 0000 		call lcd_graphics_plot_pixel
 13001               	.LM1717:
 13002 5e78 8DE4      		ldi r24,lo8(77)
 13003 5e7a 90E0      		ldi r25,hi8(77)
 13004 5e7c 6CE0      		ldi r22,lo8(12)
 13005 5e7e 70E0      		ldi r23,hi8(12)
 13006 5e80 4FEF      		ldi r20,lo8(-1)
 13007 5e82 0E94 0000 		call lcd_graphics_plot_pixel
 13008               	.LM1718:
 13009 5e86 8DE4      		ldi r24,lo8(77)
 13010 5e88 90E0      		ldi r25,hi8(77)
 13011 5e8a 6DE0      		ldi r22,lo8(13)
 13012 5e8c 70E0      		ldi r23,hi8(13)
 13013 5e8e 4FEF      		ldi r20,lo8(-1)
 13014 5e90 0E94 0000 		call lcd_graphics_plot_pixel
 13015               	.LM1719:
 13016 5e94 8DE4      		ldi r24,lo8(77)
 13017 5e96 90E0      		ldi r25,hi8(77)
 13018 5e98 6EE0      		ldi r22,lo8(14)
 13019 5e9a 70E0      		ldi r23,hi8(14)
 13020 5e9c 4FEF      		ldi r20,lo8(-1)
 13021 5e9e 0E94 0000 		call lcd_graphics_plot_pixel
 13022               	.LM1720:
 13023 5ea2 8DE4      		ldi r24,lo8(77)
 13024 5ea4 90E0      		ldi r25,hi8(77)
 13025 5ea6 6FE0      		ldi r22,lo8(15)
 13026 5ea8 70E0      		ldi r23,hi8(15)
 13027 5eaa 4FEF      		ldi r20,lo8(-1)
 13028 5eac 0E94 0000 		call lcd_graphics_plot_pixel
 13029               	.LM1721:
 13030 5eb0 8DE4      		ldi r24,lo8(77)
 13031 5eb2 90E0      		ldi r25,hi8(77)
 13032 5eb4 60E1      		ldi r22,lo8(16)
 13033 5eb6 70E0      		ldi r23,hi8(16)
 13034 5eb8 4FEF      		ldi r20,lo8(-1)
 13035 5eba 0E94 0000 		call lcd_graphics_plot_pixel
 13036               	.LM1722:
 13037 5ebe 8DE4      		ldi r24,lo8(77)
 13038 5ec0 90E0      		ldi r25,hi8(77)
 13039 5ec2 63E1      		ldi r22,lo8(19)
 13040 5ec4 70E0      		ldi r23,hi8(19)
 13041 5ec6 4FEF      		ldi r20,lo8(-1)
 13042 5ec8 0E94 0000 		call lcd_graphics_plot_pixel
 13043               	.LM1723:
 13044 5ecc 8DE4      		ldi r24,lo8(77)
 13045 5ece 90E0      		ldi r25,hi8(77)
 13046 5ed0 64E1      		ldi r22,lo8(20)
 13047 5ed2 70E0      		ldi r23,hi8(20)
 13048 5ed4 4FEF      		ldi r20,lo8(-1)
 13049 5ed6 0E94 0000 		call lcd_graphics_plot_pixel
 13050               	.LM1724:
 13051 5eda 8DE4      		ldi r24,lo8(77)
 13052 5edc 90E0      		ldi r25,hi8(77)
 13053 5ede 65E1      		ldi r22,lo8(21)
 13054 5ee0 70E0      		ldi r23,hi8(21)
 13055 5ee2 4FEF      		ldi r20,lo8(-1)
 13056 5ee4 0E94 0000 		call lcd_graphics_plot_pixel
 13057               	.LM1725:
 13058 5ee8 8DE4      		ldi r24,lo8(77)
 13059 5eea 90E0      		ldi r25,hi8(77)
 13060 5eec 66E1      		ldi r22,lo8(22)
 13061 5eee 70E0      		ldi r23,hi8(22)
 13062 5ef0 4FEF      		ldi r20,lo8(-1)
 13063 5ef2 0E94 0000 		call lcd_graphics_plot_pixel
 13064               	.LM1726:
 13065 5ef6 8DE4      		ldi r24,lo8(77)
 13066 5ef8 90E0      		ldi r25,hi8(77)
 13067 5efa 67E1      		ldi r22,lo8(23)
 13068 5efc 70E0      		ldi r23,hi8(23)
 13069 5efe 4FEF      		ldi r20,lo8(-1)
 13070 5f00 0E94 0000 		call lcd_graphics_plot_pixel
 13071               	.LM1727:
 13072 5f04 8DE4      		ldi r24,lo8(77)
 13073 5f06 90E0      		ldi r25,hi8(77)
 13074 5f08 6CE4      		ldi r22,lo8(76)
 13075 5f0a 70E0      		ldi r23,hi8(76)
 13076 5f0c 4FEF      		ldi r20,lo8(-1)
 13077 5f0e 0E94 0000 		call lcd_graphics_plot_pixel
 13078               	.LM1728:
 13079 5f12 8DE4      		ldi r24,lo8(77)
 13080 5f14 90E0      		ldi r25,hi8(77)
 13081 5f16 6DE4      		ldi r22,lo8(77)
 13082 5f18 70E0      		ldi r23,hi8(77)
 13083 5f1a 4FEF      		ldi r20,lo8(-1)
 13084 5f1c 0E94 0000 		call lcd_graphics_plot_pixel
 13085               	.LM1729:
 13086 5f20 8DE4      		ldi r24,lo8(77)
 13087 5f22 90E0      		ldi r25,hi8(77)
 13088 5f24 6EE4      		ldi r22,lo8(78)
 13089 5f26 70E0      		ldi r23,hi8(78)
 13090 5f28 4FEF      		ldi r20,lo8(-1)
 13091 5f2a 0E94 0000 		call lcd_graphics_plot_pixel
 13092               	.LM1730:
 13093 5f2e 8DE4      		ldi r24,lo8(77)
 13094 5f30 90E0      		ldi r25,hi8(77)
 13095 5f32 6FE4      		ldi r22,lo8(79)
 13096 5f34 70E0      		ldi r23,hi8(79)
 13097 5f36 4FEF      		ldi r20,lo8(-1)
 13098 5f38 0E94 0000 		call lcd_graphics_plot_pixel
 13099               	.LM1731:
 13100 5f3c 8EE4      		ldi r24,lo8(78)
 13101 5f3e 90E0      		ldi r25,hi8(78)
 13102 5f40 62E0      		ldi r22,lo8(2)
 13103 5f42 70E0      		ldi r23,hi8(2)
 13104 5f44 4FEF      		ldi r20,lo8(-1)
 13105 5f46 0E94 0000 		call lcd_graphics_plot_pixel
 13106               	.LM1732:
 13107 5f4a 8EE4      		ldi r24,lo8(78)
 13108 5f4c 90E0      		ldi r25,hi8(78)
 13109 5f4e 63E0      		ldi r22,lo8(3)
 13110 5f50 70E0      		ldi r23,hi8(3)
 13111 5f52 4FEF      		ldi r20,lo8(-1)
 13112 5f54 0E94 0000 		call lcd_graphics_plot_pixel
 13113               	.LM1733:
 13114 5f58 8EE4      		ldi r24,lo8(78)
 13115 5f5a 90E0      		ldi r25,hi8(78)
 13116 5f5c 6AE0      		ldi r22,lo8(10)
 13117 5f5e 70E0      		ldi r23,hi8(10)
 13118 5f60 4FEF      		ldi r20,lo8(-1)
 13119 5f62 0E94 0000 		call lcd_graphics_plot_pixel
 13120               	.LM1734:
 13121 5f66 8EE4      		ldi r24,lo8(78)
 13122 5f68 90E0      		ldi r25,hi8(78)
 13123 5f6a 6BE0      		ldi r22,lo8(11)
 13124 5f6c 70E0      		ldi r23,hi8(11)
 13125 5f6e 4FEF      		ldi r20,lo8(-1)
 13126 5f70 0E94 0000 		call lcd_graphics_plot_pixel
 13127               	.LM1735:
 13128 5f74 8EE4      		ldi r24,lo8(78)
 13129 5f76 90E0      		ldi r25,hi8(78)
 13130 5f78 6CE0      		ldi r22,lo8(12)
 13131 5f7a 70E0      		ldi r23,hi8(12)
 13132 5f7c 4FEF      		ldi r20,lo8(-1)
 13133 5f7e 0E94 0000 		call lcd_graphics_plot_pixel
 13134               	.LM1736:
 13135 5f82 8EE4      		ldi r24,lo8(78)
 13136 5f84 90E0      		ldi r25,hi8(78)
 13137 5f86 6DE0      		ldi r22,lo8(13)
 13138 5f88 70E0      		ldi r23,hi8(13)
 13139 5f8a 4FEF      		ldi r20,lo8(-1)
 13140 5f8c 0E94 0000 		call lcd_graphics_plot_pixel
 13141               	.LM1737:
 13142 5f90 8EE4      		ldi r24,lo8(78)
 13143 5f92 90E0      		ldi r25,hi8(78)
 13144 5f94 6EE0      		ldi r22,lo8(14)
 13145 5f96 70E0      		ldi r23,hi8(14)
 13146 5f98 4FEF      		ldi r20,lo8(-1)
 13147 5f9a 0E94 0000 		call lcd_graphics_plot_pixel
 13148               	.LM1738:
 13149 5f9e 8EE4      		ldi r24,lo8(78)
 13150 5fa0 90E0      		ldi r25,hi8(78)
 13151 5fa2 6FE0      		ldi r22,lo8(15)
 13152 5fa4 70E0      		ldi r23,hi8(15)
 13153 5fa6 4FEF      		ldi r20,lo8(-1)
 13154 5fa8 0E94 0000 		call lcd_graphics_plot_pixel
 13155               	.LM1739:
 13156 5fac 8EE4      		ldi r24,lo8(78)
 13157 5fae 90E0      		ldi r25,hi8(78)
 13158 5fb0 60E1      		ldi r22,lo8(16)
 13159 5fb2 70E0      		ldi r23,hi8(16)
 13160 5fb4 4FEF      		ldi r20,lo8(-1)
 13161 5fb6 0E94 0000 		call lcd_graphics_plot_pixel
 13162               	.LM1740:
 13163 5fba 8EE4      		ldi r24,lo8(78)
 13164 5fbc 90E0      		ldi r25,hi8(78)
 13165 5fbe 63E1      		ldi r22,lo8(19)
 13166 5fc0 70E0      		ldi r23,hi8(19)
 13167 5fc2 4FEF      		ldi r20,lo8(-1)
 13168 5fc4 0E94 0000 		call lcd_graphics_plot_pixel
 13169               	.LM1741:
 13170 5fc8 8EE4      		ldi r24,lo8(78)
 13171 5fca 90E0      		ldi r25,hi8(78)
 13172 5fcc 64E1      		ldi r22,lo8(20)
 13173 5fce 70E0      		ldi r23,hi8(20)
 13174 5fd0 4FEF      		ldi r20,lo8(-1)
 13175 5fd2 0E94 0000 		call lcd_graphics_plot_pixel
 13176               	.LM1742:
 13177 5fd6 8EE4      		ldi r24,lo8(78)
 13178 5fd8 90E0      		ldi r25,hi8(78)
 13179 5fda 65E1      		ldi r22,lo8(21)
 13180 5fdc 70E0      		ldi r23,hi8(21)
 13181 5fde 4FEF      		ldi r20,lo8(-1)
 13182 5fe0 0E94 0000 		call lcd_graphics_plot_pixel
 13183               	.LM1743:
 13184 5fe4 8EE4      		ldi r24,lo8(78)
 13185 5fe6 90E0      		ldi r25,hi8(78)
 13186 5fe8 66E1      		ldi r22,lo8(22)
 13187 5fea 70E0      		ldi r23,hi8(22)
 13188 5fec 4FEF      		ldi r20,lo8(-1)
 13189 5fee 0E94 0000 		call lcd_graphics_plot_pixel
 13190               	.LM1744:
 13191 5ff2 8EE4      		ldi r24,lo8(78)
 13192 5ff4 90E0      		ldi r25,hi8(78)
 13193 5ff6 67E1      		ldi r22,lo8(23)
 13194 5ff8 70E0      		ldi r23,hi8(23)
 13195 5ffa 4FEF      		ldi r20,lo8(-1)
 13196 5ffc 0E94 0000 		call lcd_graphics_plot_pixel
 13197               	.LM1745:
 13198 6000 8EE4      		ldi r24,lo8(78)
 13199 6002 90E0      		ldi r25,hi8(78)
 13200 6004 6CE4      		ldi r22,lo8(76)
 13201 6006 70E0      		ldi r23,hi8(76)
 13202 6008 4FEF      		ldi r20,lo8(-1)
 13203 600a 0E94 0000 		call lcd_graphics_plot_pixel
 13204               	.LM1746:
 13205 600e 8EE4      		ldi r24,lo8(78)
 13206 6010 90E0      		ldi r25,hi8(78)
 13207 6012 6DE4      		ldi r22,lo8(77)
 13208 6014 70E0      		ldi r23,hi8(77)
 13209 6016 4FEF      		ldi r20,lo8(-1)
 13210 6018 0E94 0000 		call lcd_graphics_plot_pixel
 13211               	.LM1747:
 13212 601c 8EE4      		ldi r24,lo8(78)
 13213 601e 90E0      		ldi r25,hi8(78)
 13214 6020 6EE4      		ldi r22,lo8(78)
 13215 6022 70E0      		ldi r23,hi8(78)
 13216 6024 4FEF      		ldi r20,lo8(-1)
 13217 6026 0E94 0000 		call lcd_graphics_plot_pixel
 13218               	.LM1748:
 13219 602a 8EE4      		ldi r24,lo8(78)
 13220 602c 90E0      		ldi r25,hi8(78)
 13221 602e 6FE4      		ldi r22,lo8(79)
 13222 6030 70E0      		ldi r23,hi8(79)
 13223 6032 4FEF      		ldi r20,lo8(-1)
 13224 6034 0E94 0000 		call lcd_graphics_plot_pixel
 13225               	.LM1749:
 13226 6038 8FE4      		ldi r24,lo8(79)
 13227 603a 90E0      		ldi r25,hi8(79)
 13228 603c 62E0      		ldi r22,lo8(2)
 13229 603e 70E0      		ldi r23,hi8(2)
 13230 6040 4FEF      		ldi r20,lo8(-1)
 13231 6042 0E94 0000 		call lcd_graphics_plot_pixel
 13232               	.LM1750:
 13233 6046 8FE4      		ldi r24,lo8(79)
 13234 6048 90E0      		ldi r25,hi8(79)
 13235 604a 63E0      		ldi r22,lo8(3)
 13236 604c 70E0      		ldi r23,hi8(3)
 13237 604e 4FEF      		ldi r20,lo8(-1)
 13238 6050 0E94 0000 		call lcd_graphics_plot_pixel
 13239               	.LM1751:
 13240 6054 8FE4      		ldi r24,lo8(79)
 13241 6056 90E0      		ldi r25,hi8(79)
 13242 6058 6AE0      		ldi r22,lo8(10)
 13243 605a 70E0      		ldi r23,hi8(10)
 13244 605c 4FEF      		ldi r20,lo8(-1)
 13245 605e 0E94 0000 		call lcd_graphics_plot_pixel
 13246               	.LM1752:
 13247 6062 8FE4      		ldi r24,lo8(79)
 13248 6064 90E0      		ldi r25,hi8(79)
 13249 6066 6BE0      		ldi r22,lo8(11)
 13250 6068 70E0      		ldi r23,hi8(11)
 13251 606a 4FEF      		ldi r20,lo8(-1)
 13252 606c 0E94 0000 		call lcd_graphics_plot_pixel
 13253               	.LM1753:
 13254 6070 8FE4      		ldi r24,lo8(79)
 13255 6072 90E0      		ldi r25,hi8(79)
 13256 6074 6CE0      		ldi r22,lo8(12)
 13257 6076 70E0      		ldi r23,hi8(12)
 13258 6078 4FEF      		ldi r20,lo8(-1)
 13259 607a 0E94 0000 		call lcd_graphics_plot_pixel
 13260               	.LM1754:
 13261 607e 8FE4      		ldi r24,lo8(79)
 13262 6080 90E0      		ldi r25,hi8(79)
 13263 6082 6DE0      		ldi r22,lo8(13)
 13264 6084 70E0      		ldi r23,hi8(13)
 13265 6086 4FEF      		ldi r20,lo8(-1)
 13266 6088 0E94 0000 		call lcd_graphics_plot_pixel
 13267               	.LM1755:
 13268 608c 8FE4      		ldi r24,lo8(79)
 13269 608e 90E0      		ldi r25,hi8(79)
 13270 6090 6EE0      		ldi r22,lo8(14)
 13271 6092 70E0      		ldi r23,hi8(14)
 13272 6094 4FEF      		ldi r20,lo8(-1)
 13273 6096 0E94 0000 		call lcd_graphics_plot_pixel
 13274               	.LM1756:
 13275 609a 8FE4      		ldi r24,lo8(79)
 13276 609c 90E0      		ldi r25,hi8(79)
 13277 609e 6FE0      		ldi r22,lo8(15)
 13278 60a0 70E0      		ldi r23,hi8(15)
 13279 60a2 4FEF      		ldi r20,lo8(-1)
 13280 60a4 0E94 0000 		call lcd_graphics_plot_pixel
 13281               	.LM1757:
 13282 60a8 8FE4      		ldi r24,lo8(79)
 13283 60aa 90E0      		ldi r25,hi8(79)
 13284 60ac 60E1      		ldi r22,lo8(16)
 13285 60ae 70E0      		ldi r23,hi8(16)
 13286 60b0 4FEF      		ldi r20,lo8(-1)
 13287 60b2 0E94 0000 		call lcd_graphics_plot_pixel
 13288               	.LM1758:
 13289 60b6 8FE4      		ldi r24,lo8(79)
 13290 60b8 90E0      		ldi r25,hi8(79)
 13291 60ba 63E1      		ldi r22,lo8(19)
 13292 60bc 70E0      		ldi r23,hi8(19)
 13293 60be 4FEF      		ldi r20,lo8(-1)
 13294 60c0 0E94 0000 		call lcd_graphics_plot_pixel
 13295               	.LM1759:
 13296 60c4 8FE4      		ldi r24,lo8(79)
 13297 60c6 90E0      		ldi r25,hi8(79)
 13298 60c8 64E1      		ldi r22,lo8(20)
 13299 60ca 70E0      		ldi r23,hi8(20)
 13300 60cc 4FEF      		ldi r20,lo8(-1)
 13301 60ce 0E94 0000 		call lcd_graphics_plot_pixel
 13302               	.LM1760:
 13303 60d2 8FE4      		ldi r24,lo8(79)
 13304 60d4 90E0      		ldi r25,hi8(79)
 13305 60d6 65E1      		ldi r22,lo8(21)
 13306 60d8 70E0      		ldi r23,hi8(21)
 13307 60da 4FEF      		ldi r20,lo8(-1)
 13308 60dc 0E94 0000 		call lcd_graphics_plot_pixel
 13309               	.LM1761:
 13310 60e0 8FE4      		ldi r24,lo8(79)
 13311 60e2 90E0      		ldi r25,hi8(79)
 13312 60e4 66E1      		ldi r22,lo8(22)
 13313 60e6 70E0      		ldi r23,hi8(22)
 13314 60e8 4FEF      		ldi r20,lo8(-1)
 13315 60ea 0E94 0000 		call lcd_graphics_plot_pixel
 13316               	.LM1762:
 13317 60ee 8FE4      		ldi r24,lo8(79)
 13318 60f0 90E0      		ldi r25,hi8(79)
 13319 60f2 67E1      		ldi r22,lo8(23)
 13320 60f4 70E0      		ldi r23,hi8(23)
 13321 60f6 4FEF      		ldi r20,lo8(-1)
 13322 60f8 0E94 0000 		call lcd_graphics_plot_pixel
 13323               	.LM1763:
 13324 60fc 8FE4      		ldi r24,lo8(79)
 13325 60fe 90E0      		ldi r25,hi8(79)
 13326 6100 6CE4      		ldi r22,lo8(76)
 13327 6102 70E0      		ldi r23,hi8(76)
 13328 6104 4FEF      		ldi r20,lo8(-1)
 13329 6106 0E94 0000 		call lcd_graphics_plot_pixel
 13330               	.LM1764:
 13331 610a 8FE4      		ldi r24,lo8(79)
 13332 610c 90E0      		ldi r25,hi8(79)
 13333 610e 6DE4      		ldi r22,lo8(77)
 13334 6110 70E0      		ldi r23,hi8(77)
 13335 6112 4FEF      		ldi r20,lo8(-1)
 13336 6114 0E94 0000 		call lcd_graphics_plot_pixel
 13337               	.LM1765:
 13338 6118 8FE4      		ldi r24,lo8(79)
 13339 611a 90E0      		ldi r25,hi8(79)
 13340 611c 6EE4      		ldi r22,lo8(78)
 13341 611e 70E0      		ldi r23,hi8(78)
 13342 6120 4FEF      		ldi r20,lo8(-1)
 13343 6122 0E94 0000 		call lcd_graphics_plot_pixel
 13344               	.LM1766:
 13345 6126 8FE4      		ldi r24,lo8(79)
 13346 6128 90E0      		ldi r25,hi8(79)
 13347 612a 6FE4      		ldi r22,lo8(79)
 13348 612c 70E0      		ldi r23,hi8(79)
 13349 612e 4FEF      		ldi r20,lo8(-1)
 13350 6130 0E94 0000 		call lcd_graphics_plot_pixel
 13351               	.LM1767:
 13352 6134 80E5      		ldi r24,lo8(80)
 13353 6136 90E0      		ldi r25,hi8(80)
 13354 6138 62E0      		ldi r22,lo8(2)
 13355 613a 70E0      		ldi r23,hi8(2)
 13356 613c 4FEF      		ldi r20,lo8(-1)
 13357 613e 0E94 0000 		call lcd_graphics_plot_pixel
 13358               	.LM1768:
 13359 6142 80E5      		ldi r24,lo8(80)
 13360 6144 90E0      		ldi r25,hi8(80)
 13361 6146 63E0      		ldi r22,lo8(3)
 13362 6148 70E0      		ldi r23,hi8(3)
 13363 614a 4FEF      		ldi r20,lo8(-1)
 13364 614c 0E94 0000 		call lcd_graphics_plot_pixel
 13365               	.LM1769:
 13366 6150 80E5      		ldi r24,lo8(80)
 13367 6152 90E0      		ldi r25,hi8(80)
 13368 6154 6AE0      		ldi r22,lo8(10)
 13369 6156 70E0      		ldi r23,hi8(10)
 13370 6158 4FEF      		ldi r20,lo8(-1)
 13371 615a 0E94 0000 		call lcd_graphics_plot_pixel
 13372               	.LM1770:
 13373 615e 80E5      		ldi r24,lo8(80)
 13374 6160 90E0      		ldi r25,hi8(80)
 13375 6162 6BE0      		ldi r22,lo8(11)
 13376 6164 70E0      		ldi r23,hi8(11)
 13377 6166 4FEF      		ldi r20,lo8(-1)
 13378 6168 0E94 0000 		call lcd_graphics_plot_pixel
 13379               	.LM1771:
 13380 616c 80E5      		ldi r24,lo8(80)
 13381 616e 90E0      		ldi r25,hi8(80)
 13382 6170 6CE0      		ldi r22,lo8(12)
 13383 6172 70E0      		ldi r23,hi8(12)
 13384 6174 4FEF      		ldi r20,lo8(-1)
 13385 6176 0E94 0000 		call lcd_graphics_plot_pixel
 13386               	.LM1772:
 13387 617a 80E5      		ldi r24,lo8(80)
 13388 617c 90E0      		ldi r25,hi8(80)
 13389 617e 6DE0      		ldi r22,lo8(13)
 13390 6180 70E0      		ldi r23,hi8(13)
 13391 6182 4FEF      		ldi r20,lo8(-1)
 13392 6184 0E94 0000 		call lcd_graphics_plot_pixel
 13393               	.LM1773:
 13394 6188 80E5      		ldi r24,lo8(80)
 13395 618a 90E0      		ldi r25,hi8(80)
 13396 618c 6EE0      		ldi r22,lo8(14)
 13397 618e 70E0      		ldi r23,hi8(14)
 13398 6190 4FEF      		ldi r20,lo8(-1)
 13399 6192 0E94 0000 		call lcd_graphics_plot_pixel
 13400               	.LM1774:
 13401 6196 80E5      		ldi r24,lo8(80)
 13402 6198 90E0      		ldi r25,hi8(80)
 13403 619a 6FE0      		ldi r22,lo8(15)
 13404 619c 70E0      		ldi r23,hi8(15)
 13405 619e 4FEF      		ldi r20,lo8(-1)
 13406 61a0 0E94 0000 		call lcd_graphics_plot_pixel
 13407               	.LM1775:
 13408 61a4 80E5      		ldi r24,lo8(80)
 13409 61a6 90E0      		ldi r25,hi8(80)
 13410 61a8 60E1      		ldi r22,lo8(16)
 13411 61aa 70E0      		ldi r23,hi8(16)
 13412 61ac 4FEF      		ldi r20,lo8(-1)
 13413 61ae 0E94 0000 		call lcd_graphics_plot_pixel
 13414               	.LM1776:
 13415 61b2 80E5      		ldi r24,lo8(80)
 13416 61b4 90E0      		ldi r25,hi8(80)
 13417 61b6 63E1      		ldi r22,lo8(19)
 13418 61b8 70E0      		ldi r23,hi8(19)
 13419 61ba 4FEF      		ldi r20,lo8(-1)
 13420 61bc 0E94 0000 		call lcd_graphics_plot_pixel
 13421               	.LM1777:
 13422 61c0 80E5      		ldi r24,lo8(80)
 13423 61c2 90E0      		ldi r25,hi8(80)
 13424 61c4 64E1      		ldi r22,lo8(20)
 13425 61c6 70E0      		ldi r23,hi8(20)
 13426 61c8 4FEF      		ldi r20,lo8(-1)
 13427 61ca 0E94 0000 		call lcd_graphics_plot_pixel
 13428               	.LM1778:
 13429 61ce 80E5      		ldi r24,lo8(80)
 13430 61d0 90E0      		ldi r25,hi8(80)
 13431 61d2 65E1      		ldi r22,lo8(21)
 13432 61d4 70E0      		ldi r23,hi8(21)
 13433 61d6 4FEF      		ldi r20,lo8(-1)
 13434 61d8 0E94 0000 		call lcd_graphics_plot_pixel
 13435               	.LM1779:
 13436 61dc 80E5      		ldi r24,lo8(80)
 13437 61de 90E0      		ldi r25,hi8(80)
 13438 61e0 66E1      		ldi r22,lo8(22)
 13439 61e2 70E0      		ldi r23,hi8(22)
 13440 61e4 4FEF      		ldi r20,lo8(-1)
 13441 61e6 0E94 0000 		call lcd_graphics_plot_pixel
 13442               	.LM1780:
 13443 61ea 80E5      		ldi r24,lo8(80)
 13444 61ec 90E0      		ldi r25,hi8(80)
 13445 61ee 67E1      		ldi r22,lo8(23)
 13446 61f0 70E0      		ldi r23,hi8(23)
 13447 61f2 4FEF      		ldi r20,lo8(-1)
 13448 61f4 0E94 0000 		call lcd_graphics_plot_pixel
 13449               	.LM1781:
 13450 61f8 80E5      		ldi r24,lo8(80)
 13451 61fa 90E0      		ldi r25,hi8(80)
 13452 61fc 6CE4      		ldi r22,lo8(76)
 13453 61fe 70E0      		ldi r23,hi8(76)
 13454 6200 4FEF      		ldi r20,lo8(-1)
 13455 6202 0E94 0000 		call lcd_graphics_plot_pixel
 13456               	.LM1782:
 13457 6206 80E5      		ldi r24,lo8(80)
 13458 6208 90E0      		ldi r25,hi8(80)
 13459 620a 6DE4      		ldi r22,lo8(77)
 13460 620c 70E0      		ldi r23,hi8(77)
 13461 620e 4FEF      		ldi r20,lo8(-1)
 13462 6210 0E94 0000 		call lcd_graphics_plot_pixel
 13463               	.LM1783:
 13464 6214 80E5      		ldi r24,lo8(80)
 13465 6216 90E0      		ldi r25,hi8(80)
 13466 6218 6EE4      		ldi r22,lo8(78)
 13467 621a 70E0      		ldi r23,hi8(78)
 13468 621c 4FEF      		ldi r20,lo8(-1)
 13469 621e 0E94 0000 		call lcd_graphics_plot_pixel
 13470               	.LM1784:
 13471 6222 80E5      		ldi r24,lo8(80)
 13472 6224 90E0      		ldi r25,hi8(80)
 13473 6226 6FE4      		ldi r22,lo8(79)
 13474 6228 70E0      		ldi r23,hi8(79)
 13475 622a 4FEF      		ldi r20,lo8(-1)
 13476 622c 0E94 0000 		call lcd_graphics_plot_pixel
 13477               	.LM1785:
 13478 6230 81E5      		ldi r24,lo8(81)
 13479 6232 90E0      		ldi r25,hi8(81)
 13480 6234 62E0      		ldi r22,lo8(2)
 13481 6236 70E0      		ldi r23,hi8(2)
 13482 6238 4FEF      		ldi r20,lo8(-1)
 13483 623a 0E94 0000 		call lcd_graphics_plot_pixel
 13484               	.LM1786:
 13485 623e 81E5      		ldi r24,lo8(81)
 13486 6240 90E0      		ldi r25,hi8(81)
 13487 6242 63E0      		ldi r22,lo8(3)
 13488 6244 70E0      		ldi r23,hi8(3)
 13489 6246 4FEF      		ldi r20,lo8(-1)
 13490 6248 0E94 0000 		call lcd_graphics_plot_pixel
 13491               	.LM1787:
 13492 624c 81E5      		ldi r24,lo8(81)
 13493 624e 90E0      		ldi r25,hi8(81)
 13494 6250 6AE0      		ldi r22,lo8(10)
 13495 6252 70E0      		ldi r23,hi8(10)
 13496 6254 4FEF      		ldi r20,lo8(-1)
 13497 6256 0E94 0000 		call lcd_graphics_plot_pixel
 13498               	.LM1788:
 13499 625a 81E5      		ldi r24,lo8(81)
 13500 625c 90E0      		ldi r25,hi8(81)
 13501 625e 6BE0      		ldi r22,lo8(11)
 13502 6260 70E0      		ldi r23,hi8(11)
 13503 6262 4FEF      		ldi r20,lo8(-1)
 13504 6264 0E94 0000 		call lcd_graphics_plot_pixel
 13505               	.LM1789:
 13506 6268 81E5      		ldi r24,lo8(81)
 13507 626a 90E0      		ldi r25,hi8(81)
 13508 626c 6CE0      		ldi r22,lo8(12)
 13509 626e 70E0      		ldi r23,hi8(12)
 13510 6270 4FEF      		ldi r20,lo8(-1)
 13511 6272 0E94 0000 		call lcd_graphics_plot_pixel
 13512               	.LM1790:
 13513 6276 81E5      		ldi r24,lo8(81)
 13514 6278 90E0      		ldi r25,hi8(81)
 13515 627a 6DE0      		ldi r22,lo8(13)
 13516 627c 70E0      		ldi r23,hi8(13)
 13517 627e 4FEF      		ldi r20,lo8(-1)
 13518 6280 0E94 0000 		call lcd_graphics_plot_pixel
 13519               	.LM1791:
 13520 6284 81E5      		ldi r24,lo8(81)
 13521 6286 90E0      		ldi r25,hi8(81)
 13522 6288 6EE0      		ldi r22,lo8(14)
 13523 628a 70E0      		ldi r23,hi8(14)
 13524 628c 4FEF      		ldi r20,lo8(-1)
 13525 628e 0E94 0000 		call lcd_graphics_plot_pixel
 13526               	.LM1792:
 13527 6292 81E5      		ldi r24,lo8(81)
 13528 6294 90E0      		ldi r25,hi8(81)
 13529 6296 6FE0      		ldi r22,lo8(15)
 13530 6298 70E0      		ldi r23,hi8(15)
 13531 629a 4FEF      		ldi r20,lo8(-1)
 13532 629c 0E94 0000 		call lcd_graphics_plot_pixel
 13533               	.LM1793:
 13534 62a0 81E5      		ldi r24,lo8(81)
 13535 62a2 90E0      		ldi r25,hi8(81)
 13536 62a4 60E1      		ldi r22,lo8(16)
 13537 62a6 70E0      		ldi r23,hi8(16)
 13538 62a8 4FEF      		ldi r20,lo8(-1)
 13539 62aa 0E94 0000 		call lcd_graphics_plot_pixel
 13540               	.LM1794:
 13541 62ae 81E5      		ldi r24,lo8(81)
 13542 62b0 90E0      		ldi r25,hi8(81)
 13543 62b2 63E1      		ldi r22,lo8(19)
 13544 62b4 70E0      		ldi r23,hi8(19)
 13545 62b6 4FEF      		ldi r20,lo8(-1)
 13546 62b8 0E94 0000 		call lcd_graphics_plot_pixel
 13547               	.LM1795:
 13548 62bc 81E5      		ldi r24,lo8(81)
 13549 62be 90E0      		ldi r25,hi8(81)
 13550 62c0 64E1      		ldi r22,lo8(20)
 13551 62c2 70E0      		ldi r23,hi8(20)
 13552 62c4 4FEF      		ldi r20,lo8(-1)
 13553 62c6 0E94 0000 		call lcd_graphics_plot_pixel
 13554               	.LM1796:
 13555 62ca 81E5      		ldi r24,lo8(81)
 13556 62cc 90E0      		ldi r25,hi8(81)
 13557 62ce 65E1      		ldi r22,lo8(21)
 13558 62d0 70E0      		ldi r23,hi8(21)
 13559 62d2 4FEF      		ldi r20,lo8(-1)
 13560 62d4 0E94 0000 		call lcd_graphics_plot_pixel
 13561               	.LM1797:
 13562 62d8 81E5      		ldi r24,lo8(81)
 13563 62da 90E0      		ldi r25,hi8(81)
 13564 62dc 66E1      		ldi r22,lo8(22)
 13565 62de 70E0      		ldi r23,hi8(22)
 13566 62e0 4FEF      		ldi r20,lo8(-1)
 13567 62e2 0E94 0000 		call lcd_graphics_plot_pixel
 13568               	.LM1798:
 13569 62e6 81E5      		ldi r24,lo8(81)
 13570 62e8 90E0      		ldi r25,hi8(81)
 13571 62ea 67E1      		ldi r22,lo8(23)
 13572 62ec 70E0      		ldi r23,hi8(23)
 13573 62ee 4FEF      		ldi r20,lo8(-1)
 13574 62f0 0E94 0000 		call lcd_graphics_plot_pixel
 13575               	.LM1799:
 13576 62f4 81E5      		ldi r24,lo8(81)
 13577 62f6 90E0      		ldi r25,hi8(81)
 13578 62f8 6CE4      		ldi r22,lo8(76)
 13579 62fa 70E0      		ldi r23,hi8(76)
 13580 62fc 4FEF      		ldi r20,lo8(-1)
 13581 62fe 0E94 0000 		call lcd_graphics_plot_pixel
 13582               	.LM1800:
 13583 6302 81E5      		ldi r24,lo8(81)
 13584 6304 90E0      		ldi r25,hi8(81)
 13585 6306 6DE4      		ldi r22,lo8(77)
 13586 6308 70E0      		ldi r23,hi8(77)
 13587 630a 4FEF      		ldi r20,lo8(-1)
 13588 630c 0E94 0000 		call lcd_graphics_plot_pixel
 13589               	.LM1801:
 13590 6310 81E5      		ldi r24,lo8(81)
 13591 6312 90E0      		ldi r25,hi8(81)
 13592 6314 6EE4      		ldi r22,lo8(78)
 13593 6316 70E0      		ldi r23,hi8(78)
 13594 6318 4FEF      		ldi r20,lo8(-1)
 13595 631a 0E94 0000 		call lcd_graphics_plot_pixel
 13596               	.LM1802:
 13597 631e 81E5      		ldi r24,lo8(81)
 13598 6320 90E0      		ldi r25,hi8(81)
 13599 6322 6FE4      		ldi r22,lo8(79)
 13600 6324 70E0      		ldi r23,hi8(79)
 13601 6326 4FEF      		ldi r20,lo8(-1)
 13602 6328 0E94 0000 		call lcd_graphics_plot_pixel
 13603               	.LM1803:
 13604 632c 82E5      		ldi r24,lo8(82)
 13605 632e 90E0      		ldi r25,hi8(82)
 13606 6330 62E0      		ldi r22,lo8(2)
 13607 6332 70E0      		ldi r23,hi8(2)
 13608 6334 4FEF      		ldi r20,lo8(-1)
 13609 6336 0E94 0000 		call lcd_graphics_plot_pixel
 13610               	.LM1804:
 13611 633a 82E5      		ldi r24,lo8(82)
 13612 633c 90E0      		ldi r25,hi8(82)
 13613 633e 63E0      		ldi r22,lo8(3)
 13614 6340 70E0      		ldi r23,hi8(3)
 13615 6342 4FEF      		ldi r20,lo8(-1)
 13616 6344 0E94 0000 		call lcd_graphics_plot_pixel
 13617               	.LM1805:
 13618 6348 82E5      		ldi r24,lo8(82)
 13619 634a 90E0      		ldi r25,hi8(82)
 13620 634c 6AE0      		ldi r22,lo8(10)
 13621 634e 70E0      		ldi r23,hi8(10)
 13622 6350 4FEF      		ldi r20,lo8(-1)
 13623 6352 0E94 0000 		call lcd_graphics_plot_pixel
 13624               	.LM1806:
 13625 6356 82E5      		ldi r24,lo8(82)
 13626 6358 90E0      		ldi r25,hi8(82)
 13627 635a 6BE0      		ldi r22,lo8(11)
 13628 635c 70E0      		ldi r23,hi8(11)
 13629 635e 4FEF      		ldi r20,lo8(-1)
 13630 6360 0E94 0000 		call lcd_graphics_plot_pixel
 13631               	.LM1807:
 13632 6364 82E5      		ldi r24,lo8(82)
 13633 6366 90E0      		ldi r25,hi8(82)
 13634 6368 6CE0      		ldi r22,lo8(12)
 13635 636a 70E0      		ldi r23,hi8(12)
 13636 636c 4FEF      		ldi r20,lo8(-1)
 13637 636e 0E94 0000 		call lcd_graphics_plot_pixel
 13638               	.LM1808:
 13639 6372 82E5      		ldi r24,lo8(82)
 13640 6374 90E0      		ldi r25,hi8(82)
 13641 6376 6DE0      		ldi r22,lo8(13)
 13642 6378 70E0      		ldi r23,hi8(13)
 13643 637a 4FEF      		ldi r20,lo8(-1)
 13644 637c 0E94 0000 		call lcd_graphics_plot_pixel
 13645               	.LM1809:
 13646 6380 82E5      		ldi r24,lo8(82)
 13647 6382 90E0      		ldi r25,hi8(82)
 13648 6384 6EE0      		ldi r22,lo8(14)
 13649 6386 70E0      		ldi r23,hi8(14)
 13650 6388 4FEF      		ldi r20,lo8(-1)
 13651 638a 0E94 0000 		call lcd_graphics_plot_pixel
 13652               	.LM1810:
 13653 638e 82E5      		ldi r24,lo8(82)
 13654 6390 90E0      		ldi r25,hi8(82)
 13655 6392 6FE0      		ldi r22,lo8(15)
 13656 6394 70E0      		ldi r23,hi8(15)
 13657 6396 4FEF      		ldi r20,lo8(-1)
 13658 6398 0E94 0000 		call lcd_graphics_plot_pixel
 13659               	.LM1811:
 13660 639c 82E5      		ldi r24,lo8(82)
 13661 639e 90E0      		ldi r25,hi8(82)
 13662 63a0 60E1      		ldi r22,lo8(16)
 13663 63a2 70E0      		ldi r23,hi8(16)
 13664 63a4 4FEF      		ldi r20,lo8(-1)
 13665 63a6 0E94 0000 		call lcd_graphics_plot_pixel
 13666               	.LM1812:
 13667 63aa 82E5      		ldi r24,lo8(82)
 13668 63ac 90E0      		ldi r25,hi8(82)
 13669 63ae 63E1      		ldi r22,lo8(19)
 13670 63b0 70E0      		ldi r23,hi8(19)
 13671 63b2 4FEF      		ldi r20,lo8(-1)
 13672 63b4 0E94 0000 		call lcd_graphics_plot_pixel
 13673               	.LM1813:
 13674 63b8 82E5      		ldi r24,lo8(82)
 13675 63ba 90E0      		ldi r25,hi8(82)
 13676 63bc 64E1      		ldi r22,lo8(20)
 13677 63be 70E0      		ldi r23,hi8(20)
 13678 63c0 4FEF      		ldi r20,lo8(-1)
 13679 63c2 0E94 0000 		call lcd_graphics_plot_pixel
 13680               	.LM1814:
 13681 63c6 82E5      		ldi r24,lo8(82)
 13682 63c8 90E0      		ldi r25,hi8(82)
 13683 63ca 65E1      		ldi r22,lo8(21)
 13684 63cc 70E0      		ldi r23,hi8(21)
 13685 63ce 4FEF      		ldi r20,lo8(-1)
 13686 63d0 0E94 0000 		call lcd_graphics_plot_pixel
 13687               	.LM1815:
 13688 63d4 82E5      		ldi r24,lo8(82)
 13689 63d6 90E0      		ldi r25,hi8(82)
 13690 63d8 66E1      		ldi r22,lo8(22)
 13691 63da 70E0      		ldi r23,hi8(22)
 13692 63dc 4FEF      		ldi r20,lo8(-1)
 13693 63de 0E94 0000 		call lcd_graphics_plot_pixel
 13694               	.LM1816:
 13695 63e2 82E5      		ldi r24,lo8(82)
 13696 63e4 90E0      		ldi r25,hi8(82)
 13697 63e6 67E1      		ldi r22,lo8(23)
 13698 63e8 70E0      		ldi r23,hi8(23)
 13699 63ea 4FEF      		ldi r20,lo8(-1)
 13700 63ec 0E94 0000 		call lcd_graphics_plot_pixel
 13701               	.LM1817:
 13702 63f0 82E5      		ldi r24,lo8(82)
 13703 63f2 90E0      		ldi r25,hi8(82)
 13704 63f4 6CE4      		ldi r22,lo8(76)
 13705 63f6 70E0      		ldi r23,hi8(76)
 13706 63f8 4FEF      		ldi r20,lo8(-1)
 13707 63fa 0E94 0000 		call lcd_graphics_plot_pixel
 13708               	.LM1818:
 13709 63fe 82E5      		ldi r24,lo8(82)
 13710 6400 90E0      		ldi r25,hi8(82)
 13711 6402 6DE4      		ldi r22,lo8(77)
 13712 6404 70E0      		ldi r23,hi8(77)
 13713 6406 4FEF      		ldi r20,lo8(-1)
 13714 6408 0E94 0000 		call lcd_graphics_plot_pixel
 13715               	.LM1819:
 13716 640c 82E5      		ldi r24,lo8(82)
 13717 640e 90E0      		ldi r25,hi8(82)
 13718 6410 6EE4      		ldi r22,lo8(78)
 13719 6412 70E0      		ldi r23,hi8(78)
 13720 6414 4FEF      		ldi r20,lo8(-1)
 13721 6416 0E94 0000 		call lcd_graphics_plot_pixel
 13722               	.LM1820:
 13723 641a 82E5      		ldi r24,lo8(82)
 13724 641c 90E0      		ldi r25,hi8(82)
 13725 641e 6FE4      		ldi r22,lo8(79)
 13726 6420 70E0      		ldi r23,hi8(79)
 13727 6422 4FEF      		ldi r20,lo8(-1)
 13728 6424 0E94 0000 		call lcd_graphics_plot_pixel
 13729               	.LM1821:
 13730 6428 83E5      		ldi r24,lo8(83)
 13731 642a 90E0      		ldi r25,hi8(83)
 13732 642c 62E0      		ldi r22,lo8(2)
 13733 642e 70E0      		ldi r23,hi8(2)
 13734 6430 4FEF      		ldi r20,lo8(-1)
 13735 6432 0E94 0000 		call lcd_graphics_plot_pixel
 13736               	.LM1822:
 13737 6436 83E5      		ldi r24,lo8(83)
 13738 6438 90E0      		ldi r25,hi8(83)
 13739 643a 63E0      		ldi r22,lo8(3)
 13740 643c 70E0      		ldi r23,hi8(3)
 13741 643e 4FEF      		ldi r20,lo8(-1)
 13742 6440 0E94 0000 		call lcd_graphics_plot_pixel
 13743               	.LM1823:
 13744 6444 83E5      		ldi r24,lo8(83)
 13745 6446 90E0      		ldi r25,hi8(83)
 13746 6448 6AE0      		ldi r22,lo8(10)
 13747 644a 70E0      		ldi r23,hi8(10)
 13748 644c 4FEF      		ldi r20,lo8(-1)
 13749 644e 0E94 0000 		call lcd_graphics_plot_pixel
 13750               	.LM1824:
 13751 6452 83E5      		ldi r24,lo8(83)
 13752 6454 90E0      		ldi r25,hi8(83)
 13753 6456 6BE0      		ldi r22,lo8(11)
 13754 6458 70E0      		ldi r23,hi8(11)
 13755 645a 4FEF      		ldi r20,lo8(-1)
 13756 645c 0E94 0000 		call lcd_graphics_plot_pixel
 13757               	.LM1825:
 13758 6460 83E5      		ldi r24,lo8(83)
 13759 6462 90E0      		ldi r25,hi8(83)
 13760 6464 6CE0      		ldi r22,lo8(12)
 13761 6466 70E0      		ldi r23,hi8(12)
 13762 6468 4FEF      		ldi r20,lo8(-1)
 13763 646a 0E94 0000 		call lcd_graphics_plot_pixel
 13764               	.LM1826:
 13765 646e 83E5      		ldi r24,lo8(83)
 13766 6470 90E0      		ldi r25,hi8(83)
 13767 6472 6DE0      		ldi r22,lo8(13)
 13768 6474 70E0      		ldi r23,hi8(13)
 13769 6476 4FEF      		ldi r20,lo8(-1)
 13770 6478 0E94 0000 		call lcd_graphics_plot_pixel
 13771               	.LM1827:
 13772 647c 83E5      		ldi r24,lo8(83)
 13773 647e 90E0      		ldi r25,hi8(83)
 13774 6480 6EE0      		ldi r22,lo8(14)
 13775 6482 70E0      		ldi r23,hi8(14)
 13776 6484 4FEF      		ldi r20,lo8(-1)
 13777 6486 0E94 0000 		call lcd_graphics_plot_pixel
 13778               	.LM1828:
 13779 648a 83E5      		ldi r24,lo8(83)
 13780 648c 90E0      		ldi r25,hi8(83)
 13781 648e 6FE0      		ldi r22,lo8(15)
 13782 6490 70E0      		ldi r23,hi8(15)
 13783 6492 4FEF      		ldi r20,lo8(-1)
 13784 6494 0E94 0000 		call lcd_graphics_plot_pixel
 13785               	.LM1829:
 13786 6498 83E5      		ldi r24,lo8(83)
 13787 649a 90E0      		ldi r25,hi8(83)
 13788 649c 60E1      		ldi r22,lo8(16)
 13789 649e 70E0      		ldi r23,hi8(16)
 13790 64a0 4FEF      		ldi r20,lo8(-1)
 13791 64a2 0E94 0000 		call lcd_graphics_plot_pixel
 13792               	.LM1830:
 13793 64a6 83E5      		ldi r24,lo8(83)
 13794 64a8 90E0      		ldi r25,hi8(83)
 13795 64aa 63E1      		ldi r22,lo8(19)
 13796 64ac 70E0      		ldi r23,hi8(19)
 13797 64ae 4FEF      		ldi r20,lo8(-1)
 13798 64b0 0E94 0000 		call lcd_graphics_plot_pixel
 13799               	.LM1831:
 13800 64b4 83E5      		ldi r24,lo8(83)
 13801 64b6 90E0      		ldi r25,hi8(83)
 13802 64b8 64E1      		ldi r22,lo8(20)
 13803 64ba 70E0      		ldi r23,hi8(20)
 13804 64bc 4FEF      		ldi r20,lo8(-1)
 13805 64be 0E94 0000 		call lcd_graphics_plot_pixel
 13806               	.LM1832:
 13807 64c2 83E5      		ldi r24,lo8(83)
 13808 64c4 90E0      		ldi r25,hi8(83)
 13809 64c6 65E1      		ldi r22,lo8(21)
 13810 64c8 70E0      		ldi r23,hi8(21)
 13811 64ca 4FEF      		ldi r20,lo8(-1)
 13812 64cc 0E94 0000 		call lcd_graphics_plot_pixel
 13813               	.LM1833:
 13814 64d0 83E5      		ldi r24,lo8(83)
 13815 64d2 90E0      		ldi r25,hi8(83)
 13816 64d4 66E1      		ldi r22,lo8(22)
 13817 64d6 70E0      		ldi r23,hi8(22)
 13818 64d8 4FEF      		ldi r20,lo8(-1)
 13819 64da 0E94 0000 		call lcd_graphics_plot_pixel
 13820               	.LM1834:
 13821 64de 83E5      		ldi r24,lo8(83)
 13822 64e0 90E0      		ldi r25,hi8(83)
 13823 64e2 67E1      		ldi r22,lo8(23)
 13824 64e4 70E0      		ldi r23,hi8(23)
 13825 64e6 4FEF      		ldi r20,lo8(-1)
 13826 64e8 0E94 0000 		call lcd_graphics_plot_pixel
 13827               	.LM1835:
 13828 64ec 83E5      		ldi r24,lo8(83)
 13829 64ee 90E0      		ldi r25,hi8(83)
 13830 64f0 6CE4      		ldi r22,lo8(76)
 13831 64f2 70E0      		ldi r23,hi8(76)
 13832 64f4 4FEF      		ldi r20,lo8(-1)
 13833 64f6 0E94 0000 		call lcd_graphics_plot_pixel
 13834               	.LM1836:
 13835 64fa 83E5      		ldi r24,lo8(83)
 13836 64fc 90E0      		ldi r25,hi8(83)
 13837 64fe 6DE4      		ldi r22,lo8(77)
 13838 6500 70E0      		ldi r23,hi8(77)
 13839 6502 4FEF      		ldi r20,lo8(-1)
 13840 6504 0E94 0000 		call lcd_graphics_plot_pixel
 13841               	.LM1837:
 13842 6508 83E5      		ldi r24,lo8(83)
 13843 650a 90E0      		ldi r25,hi8(83)
 13844 650c 6EE4      		ldi r22,lo8(78)
 13845 650e 70E0      		ldi r23,hi8(78)
 13846 6510 4FEF      		ldi r20,lo8(-1)
 13847 6512 0E94 0000 		call lcd_graphics_plot_pixel
 13848               	.LM1838:
 13849 6516 83E5      		ldi r24,lo8(83)
 13850 6518 90E0      		ldi r25,hi8(83)
 13851 651a 6FE4      		ldi r22,lo8(79)
 13852 651c 70E0      		ldi r23,hi8(79)
 13853 651e 4FEF      		ldi r20,lo8(-1)
 13854 6520 0E94 0000 		call lcd_graphics_plot_pixel
 13855               	.LM1839:
 13856 6524 84E5      		ldi r24,lo8(84)
 13857 6526 90E0      		ldi r25,hi8(84)
 13858 6528 63E0      		ldi r22,lo8(3)
 13859 652a 70E0      		ldi r23,hi8(3)
 13860 652c 4FEF      		ldi r20,lo8(-1)
 13861 652e 0E94 0000 		call lcd_graphics_plot_pixel
 13862               	.LM1840:
 13863 6532 84E5      		ldi r24,lo8(84)
 13864 6534 90E0      		ldi r25,hi8(84)
 13865 6536 64E0      		ldi r22,lo8(4)
 13866 6538 70E0      		ldi r23,hi8(4)
 13867 653a 4FEF      		ldi r20,lo8(-1)
 13868 653c 0E94 0000 		call lcd_graphics_plot_pixel
 13869               	.LM1841:
 13870 6540 84E5      		ldi r24,lo8(84)
 13871 6542 90E0      		ldi r25,hi8(84)
 13872 6544 6AE0      		ldi r22,lo8(10)
 13873 6546 70E0      		ldi r23,hi8(10)
 13874 6548 4FEF      		ldi r20,lo8(-1)
 13875 654a 0E94 0000 		call lcd_graphics_plot_pixel
 13876               	.LM1842:
 13877 654e 84E5      		ldi r24,lo8(84)
 13878 6550 90E0      		ldi r25,hi8(84)
 13879 6552 6BE0      		ldi r22,lo8(11)
 13880 6554 70E0      		ldi r23,hi8(11)
 13881 6556 4FEF      		ldi r20,lo8(-1)
 13882 6558 0E94 0000 		call lcd_graphics_plot_pixel
 13883               	.LM1843:
 13884 655c 84E5      		ldi r24,lo8(84)
 13885 655e 90E0      		ldi r25,hi8(84)
 13886 6560 6CE0      		ldi r22,lo8(12)
 13887 6562 70E0      		ldi r23,hi8(12)
 13888 6564 4FEF      		ldi r20,lo8(-1)
 13889 6566 0E94 0000 		call lcd_graphics_plot_pixel
 13890               	.LM1844:
 13891 656a 84E5      		ldi r24,lo8(84)
 13892 656c 90E0      		ldi r25,hi8(84)
 13893 656e 6DE0      		ldi r22,lo8(13)
 13894 6570 70E0      		ldi r23,hi8(13)
 13895 6572 4FEF      		ldi r20,lo8(-1)
 13896 6574 0E94 0000 		call lcd_graphics_plot_pixel
 13897               	.LM1845:
 13898 6578 84E5      		ldi r24,lo8(84)
 13899 657a 90E0      		ldi r25,hi8(84)
 13900 657c 6EE0      		ldi r22,lo8(14)
 13901 657e 70E0      		ldi r23,hi8(14)
 13902 6580 4FEF      		ldi r20,lo8(-1)
 13903 6582 0E94 0000 		call lcd_graphics_plot_pixel
 13904               	.LM1846:
 13905 6586 84E5      		ldi r24,lo8(84)
 13906 6588 90E0      		ldi r25,hi8(84)
 13907 658a 6FE0      		ldi r22,lo8(15)
 13908 658c 70E0      		ldi r23,hi8(15)
 13909 658e 4FEF      		ldi r20,lo8(-1)
 13910 6590 0E94 0000 		call lcd_graphics_plot_pixel
 13911               	.LM1847:
 13912 6594 84E5      		ldi r24,lo8(84)
 13913 6596 90E0      		ldi r25,hi8(84)
 13914 6598 60E1      		ldi r22,lo8(16)
 13915 659a 70E0      		ldi r23,hi8(16)
 13916 659c 4FEF      		ldi r20,lo8(-1)
 13917 659e 0E94 0000 		call lcd_graphics_plot_pixel
 13918               	.LM1848:
 13919 65a2 84E5      		ldi r24,lo8(84)
 13920 65a4 90E0      		ldi r25,hi8(84)
 13921 65a6 63E1      		ldi r22,lo8(19)
 13922 65a8 70E0      		ldi r23,hi8(19)
 13923 65aa 4FEF      		ldi r20,lo8(-1)
 13924 65ac 0E94 0000 		call lcd_graphics_plot_pixel
 13925               	.LM1849:
 13926 65b0 84E5      		ldi r24,lo8(84)
 13927 65b2 90E0      		ldi r25,hi8(84)
 13928 65b4 64E1      		ldi r22,lo8(20)
 13929 65b6 70E0      		ldi r23,hi8(20)
 13930 65b8 4FEF      		ldi r20,lo8(-1)
 13931 65ba 0E94 0000 		call lcd_graphics_plot_pixel
 13932               	.LM1850:
 13933 65be 84E5      		ldi r24,lo8(84)
 13934 65c0 90E0      		ldi r25,hi8(84)
 13935 65c2 65E1      		ldi r22,lo8(21)
 13936 65c4 70E0      		ldi r23,hi8(21)
 13937 65c6 4FEF      		ldi r20,lo8(-1)
 13938 65c8 0E94 0000 		call lcd_graphics_plot_pixel
 13939               	.LM1851:
 13940 65cc 84E5      		ldi r24,lo8(84)
 13941 65ce 90E0      		ldi r25,hi8(84)
 13942 65d0 66E1      		ldi r22,lo8(22)
 13943 65d2 70E0      		ldi r23,hi8(22)
 13944 65d4 4FEF      		ldi r20,lo8(-1)
 13945 65d6 0E94 0000 		call lcd_graphics_plot_pixel
 13946               	.LM1852:
 13947 65da 84E5      		ldi r24,lo8(84)
 13948 65dc 90E0      		ldi r25,hi8(84)
 13949 65de 67E1      		ldi r22,lo8(23)
 13950 65e0 70E0      		ldi r23,hi8(23)
 13951 65e2 4FEF      		ldi r20,lo8(-1)
 13952 65e4 0E94 0000 		call lcd_graphics_plot_pixel
 13953               	.LM1853:
 13954 65e8 84E5      		ldi r24,lo8(84)
 13955 65ea 90E0      		ldi r25,hi8(84)
 13956 65ec 6CE4      		ldi r22,lo8(76)
 13957 65ee 70E0      		ldi r23,hi8(76)
 13958 65f0 4FEF      		ldi r20,lo8(-1)
 13959 65f2 0E94 0000 		call lcd_graphics_plot_pixel
 13960               	.LM1854:
 13961 65f6 84E5      		ldi r24,lo8(84)
 13962 65f8 90E0      		ldi r25,hi8(84)
 13963 65fa 6DE4      		ldi r22,lo8(77)
 13964 65fc 70E0      		ldi r23,hi8(77)
 13965 65fe 4FEF      		ldi r20,lo8(-1)
 13966 6600 0E94 0000 		call lcd_graphics_plot_pixel
 13967               	.LM1855:
 13968 6604 84E5      		ldi r24,lo8(84)
 13969 6606 90E0      		ldi r25,hi8(84)
 13970 6608 6EE4      		ldi r22,lo8(78)
 13971 660a 70E0      		ldi r23,hi8(78)
 13972 660c 4FEF      		ldi r20,lo8(-1)
 13973 660e 0E94 0000 		call lcd_graphics_plot_pixel
 13974               	.LM1856:
 13975 6612 84E5      		ldi r24,lo8(84)
 13976 6614 90E0      		ldi r25,hi8(84)
 13977 6616 6FE4      		ldi r22,lo8(79)
 13978 6618 70E0      		ldi r23,hi8(79)
 13979 661a 4FEF      		ldi r20,lo8(-1)
 13980 661c 0E94 0000 		call lcd_graphics_plot_pixel
 13981               	.LM1857:
 13982 6620 85E5      		ldi r24,lo8(85)
 13983 6622 90E0      		ldi r25,hi8(85)
 13984 6624 63E0      		ldi r22,lo8(3)
 13985 6626 70E0      		ldi r23,hi8(3)
 13986 6628 4FEF      		ldi r20,lo8(-1)
 13987 662a 0E94 0000 		call lcd_graphics_plot_pixel
 13988               	.LM1858:
 13989 662e 85E5      		ldi r24,lo8(85)
 13990 6630 90E0      		ldi r25,hi8(85)
 13991 6632 64E0      		ldi r22,lo8(4)
 13992 6634 70E0      		ldi r23,hi8(4)
 13993 6636 4FEF      		ldi r20,lo8(-1)
 13994 6638 0E94 0000 		call lcd_graphics_plot_pixel
 13995               	.LM1859:
 13996 663c 85E5      		ldi r24,lo8(85)
 13997 663e 90E0      		ldi r25,hi8(85)
 13998 6640 69E0      		ldi r22,lo8(9)
 13999 6642 70E0      		ldi r23,hi8(9)
 14000 6644 4FEF      		ldi r20,lo8(-1)
 14001 6646 0E94 0000 		call lcd_graphics_plot_pixel
 14002               	.LM1860:
 14003 664a 85E5      		ldi r24,lo8(85)
 14004 664c 90E0      		ldi r25,hi8(85)
 14005 664e 6AE0      		ldi r22,lo8(10)
 14006 6650 70E0      		ldi r23,hi8(10)
 14007 6652 4FEF      		ldi r20,lo8(-1)
 14008 6654 0E94 0000 		call lcd_graphics_plot_pixel
 14009               	.LM1861:
 14010 6658 85E5      		ldi r24,lo8(85)
 14011 665a 90E0      		ldi r25,hi8(85)
 14012 665c 6BE0      		ldi r22,lo8(11)
 14013 665e 70E0      		ldi r23,hi8(11)
 14014 6660 4FEF      		ldi r20,lo8(-1)
 14015 6662 0E94 0000 		call lcd_graphics_plot_pixel
 14016               	.LM1862:
 14017 6666 85E5      		ldi r24,lo8(85)
 14018 6668 90E0      		ldi r25,hi8(85)
 14019 666a 6CE0      		ldi r22,lo8(12)
 14020 666c 70E0      		ldi r23,hi8(12)
 14021 666e 4FEF      		ldi r20,lo8(-1)
 14022 6670 0E94 0000 		call lcd_graphics_plot_pixel
 14023               	.LM1863:
 14024 6674 85E5      		ldi r24,lo8(85)
 14025 6676 90E0      		ldi r25,hi8(85)
 14026 6678 6DE0      		ldi r22,lo8(13)
 14027 667a 70E0      		ldi r23,hi8(13)
 14028 667c 4FEF      		ldi r20,lo8(-1)
 14029 667e 0E94 0000 		call lcd_graphics_plot_pixel
 14030               	.LM1864:
 14031 6682 85E5      		ldi r24,lo8(85)
 14032 6684 90E0      		ldi r25,hi8(85)
 14033 6686 6EE0      		ldi r22,lo8(14)
 14034 6688 70E0      		ldi r23,hi8(14)
 14035 668a 4FEF      		ldi r20,lo8(-1)
 14036 668c 0E94 0000 		call lcd_graphics_plot_pixel
 14037               	.LM1865:
 14038 6690 85E5      		ldi r24,lo8(85)
 14039 6692 90E0      		ldi r25,hi8(85)
 14040 6694 6FE0      		ldi r22,lo8(15)
 14041 6696 70E0      		ldi r23,hi8(15)
 14042 6698 4FEF      		ldi r20,lo8(-1)
 14043 669a 0E94 0000 		call lcd_graphics_plot_pixel
 14044               	.LM1866:
 14045 669e 85E5      		ldi r24,lo8(85)
 14046 66a0 90E0      		ldi r25,hi8(85)
 14047 66a2 63E1      		ldi r22,lo8(19)
 14048 66a4 70E0      		ldi r23,hi8(19)
 14049 66a6 4FEF      		ldi r20,lo8(-1)
 14050 66a8 0E94 0000 		call lcd_graphics_plot_pixel
 14051               	.LM1867:
 14052 66ac 85E5      		ldi r24,lo8(85)
 14053 66ae 90E0      		ldi r25,hi8(85)
 14054 66b0 64E1      		ldi r22,lo8(20)
 14055 66b2 70E0      		ldi r23,hi8(20)
 14056 66b4 4FEF      		ldi r20,lo8(-1)
 14057 66b6 0E94 0000 		call lcd_graphics_plot_pixel
 14058               	.LM1868:
 14059 66ba 85E5      		ldi r24,lo8(85)
 14060 66bc 90E0      		ldi r25,hi8(85)
 14061 66be 65E1      		ldi r22,lo8(21)
 14062 66c0 70E0      		ldi r23,hi8(21)
 14063 66c2 4FEF      		ldi r20,lo8(-1)
 14064 66c4 0E94 0000 		call lcd_graphics_plot_pixel
 14065               	.LM1869:
 14066 66c8 85E5      		ldi r24,lo8(85)
 14067 66ca 90E0      		ldi r25,hi8(85)
 14068 66cc 66E1      		ldi r22,lo8(22)
 14069 66ce 70E0      		ldi r23,hi8(22)
 14070 66d0 4FEF      		ldi r20,lo8(-1)
 14071 66d2 0E94 0000 		call lcd_graphics_plot_pixel
 14072               	.LM1870:
 14073 66d6 85E5      		ldi r24,lo8(85)
 14074 66d8 90E0      		ldi r25,hi8(85)
 14075 66da 6CE4      		ldi r22,lo8(76)
 14076 66dc 70E0      		ldi r23,hi8(76)
 14077 66de 4FEF      		ldi r20,lo8(-1)
 14078 66e0 0E94 0000 		call lcd_graphics_plot_pixel
 14079               	.LM1871:
 14080 66e4 85E5      		ldi r24,lo8(85)
 14081 66e6 90E0      		ldi r25,hi8(85)
 14082 66e8 6DE4      		ldi r22,lo8(77)
 14083 66ea 70E0      		ldi r23,hi8(77)
 14084 66ec 4FEF      		ldi r20,lo8(-1)
 14085 66ee 0E94 0000 		call lcd_graphics_plot_pixel
 14086               	.LM1872:
 14087 66f2 85E5      		ldi r24,lo8(85)
 14088 66f4 90E0      		ldi r25,hi8(85)
 14089 66f6 6EE4      		ldi r22,lo8(78)
 14090 66f8 70E0      		ldi r23,hi8(78)
 14091 66fa 4FEF      		ldi r20,lo8(-1)
 14092 66fc 0E94 0000 		call lcd_graphics_plot_pixel
 14093               	.LM1873:
 14094 6700 85E5      		ldi r24,lo8(85)
 14095 6702 90E0      		ldi r25,hi8(85)
 14096 6704 6FE4      		ldi r22,lo8(79)
 14097 6706 70E0      		ldi r23,hi8(79)
 14098 6708 4FEF      		ldi r20,lo8(-1)
 14099 670a 0E94 0000 		call lcd_graphics_plot_pixel
 14100               	.LM1874:
 14101 670e 86E5      		ldi r24,lo8(86)
 14102 6710 90E0      		ldi r25,hi8(86)
 14103 6712 63E0      		ldi r22,lo8(3)
 14104 6714 70E0      		ldi r23,hi8(3)
 14105 6716 4FEF      		ldi r20,lo8(-1)
 14106 6718 0E94 0000 		call lcd_graphics_plot_pixel
 14107               	.LM1875:
 14108 671c 86E5      		ldi r24,lo8(86)
 14109 671e 90E0      		ldi r25,hi8(86)
 14110 6720 64E0      		ldi r22,lo8(4)
 14111 6722 70E0      		ldi r23,hi8(4)
 14112 6724 4FEF      		ldi r20,lo8(-1)
 14113 6726 0E94 0000 		call lcd_graphics_plot_pixel
 14114               	.LM1876:
 14115 672a 86E5      		ldi r24,lo8(86)
 14116 672c 90E0      		ldi r25,hi8(86)
 14117 672e 69E0      		ldi r22,lo8(9)
 14118 6730 70E0      		ldi r23,hi8(9)
 14119 6732 4FEF      		ldi r20,lo8(-1)
 14120 6734 0E94 0000 		call lcd_graphics_plot_pixel
 14121               	.LM1877:
 14122 6738 86E5      		ldi r24,lo8(86)
 14123 673a 90E0      		ldi r25,hi8(86)
 14124 673c 6AE0      		ldi r22,lo8(10)
 14125 673e 70E0      		ldi r23,hi8(10)
 14126 6740 4FEF      		ldi r20,lo8(-1)
 14127 6742 0E94 0000 		call lcd_graphics_plot_pixel
 14128               	.LM1878:
 14129 6746 86E5      		ldi r24,lo8(86)
 14130 6748 90E0      		ldi r25,hi8(86)
 14131 674a 6BE0      		ldi r22,lo8(11)
 14132 674c 70E0      		ldi r23,hi8(11)
 14133 674e 4FEF      		ldi r20,lo8(-1)
 14134 6750 0E94 0000 		call lcd_graphics_plot_pixel
 14135               	.LM1879:
 14136 6754 86E5      		ldi r24,lo8(86)
 14137 6756 90E0      		ldi r25,hi8(86)
 14138 6758 6CE0      		ldi r22,lo8(12)
 14139 675a 70E0      		ldi r23,hi8(12)
 14140 675c 4FEF      		ldi r20,lo8(-1)
 14141 675e 0E94 0000 		call lcd_graphics_plot_pixel
 14142               	.LM1880:
 14143 6762 86E5      		ldi r24,lo8(86)
 14144 6764 90E0      		ldi r25,hi8(86)
 14145 6766 6DE0      		ldi r22,lo8(13)
 14146 6768 70E0      		ldi r23,hi8(13)
 14147 676a 4FEF      		ldi r20,lo8(-1)
 14148 676c 0E94 0000 		call lcd_graphics_plot_pixel
 14149               	.LM1881:
 14150 6770 86E5      		ldi r24,lo8(86)
 14151 6772 90E0      		ldi r25,hi8(86)
 14152 6774 6EE0      		ldi r22,lo8(14)
 14153 6776 70E0      		ldi r23,hi8(14)
 14154 6778 4FEF      		ldi r20,lo8(-1)
 14155 677a 0E94 0000 		call lcd_graphics_plot_pixel
 14156               	.LM1882:
 14157 677e 86E5      		ldi r24,lo8(86)
 14158 6780 90E0      		ldi r25,hi8(86)
 14159 6782 6FE0      		ldi r22,lo8(15)
 14160 6784 70E0      		ldi r23,hi8(15)
 14161 6786 4FEF      		ldi r20,lo8(-1)
 14162 6788 0E94 0000 		call lcd_graphics_plot_pixel
 14163               	.LM1883:
 14164 678c 86E5      		ldi r24,lo8(86)
 14165 678e 90E0      		ldi r25,hi8(86)
 14166 6790 63E1      		ldi r22,lo8(19)
 14167 6792 70E0      		ldi r23,hi8(19)
 14168 6794 4FEF      		ldi r20,lo8(-1)
 14169 6796 0E94 0000 		call lcd_graphics_plot_pixel
 14170               	.LM1884:
 14171 679a 86E5      		ldi r24,lo8(86)
 14172 679c 90E0      		ldi r25,hi8(86)
 14173 679e 64E1      		ldi r22,lo8(20)
 14174 67a0 70E0      		ldi r23,hi8(20)
 14175 67a2 4FEF      		ldi r20,lo8(-1)
 14176 67a4 0E94 0000 		call lcd_graphics_plot_pixel
 14177               	.LM1885:
 14178 67a8 86E5      		ldi r24,lo8(86)
 14179 67aa 90E0      		ldi r25,hi8(86)
 14180 67ac 65E1      		ldi r22,lo8(21)
 14181 67ae 70E0      		ldi r23,hi8(21)
 14182 67b0 4FEF      		ldi r20,lo8(-1)
 14183 67b2 0E94 0000 		call lcd_graphics_plot_pixel
 14184               	.LM1886:
 14185 67b6 86E5      		ldi r24,lo8(86)
 14186 67b8 90E0      		ldi r25,hi8(86)
 14187 67ba 66E1      		ldi r22,lo8(22)
 14188 67bc 70E0      		ldi r23,hi8(22)
 14189 67be 4FEF      		ldi r20,lo8(-1)
 14190 67c0 0E94 0000 		call lcd_graphics_plot_pixel
 14191               	.LM1887:
 14192 67c4 86E5      		ldi r24,lo8(86)
 14193 67c6 90E0      		ldi r25,hi8(86)
 14194 67c8 6CE4      		ldi r22,lo8(76)
 14195 67ca 70E0      		ldi r23,hi8(76)
 14196 67cc 4FEF      		ldi r20,lo8(-1)
 14197 67ce 0E94 0000 		call lcd_graphics_plot_pixel
 14198               	.LM1888:
 14199 67d2 86E5      		ldi r24,lo8(86)
 14200 67d4 90E0      		ldi r25,hi8(86)
 14201 67d6 6DE4      		ldi r22,lo8(77)
 14202 67d8 70E0      		ldi r23,hi8(77)
 14203 67da 4FEF      		ldi r20,lo8(-1)
 14204 67dc 0E94 0000 		call lcd_graphics_plot_pixel
 14205               	.LM1889:
 14206 67e0 86E5      		ldi r24,lo8(86)
 14207 67e2 90E0      		ldi r25,hi8(86)
 14208 67e4 6EE4      		ldi r22,lo8(78)
 14209 67e6 70E0      		ldi r23,hi8(78)
 14210 67e8 4FEF      		ldi r20,lo8(-1)
 14211 67ea 0E94 0000 		call lcd_graphics_plot_pixel
 14212               	.LM1890:
 14213 67ee 86E5      		ldi r24,lo8(86)
 14214 67f0 90E0      		ldi r25,hi8(86)
 14215 67f2 6FE4      		ldi r22,lo8(79)
 14216 67f4 70E0      		ldi r23,hi8(79)
 14217 67f6 4FEF      		ldi r20,lo8(-1)
 14218 67f8 0E94 0000 		call lcd_graphics_plot_pixel
 14219               	.LM1891:
 14220 67fc 87E5      		ldi r24,lo8(87)
 14221 67fe 90E0      		ldi r25,hi8(87)
 14222 6800 64E0      		ldi r22,lo8(4)
 14223 6802 70E0      		ldi r23,hi8(4)
 14224 6804 4FEF      		ldi r20,lo8(-1)
 14225 6806 0E94 0000 		call lcd_graphics_plot_pixel
 14226               	.LM1892:
 14227 680a 87E5      		ldi r24,lo8(87)
 14228 680c 90E0      		ldi r25,hi8(87)
 14229 680e 65E0      		ldi r22,lo8(5)
 14230 6810 70E0      		ldi r23,hi8(5)
 14231 6812 4FEF      		ldi r20,lo8(-1)
 14232 6814 0E94 0000 		call lcd_graphics_plot_pixel
 14233               	.LM1893:
 14234 6818 87E5      		ldi r24,lo8(87)
 14235 681a 90E0      		ldi r25,hi8(87)
 14236 681c 69E0      		ldi r22,lo8(9)
 14237 681e 70E0      		ldi r23,hi8(9)
 14238 6820 4FEF      		ldi r20,lo8(-1)
 14239 6822 0E94 0000 		call lcd_graphics_plot_pixel
 14240               	.LM1894:
 14241 6826 87E5      		ldi r24,lo8(87)
 14242 6828 90E0      		ldi r25,hi8(87)
 14243 682a 6AE0      		ldi r22,lo8(10)
 14244 682c 70E0      		ldi r23,hi8(10)
 14245 682e 4FEF      		ldi r20,lo8(-1)
 14246 6830 0E94 0000 		call lcd_graphics_plot_pixel
 14247               	.LM1895:
 14248 6834 87E5      		ldi r24,lo8(87)
 14249 6836 90E0      		ldi r25,hi8(87)
 14250 6838 6BE0      		ldi r22,lo8(11)
 14251 683a 70E0      		ldi r23,hi8(11)
 14252 683c 4FEF      		ldi r20,lo8(-1)
 14253 683e 0E94 0000 		call lcd_graphics_plot_pixel
 14254               	.LM1896:
 14255 6842 87E5      		ldi r24,lo8(87)
 14256 6844 90E0      		ldi r25,hi8(87)
 14257 6846 6CE0      		ldi r22,lo8(12)
 14258 6848 70E0      		ldi r23,hi8(12)
 14259 684a 4FEF      		ldi r20,lo8(-1)
 14260 684c 0E94 0000 		call lcd_graphics_plot_pixel
 14261               	.LM1897:
 14262 6850 87E5      		ldi r24,lo8(87)
 14263 6852 90E0      		ldi r25,hi8(87)
 14264 6854 6DE0      		ldi r22,lo8(13)
 14265 6856 70E0      		ldi r23,hi8(13)
 14266 6858 4FEF      		ldi r20,lo8(-1)
 14267 685a 0E94 0000 		call lcd_graphics_plot_pixel
 14268               	.LM1898:
 14269 685e 87E5      		ldi r24,lo8(87)
 14270 6860 90E0      		ldi r25,hi8(87)
 14271 6862 6EE0      		ldi r22,lo8(14)
 14272 6864 70E0      		ldi r23,hi8(14)
 14273 6866 4FEF      		ldi r20,lo8(-1)
 14274 6868 0E94 0000 		call lcd_graphics_plot_pixel
 14275               	.LM1899:
 14276 686c 87E5      		ldi r24,lo8(87)
 14277 686e 90E0      		ldi r25,hi8(87)
 14278 6870 6FE0      		ldi r22,lo8(15)
 14279 6872 70E0      		ldi r23,hi8(15)
 14280 6874 4FEF      		ldi r20,lo8(-1)
 14281 6876 0E94 0000 		call lcd_graphics_plot_pixel
 14282               	.LM1900:
 14283 687a 87E5      		ldi r24,lo8(87)
 14284 687c 90E0      		ldi r25,hi8(87)
 14285 687e 63E1      		ldi r22,lo8(19)
 14286 6880 70E0      		ldi r23,hi8(19)
 14287 6882 4FEF      		ldi r20,lo8(-1)
 14288 6884 0E94 0000 		call lcd_graphics_plot_pixel
 14289               	.LM1901:
 14290 6888 87E5      		ldi r24,lo8(87)
 14291 688a 90E0      		ldi r25,hi8(87)
 14292 688c 64E1      		ldi r22,lo8(20)
 14293 688e 70E0      		ldi r23,hi8(20)
 14294 6890 4FEF      		ldi r20,lo8(-1)
 14295 6892 0E94 0000 		call lcd_graphics_plot_pixel
 14296               	.LM1902:
 14297 6896 87E5      		ldi r24,lo8(87)
 14298 6898 90E0      		ldi r25,hi8(87)
 14299 689a 65E1      		ldi r22,lo8(21)
 14300 689c 70E0      		ldi r23,hi8(21)
 14301 689e 4FEF      		ldi r20,lo8(-1)
 14302 68a0 0E94 0000 		call lcd_graphics_plot_pixel
 14303               	.LM1903:
 14304 68a4 87E5      		ldi r24,lo8(87)
 14305 68a6 90E0      		ldi r25,hi8(87)
 14306 68a8 66E1      		ldi r22,lo8(22)
 14307 68aa 70E0      		ldi r23,hi8(22)
 14308 68ac 4FEF      		ldi r20,lo8(-1)
 14309 68ae 0E94 0000 		call lcd_graphics_plot_pixel
 14310               	.LM1904:
 14311 68b2 87E5      		ldi r24,lo8(87)
 14312 68b4 90E0      		ldi r25,hi8(87)
 14313 68b6 6CE4      		ldi r22,lo8(76)
 14314 68b8 70E0      		ldi r23,hi8(76)
 14315 68ba 4FEF      		ldi r20,lo8(-1)
 14316 68bc 0E94 0000 		call lcd_graphics_plot_pixel
 14317               	.LM1905:
 14318 68c0 87E5      		ldi r24,lo8(87)
 14319 68c2 90E0      		ldi r25,hi8(87)
 14320 68c4 6DE4      		ldi r22,lo8(77)
 14321 68c6 70E0      		ldi r23,hi8(77)
 14322 68c8 4FEF      		ldi r20,lo8(-1)
 14323 68ca 0E94 0000 		call lcd_graphics_plot_pixel
 14324               	.LM1906:
 14325 68ce 87E5      		ldi r24,lo8(87)
 14326 68d0 90E0      		ldi r25,hi8(87)
 14327 68d2 6EE4      		ldi r22,lo8(78)
 14328 68d4 70E0      		ldi r23,hi8(78)
 14329 68d6 4FEF      		ldi r20,lo8(-1)
 14330 68d8 0E94 0000 		call lcd_graphics_plot_pixel
 14331               	.LM1907:
 14332 68dc 87E5      		ldi r24,lo8(87)
 14333 68de 90E0      		ldi r25,hi8(87)
 14334 68e0 6FE4      		ldi r22,lo8(79)
 14335 68e2 70E0      		ldi r23,hi8(79)
 14336 68e4 4FEF      		ldi r20,lo8(-1)
 14337 68e6 0E94 0000 		call lcd_graphics_plot_pixel
 14338               	.LM1908:
 14339 68ea 88E5      		ldi r24,lo8(88)
 14340 68ec 90E0      		ldi r25,hi8(88)
 14341 68ee 64E0      		ldi r22,lo8(4)
 14342 68f0 70E0      		ldi r23,hi8(4)
 14343 68f2 4FEF      		ldi r20,lo8(-1)
 14344 68f4 0E94 0000 		call lcd_graphics_plot_pixel
 14345               	.LM1909:
 14346 68f8 88E5      		ldi r24,lo8(88)
 14347 68fa 90E0      		ldi r25,hi8(88)
 14348 68fc 65E0      		ldi r22,lo8(5)
 14349 68fe 70E0      		ldi r23,hi8(5)
 14350 6900 4FEF      		ldi r20,lo8(-1)
 14351 6902 0E94 0000 		call lcd_graphics_plot_pixel
 14352               	.LM1910:
 14353 6906 88E5      		ldi r24,lo8(88)
 14354 6908 90E0      		ldi r25,hi8(88)
 14355 690a 68E0      		ldi r22,lo8(8)
 14356 690c 70E0      		ldi r23,hi8(8)
 14357 690e 4FEF      		ldi r20,lo8(-1)
 14358 6910 0E94 0000 		call lcd_graphics_plot_pixel
 14359               	.LM1911:
 14360 6914 88E5      		ldi r24,lo8(88)
 14361 6916 90E0      		ldi r25,hi8(88)
 14362 6918 69E0      		ldi r22,lo8(9)
 14363 691a 70E0      		ldi r23,hi8(9)
 14364 691c 4FEF      		ldi r20,lo8(-1)
 14365 691e 0E94 0000 		call lcd_graphics_plot_pixel
 14366               	.LM1912:
 14367 6922 88E5      		ldi r24,lo8(88)
 14368 6924 90E0      		ldi r25,hi8(88)
 14369 6926 6AE0      		ldi r22,lo8(10)
 14370 6928 70E0      		ldi r23,hi8(10)
 14371 692a 4FEF      		ldi r20,lo8(-1)
 14372 692c 0E94 0000 		call lcd_graphics_plot_pixel
 14373               	.LM1913:
 14374 6930 88E5      		ldi r24,lo8(88)
 14375 6932 90E0      		ldi r25,hi8(88)
 14376 6934 6BE0      		ldi r22,lo8(11)
 14377 6936 70E0      		ldi r23,hi8(11)
 14378 6938 4FEF      		ldi r20,lo8(-1)
 14379 693a 0E94 0000 		call lcd_graphics_plot_pixel
 14380               	.LM1914:
 14381 693e 88E5      		ldi r24,lo8(88)
 14382 6940 90E0      		ldi r25,hi8(88)
 14383 6942 6CE0      		ldi r22,lo8(12)
 14384 6944 70E0      		ldi r23,hi8(12)
 14385 6946 4FEF      		ldi r20,lo8(-1)
 14386 6948 0E94 0000 		call lcd_graphics_plot_pixel
 14387               	.LM1915:
 14388 694c 88E5      		ldi r24,lo8(88)
 14389 694e 90E0      		ldi r25,hi8(88)
 14390 6950 6DE0      		ldi r22,lo8(13)
 14391 6952 70E0      		ldi r23,hi8(13)
 14392 6954 4FEF      		ldi r20,lo8(-1)
 14393 6956 0E94 0000 		call lcd_graphics_plot_pixel
 14394               	.LM1916:
 14395 695a 88E5      		ldi r24,lo8(88)
 14396 695c 90E0      		ldi r25,hi8(88)
 14397 695e 6EE0      		ldi r22,lo8(14)
 14398 6960 70E0      		ldi r23,hi8(14)
 14399 6962 4FEF      		ldi r20,lo8(-1)
 14400 6964 0E94 0000 		call lcd_graphics_plot_pixel
 14401               	.LM1917:
 14402 6968 88E5      		ldi r24,lo8(88)
 14403 696a 90E0      		ldi r25,hi8(88)
 14404 696c 6FE0      		ldi r22,lo8(15)
 14405 696e 70E0      		ldi r23,hi8(15)
 14406 6970 4FEF      		ldi r20,lo8(-1)
 14407 6972 0E94 0000 		call lcd_graphics_plot_pixel
 14408               	.LM1918:
 14409 6976 88E5      		ldi r24,lo8(88)
 14410 6978 90E0      		ldi r25,hi8(88)
 14411 697a 62E1      		ldi r22,lo8(18)
 14412 697c 70E0      		ldi r23,hi8(18)
 14413 697e 4FEF      		ldi r20,lo8(-1)
 14414 6980 0E94 0000 		call lcd_graphics_plot_pixel
 14415               	.LM1919:
 14416 6984 88E5      		ldi r24,lo8(88)
 14417 6986 90E0      		ldi r25,hi8(88)
 14418 6988 63E1      		ldi r22,lo8(19)
 14419 698a 70E0      		ldi r23,hi8(19)
 14420 698c 4FEF      		ldi r20,lo8(-1)
 14421 698e 0E94 0000 		call lcd_graphics_plot_pixel
 14422               	.LM1920:
 14423 6992 88E5      		ldi r24,lo8(88)
 14424 6994 90E0      		ldi r25,hi8(88)
 14425 6996 64E1      		ldi r22,lo8(20)
 14426 6998 70E0      		ldi r23,hi8(20)
 14427 699a 4FEF      		ldi r20,lo8(-1)
 14428 699c 0E94 0000 		call lcd_graphics_plot_pixel
 14429               	.LM1921:
 14430 69a0 88E5      		ldi r24,lo8(88)
 14431 69a2 90E0      		ldi r25,hi8(88)
 14432 69a4 65E1      		ldi r22,lo8(21)
 14433 69a6 70E0      		ldi r23,hi8(21)
 14434 69a8 4FEF      		ldi r20,lo8(-1)
 14435 69aa 0E94 0000 		call lcd_graphics_plot_pixel
 14436               	.LM1922:
 14437 69ae 88E5      		ldi r24,lo8(88)
 14438 69b0 90E0      		ldi r25,hi8(88)
 14439 69b2 66E1      		ldi r22,lo8(22)
 14440 69b4 70E0      		ldi r23,hi8(22)
 14441 69b6 4FEF      		ldi r20,lo8(-1)
 14442 69b8 0E94 0000 		call lcd_graphics_plot_pixel
 14443               	.LM1923:
 14444 69bc 88E5      		ldi r24,lo8(88)
 14445 69be 90E0      		ldi r25,hi8(88)
 14446 69c0 6CE4      		ldi r22,lo8(76)
 14447 69c2 70E0      		ldi r23,hi8(76)
 14448 69c4 4FEF      		ldi r20,lo8(-1)
 14449 69c6 0E94 0000 		call lcd_graphics_plot_pixel
 14450               	.LM1924:
 14451 69ca 88E5      		ldi r24,lo8(88)
 14452 69cc 90E0      		ldi r25,hi8(88)
 14453 69ce 6DE4      		ldi r22,lo8(77)
 14454 69d0 70E0      		ldi r23,hi8(77)
 14455 69d2 4FEF      		ldi r20,lo8(-1)
 14456 69d4 0E94 0000 		call lcd_graphics_plot_pixel
 14457               	.LM1925:
 14458 69d8 88E5      		ldi r24,lo8(88)
 14459 69da 90E0      		ldi r25,hi8(88)
 14460 69dc 6EE4      		ldi r22,lo8(78)
 14461 69de 70E0      		ldi r23,hi8(78)
 14462 69e0 4FEF      		ldi r20,lo8(-1)
 14463 69e2 0E94 0000 		call lcd_graphics_plot_pixel
 14464               	.LM1926:
 14465 69e6 88E5      		ldi r24,lo8(88)
 14466 69e8 90E0      		ldi r25,hi8(88)
 14467 69ea 6FE4      		ldi r22,lo8(79)
 14468 69ec 70E0      		ldi r23,hi8(79)
 14469 69ee 4FEF      		ldi r20,lo8(-1)
 14470 69f0 0E94 0000 		call lcd_graphics_plot_pixel
 14471               	.LM1927:
 14472 69f4 89E5      		ldi r24,lo8(89)
 14473 69f6 90E0      		ldi r25,hi8(89)
 14474 69f8 65E0      		ldi r22,lo8(5)
 14475 69fa 70E0      		ldi r23,hi8(5)
 14476 69fc 4FEF      		ldi r20,lo8(-1)
 14477 69fe 0E94 0000 		call lcd_graphics_plot_pixel
 14478               	.LM1928:
 14479 6a02 89E5      		ldi r24,lo8(89)
 14480 6a04 90E0      		ldi r25,hi8(89)
 14481 6a06 66E0      		ldi r22,lo8(6)
 14482 6a08 70E0      		ldi r23,hi8(6)
 14483 6a0a 4FEF      		ldi r20,lo8(-1)
 14484 6a0c 0E94 0000 		call lcd_graphics_plot_pixel
 14485               	.LM1929:
 14486 6a10 89E5      		ldi r24,lo8(89)
 14487 6a12 90E0      		ldi r25,hi8(89)
 14488 6a14 67E0      		ldi r22,lo8(7)
 14489 6a16 70E0      		ldi r23,hi8(7)
 14490 6a18 4FEF      		ldi r20,lo8(-1)
 14491 6a1a 0E94 0000 		call lcd_graphics_plot_pixel
 14492               	.LM1930:
 14493 6a1e 89E5      		ldi r24,lo8(89)
 14494 6a20 90E0      		ldi r25,hi8(89)
 14495 6a22 68E0      		ldi r22,lo8(8)
 14496 6a24 70E0      		ldi r23,hi8(8)
 14497 6a26 4FEF      		ldi r20,lo8(-1)
 14498 6a28 0E94 0000 		call lcd_graphics_plot_pixel
 14499               	.LM1931:
 14500 6a2c 89E5      		ldi r24,lo8(89)
 14501 6a2e 90E0      		ldi r25,hi8(89)
 14502 6a30 69E0      		ldi r22,lo8(9)
 14503 6a32 70E0      		ldi r23,hi8(9)
 14504 6a34 4FEF      		ldi r20,lo8(-1)
 14505 6a36 0E94 0000 		call lcd_graphics_plot_pixel
 14506               	.LM1932:
 14507 6a3a 89E5      		ldi r24,lo8(89)
 14508 6a3c 90E0      		ldi r25,hi8(89)
 14509 6a3e 6AE0      		ldi r22,lo8(10)
 14510 6a40 70E0      		ldi r23,hi8(10)
 14511 6a42 4FEF      		ldi r20,lo8(-1)
 14512 6a44 0E94 0000 		call lcd_graphics_plot_pixel
 14513               	.LM1933:
 14514 6a48 89E5      		ldi r24,lo8(89)
 14515 6a4a 90E0      		ldi r25,hi8(89)
 14516 6a4c 6BE0      		ldi r22,lo8(11)
 14517 6a4e 70E0      		ldi r23,hi8(11)
 14518 6a50 4FEF      		ldi r20,lo8(-1)
 14519 6a52 0E94 0000 		call lcd_graphics_plot_pixel
 14520               	.LM1934:
 14521 6a56 89E5      		ldi r24,lo8(89)
 14522 6a58 90E0      		ldi r25,hi8(89)
 14523 6a5a 6CE0      		ldi r22,lo8(12)
 14524 6a5c 70E0      		ldi r23,hi8(12)
 14525 6a5e 4FEF      		ldi r20,lo8(-1)
 14526 6a60 0E94 0000 		call lcd_graphics_plot_pixel
 14527               	.LM1935:
 14528 6a64 89E5      		ldi r24,lo8(89)
 14529 6a66 90E0      		ldi r25,hi8(89)
 14530 6a68 6DE0      		ldi r22,lo8(13)
 14531 6a6a 70E0      		ldi r23,hi8(13)
 14532 6a6c 4FEF      		ldi r20,lo8(-1)
 14533 6a6e 0E94 0000 		call lcd_graphics_plot_pixel
 14534               	.LM1936:
 14535 6a72 89E5      		ldi r24,lo8(89)
 14536 6a74 90E0      		ldi r25,hi8(89)
 14537 6a76 6EE0      		ldi r22,lo8(14)
 14538 6a78 70E0      		ldi r23,hi8(14)
 14539 6a7a 4FEF      		ldi r20,lo8(-1)
 14540 6a7c 0E94 0000 		call lcd_graphics_plot_pixel
 14541               	.LM1937:
 14542 6a80 89E5      		ldi r24,lo8(89)
 14543 6a82 90E0      		ldi r25,hi8(89)
 14544 6a84 62E1      		ldi r22,lo8(18)
 14545 6a86 70E0      		ldi r23,hi8(18)
 14546 6a88 4FEF      		ldi r20,lo8(-1)
 14547 6a8a 0E94 0000 		call lcd_graphics_plot_pixel
 14548               	.LM1938:
 14549 6a8e 89E5      		ldi r24,lo8(89)
 14550 6a90 90E0      		ldi r25,hi8(89)
 14551 6a92 63E1      		ldi r22,lo8(19)
 14552 6a94 70E0      		ldi r23,hi8(19)
 14553 6a96 4FEF      		ldi r20,lo8(-1)
 14554 6a98 0E94 0000 		call lcd_graphics_plot_pixel
 14555               	.LM1939:
 14556 6a9c 89E5      		ldi r24,lo8(89)
 14557 6a9e 90E0      		ldi r25,hi8(89)
 14558 6aa0 64E1      		ldi r22,lo8(20)
 14559 6aa2 70E0      		ldi r23,hi8(20)
 14560 6aa4 4FEF      		ldi r20,lo8(-1)
 14561 6aa6 0E94 0000 		call lcd_graphics_plot_pixel
 14562               	.LM1940:
 14563 6aaa 89E5      		ldi r24,lo8(89)
 14564 6aac 90E0      		ldi r25,hi8(89)
 14565 6aae 65E1      		ldi r22,lo8(21)
 14566 6ab0 70E0      		ldi r23,hi8(21)
 14567 6ab2 4FEF      		ldi r20,lo8(-1)
 14568 6ab4 0E94 0000 		call lcd_graphics_plot_pixel
 14569               	.LM1941:
 14570 6ab8 89E5      		ldi r24,lo8(89)
 14571 6aba 90E0      		ldi r25,hi8(89)
 14572 6abc 6CE4      		ldi r22,lo8(76)
 14573 6abe 70E0      		ldi r23,hi8(76)
 14574 6ac0 4FEF      		ldi r20,lo8(-1)
 14575 6ac2 0E94 0000 		call lcd_graphics_plot_pixel
 14576               	.LM1942:
 14577 6ac6 89E5      		ldi r24,lo8(89)
 14578 6ac8 90E0      		ldi r25,hi8(89)
 14579 6aca 6DE4      		ldi r22,lo8(77)
 14580 6acc 70E0      		ldi r23,hi8(77)
 14581 6ace 4FEF      		ldi r20,lo8(-1)
 14582 6ad0 0E94 0000 		call lcd_graphics_plot_pixel
 14583               	.LM1943:
 14584 6ad4 89E5      		ldi r24,lo8(89)
 14585 6ad6 90E0      		ldi r25,hi8(89)
 14586 6ad8 6EE4      		ldi r22,lo8(78)
 14587 6ada 70E0      		ldi r23,hi8(78)
 14588 6adc 4FEF      		ldi r20,lo8(-1)
 14589 6ade 0E94 0000 		call lcd_graphics_plot_pixel
 14590               	.LM1944:
 14591 6ae2 8AE5      		ldi r24,lo8(90)
 14592 6ae4 90E0      		ldi r25,hi8(90)
 14593 6ae6 66E0      		ldi r22,lo8(6)
 14594 6ae8 70E0      		ldi r23,hi8(6)
 14595 6aea 4FEF      		ldi r20,lo8(-1)
 14596 6aec 0E94 0000 		call lcd_graphics_plot_pixel
 14597               	.LM1945:
 14598 6af0 8AE5      		ldi r24,lo8(90)
 14599 6af2 90E0      		ldi r25,hi8(90)
 14600 6af4 67E0      		ldi r22,lo8(7)
 14601 6af6 70E0      		ldi r23,hi8(7)
 14602 6af8 4FEF      		ldi r20,lo8(-1)
 14603 6afa 0E94 0000 		call lcd_graphics_plot_pixel
 14604               	.LM1946:
 14605 6afe 8AE5      		ldi r24,lo8(90)
 14606 6b00 90E0      		ldi r25,hi8(90)
 14607 6b02 68E0      		ldi r22,lo8(8)
 14608 6b04 70E0      		ldi r23,hi8(8)
 14609 6b06 4FEF      		ldi r20,lo8(-1)
 14610 6b08 0E94 0000 		call lcd_graphics_plot_pixel
 14611               	.LM1947:
 14612 6b0c 8AE5      		ldi r24,lo8(90)
 14613 6b0e 90E0      		ldi r25,hi8(90)
 14614 6b10 69E0      		ldi r22,lo8(9)
 14615 6b12 70E0      		ldi r23,hi8(9)
 14616 6b14 4FEF      		ldi r20,lo8(-1)
 14617 6b16 0E94 0000 		call lcd_graphics_plot_pixel
 14618               	.LM1948:
 14619 6b1a 8AE5      		ldi r24,lo8(90)
 14620 6b1c 90E0      		ldi r25,hi8(90)
 14621 6b1e 6AE0      		ldi r22,lo8(10)
 14622 6b20 70E0      		ldi r23,hi8(10)
 14623 6b22 4FEF      		ldi r20,lo8(-1)
 14624 6b24 0E94 0000 		call lcd_graphics_plot_pixel
 14625               	.LM1949:
 14626 6b28 8AE5      		ldi r24,lo8(90)
 14627 6b2a 90E0      		ldi r25,hi8(90)
 14628 6b2c 6BE0      		ldi r22,lo8(11)
 14629 6b2e 70E0      		ldi r23,hi8(11)
 14630 6b30 4FEF      		ldi r20,lo8(-1)
 14631 6b32 0E94 0000 		call lcd_graphics_plot_pixel
 14632               	.LM1950:
 14633 6b36 8AE5      		ldi r24,lo8(90)
 14634 6b38 90E0      		ldi r25,hi8(90)
 14635 6b3a 6CE0      		ldi r22,lo8(12)
 14636 6b3c 70E0      		ldi r23,hi8(12)
 14637 6b3e 4FEF      		ldi r20,lo8(-1)
 14638 6b40 0E94 0000 		call lcd_graphics_plot_pixel
 14639               	.LM1951:
 14640 6b44 8AE5      		ldi r24,lo8(90)
 14641 6b46 90E0      		ldi r25,hi8(90)
 14642 6b48 6DE0      		ldi r22,lo8(13)
 14643 6b4a 70E0      		ldi r23,hi8(13)
 14644 6b4c 4FEF      		ldi r20,lo8(-1)
 14645 6b4e 0E94 0000 		call lcd_graphics_plot_pixel
 14646               	.LM1952:
 14647 6b52 8AE5      		ldi r24,lo8(90)
 14648 6b54 90E0      		ldi r25,hi8(90)
 14649 6b56 62E1      		ldi r22,lo8(18)
 14650 6b58 70E0      		ldi r23,hi8(18)
 14651 6b5a 4FEF      		ldi r20,lo8(-1)
 14652 6b5c 0E94 0000 		call lcd_graphics_plot_pixel
 14653               	.LM1953:
 14654 6b60 8AE5      		ldi r24,lo8(90)
 14655 6b62 90E0      		ldi r25,hi8(90)
 14656 6b64 63E1      		ldi r22,lo8(19)
 14657 6b66 70E0      		ldi r23,hi8(19)
 14658 6b68 4FEF      		ldi r20,lo8(-1)
 14659 6b6a 0E94 0000 		call lcd_graphics_plot_pixel
 14660               	.LM1954:
 14661 6b6e 8AE5      		ldi r24,lo8(90)
 14662 6b70 90E0      		ldi r25,hi8(90)
 14663 6b72 64E1      		ldi r22,lo8(20)
 14664 6b74 70E0      		ldi r23,hi8(20)
 14665 6b76 4FEF      		ldi r20,lo8(-1)
 14666 6b78 0E94 0000 		call lcd_graphics_plot_pixel
 14667               	.LM1955:
 14668 6b7c 8AE5      		ldi r24,lo8(90)
 14669 6b7e 90E0      		ldi r25,hi8(90)
 14670 6b80 65E1      		ldi r22,lo8(21)
 14671 6b82 70E0      		ldi r23,hi8(21)
 14672 6b84 4FEF      		ldi r20,lo8(-1)
 14673 6b86 0E94 0000 		call lcd_graphics_plot_pixel
 14674               	.LM1956:
 14675 6b8a 8AE5      		ldi r24,lo8(90)
 14676 6b8c 90E0      		ldi r25,hi8(90)
 14677 6b8e 6BE4      		ldi r22,lo8(75)
 14678 6b90 70E0      		ldi r23,hi8(75)
 14679 6b92 4FEF      		ldi r20,lo8(-1)
 14680 6b94 0E94 0000 		call lcd_graphics_plot_pixel
 14681               	.LM1957:
 14682 6b98 8AE5      		ldi r24,lo8(90)
 14683 6b9a 90E0      		ldi r25,hi8(90)
 14684 6b9c 6CE4      		ldi r22,lo8(76)
 14685 6b9e 70E0      		ldi r23,hi8(76)
 14686 6ba0 4FEF      		ldi r20,lo8(-1)
 14687 6ba2 0E94 0000 		call lcd_graphics_plot_pixel
 14688               	.LM1958:
 14689 6ba6 8AE5      		ldi r24,lo8(90)
 14690 6ba8 90E0      		ldi r25,hi8(90)
 14691 6baa 6DE4      		ldi r22,lo8(77)
 14692 6bac 70E0      		ldi r23,hi8(77)
 14693 6bae 4FEF      		ldi r20,lo8(-1)
 14694 6bb0 0E94 0000 		call lcd_graphics_plot_pixel
 14695               	.LM1959:
 14696 6bb4 8AE5      		ldi r24,lo8(90)
 14697 6bb6 90E0      		ldi r25,hi8(90)
 14698 6bb8 6EE4      		ldi r22,lo8(78)
 14699 6bba 70E0      		ldi r23,hi8(78)
 14700 6bbc 4FEF      		ldi r20,lo8(-1)
 14701 6bbe 0E94 0000 		call lcd_graphics_plot_pixel
 14702               	.LM1960:
 14703 6bc2 8BE5      		ldi r24,lo8(91)
 14704 6bc4 90E0      		ldi r25,hi8(91)
 14705 6bc6 61E1      		ldi r22,lo8(17)
 14706 6bc8 70E0      		ldi r23,hi8(17)
 14707 6bca 4FEF      		ldi r20,lo8(-1)
 14708 6bcc 0E94 0000 		call lcd_graphics_plot_pixel
 14709               	.LM1961:
 14710 6bd0 8BE5      		ldi r24,lo8(91)
 14711 6bd2 90E0      		ldi r25,hi8(91)
 14712 6bd4 62E1      		ldi r22,lo8(18)
 14713 6bd6 70E0      		ldi r23,hi8(18)
 14714 6bd8 4FEF      		ldi r20,lo8(-1)
 14715 6bda 0E94 0000 		call lcd_graphics_plot_pixel
 14716               	.LM1962:
 14717 6bde 8BE5      		ldi r24,lo8(91)
 14718 6be0 90E0      		ldi r25,hi8(91)
 14719 6be2 63E1      		ldi r22,lo8(19)
 14720 6be4 70E0      		ldi r23,hi8(19)
 14721 6be6 4FEF      		ldi r20,lo8(-1)
 14722 6be8 0E94 0000 		call lcd_graphics_plot_pixel
 14723               	.LM1963:
 14724 6bec 8BE5      		ldi r24,lo8(91)
 14725 6bee 90E0      		ldi r25,hi8(91)
 14726 6bf0 64E1      		ldi r22,lo8(20)
 14727 6bf2 70E0      		ldi r23,hi8(20)
 14728 6bf4 4FEF      		ldi r20,lo8(-1)
 14729 6bf6 0E94 0000 		call lcd_graphics_plot_pixel
 14730               	.LM1964:
 14731 6bfa 8BE5      		ldi r24,lo8(91)
 14732 6bfc 90E0      		ldi r25,hi8(91)
 14733 6bfe 65E1      		ldi r22,lo8(21)
 14734 6c00 70E0      		ldi r23,hi8(21)
 14735 6c02 4FEF      		ldi r20,lo8(-1)
 14736 6c04 0E94 0000 		call lcd_graphics_plot_pixel
 14737               	.LM1965:
 14738 6c08 8BE5      		ldi r24,lo8(91)
 14739 6c0a 90E0      		ldi r25,hi8(91)
 14740 6c0c 6BE4      		ldi r22,lo8(75)
 14741 6c0e 70E0      		ldi r23,hi8(75)
 14742 6c10 4FEF      		ldi r20,lo8(-1)
 14743 6c12 0E94 0000 		call lcd_graphics_plot_pixel
 14744               	.LM1966:
 14745 6c16 8BE5      		ldi r24,lo8(91)
 14746 6c18 90E0      		ldi r25,hi8(91)
 14747 6c1a 6CE4      		ldi r22,lo8(76)
 14748 6c1c 70E0      		ldi r23,hi8(76)
 14749 6c1e 4FEF      		ldi r20,lo8(-1)
 14750 6c20 0E94 0000 		call lcd_graphics_plot_pixel
 14751               	.LM1967:
 14752 6c24 8BE5      		ldi r24,lo8(91)
 14753 6c26 90E0      		ldi r25,hi8(91)
 14754 6c28 6DE4      		ldi r22,lo8(77)
 14755 6c2a 70E0      		ldi r23,hi8(77)
 14756 6c2c 4FEF      		ldi r20,lo8(-1)
 14757 6c2e 0E94 0000 		call lcd_graphics_plot_pixel
 14758               	.LM1968:
 14759 6c32 8BE5      		ldi r24,lo8(91)
 14760 6c34 90E0      		ldi r25,hi8(91)
 14761 6c36 6EE4      		ldi r22,lo8(78)
 14762 6c38 70E0      		ldi r23,hi8(78)
 14763 6c3a 4FEF      		ldi r20,lo8(-1)
 14764 6c3c 0E94 0000 		call lcd_graphics_plot_pixel
 14765               	.LM1969:
 14766 6c40 8CE5      		ldi r24,lo8(92)
 14767 6c42 90E0      		ldi r25,hi8(92)
 14768 6c44 66E0      		ldi r22,lo8(6)
 14769 6c46 70E0      		ldi r23,hi8(6)
 14770 6c48 4FEF      		ldi r20,lo8(-1)
 14771 6c4a 0E94 0000 		call lcd_graphics_plot_pixel
 14772               	.LM1970:
 14773 6c4e 8CE5      		ldi r24,lo8(92)
 14774 6c50 90E0      		ldi r25,hi8(92)
 14775 6c52 67E0      		ldi r22,lo8(7)
 14776 6c54 70E0      		ldi r23,hi8(7)
 14777 6c56 4FEF      		ldi r20,lo8(-1)
 14778 6c58 0E94 0000 		call lcd_graphics_plot_pixel
 14779               	.LM1971:
 14780 6c5c 8CE5      		ldi r24,lo8(92)
 14781 6c5e 90E0      		ldi r25,hi8(92)
 14782 6c60 68E0      		ldi r22,lo8(8)
 14783 6c62 70E0      		ldi r23,hi8(8)
 14784 6c64 4FEF      		ldi r20,lo8(-1)
 14785 6c66 0E94 0000 		call lcd_graphics_plot_pixel
 14786               	.LM1972:
 14787 6c6a 8CE5      		ldi r24,lo8(92)
 14788 6c6c 90E0      		ldi r25,hi8(92)
 14789 6c6e 61E1      		ldi r22,lo8(17)
 14790 6c70 70E0      		ldi r23,hi8(17)
 14791 6c72 4FEF      		ldi r20,lo8(-1)
 14792 6c74 0E94 0000 		call lcd_graphics_plot_pixel
 14793               	.LM1973:
 14794 6c78 8CE5      		ldi r24,lo8(92)
 14795 6c7a 90E0      		ldi r25,hi8(92)
 14796 6c7c 62E1      		ldi r22,lo8(18)
 14797 6c7e 70E0      		ldi r23,hi8(18)
 14798 6c80 4FEF      		ldi r20,lo8(-1)
 14799 6c82 0E94 0000 		call lcd_graphics_plot_pixel
 14800               	.LM1974:
 14801 6c86 8CE5      		ldi r24,lo8(92)
 14802 6c88 90E0      		ldi r25,hi8(92)
 14803 6c8a 63E1      		ldi r22,lo8(19)
 14804 6c8c 70E0      		ldi r23,hi8(19)
 14805 6c8e 4FEF      		ldi r20,lo8(-1)
 14806 6c90 0E94 0000 		call lcd_graphics_plot_pixel
 14807               	.LM1975:
 14808 6c94 8CE5      		ldi r24,lo8(92)
 14809 6c96 90E0      		ldi r25,hi8(92)
 14810 6c98 64E1      		ldi r22,lo8(20)
 14811 6c9a 70E0      		ldi r23,hi8(20)
 14812 6c9c 4FEF      		ldi r20,lo8(-1)
 14813 6c9e 0E94 0000 		call lcd_graphics_plot_pixel
 14814               	.LM1976:
 14815 6ca2 8CE5      		ldi r24,lo8(92)
 14816 6ca4 90E0      		ldi r25,hi8(92)
 14817 6ca6 65E1      		ldi r22,lo8(21)
 14818 6ca8 70E0      		ldi r23,hi8(21)
 14819 6caa 4FEF      		ldi r20,lo8(-1)
 14820 6cac 0E94 0000 		call lcd_graphics_plot_pixel
 14821               	.LM1977:
 14822 6cb0 8CE5      		ldi r24,lo8(92)
 14823 6cb2 90E0      		ldi r25,hi8(92)
 14824 6cb4 6BE4      		ldi r22,lo8(75)
 14825 6cb6 70E0      		ldi r23,hi8(75)
 14826 6cb8 4FEF      		ldi r20,lo8(-1)
 14827 6cba 0E94 0000 		call lcd_graphics_plot_pixel
 14828               	.LM1978:
 14829 6cbe 8CE5      		ldi r24,lo8(92)
 14830 6cc0 90E0      		ldi r25,hi8(92)
 14831 6cc2 6CE4      		ldi r22,lo8(76)
 14832 6cc4 70E0      		ldi r23,hi8(76)
 14833 6cc6 4FEF      		ldi r20,lo8(-1)
 14834 6cc8 0E94 0000 		call lcd_graphics_plot_pixel
 14835               	.LM1979:
 14836 6ccc 8CE5      		ldi r24,lo8(92)
 14837 6cce 90E0      		ldi r25,hi8(92)
 14838 6cd0 6DE4      		ldi r22,lo8(77)
 14839 6cd2 70E0      		ldi r23,hi8(77)
 14840 6cd4 4FEF      		ldi r20,lo8(-1)
 14841 6cd6 0E94 0000 		call lcd_graphics_plot_pixel
 14842               	.LM1980:
 14843 6cda 8CE5      		ldi r24,lo8(92)
 14844 6cdc 90E0      		ldi r25,hi8(92)
 14845 6cde 6EE4      		ldi r22,lo8(78)
 14846 6ce0 70E0      		ldi r23,hi8(78)
 14847 6ce2 4FEF      		ldi r20,lo8(-1)
 14848 6ce4 0E94 0000 		call lcd_graphics_plot_pixel
 14849               	.LM1981:
 14850 6ce8 8DE5      		ldi r24,lo8(93)
 14851 6cea 90E0      		ldi r25,hi8(93)
 14852 6cec 66E0      		ldi r22,lo8(6)
 14853 6cee 70E0      		ldi r23,hi8(6)
 14854 6cf0 4FEF      		ldi r20,lo8(-1)
 14855 6cf2 0E94 0000 		call lcd_graphics_plot_pixel
 14856               	.LM1982:
 14857 6cf6 8DE5      		ldi r24,lo8(93)
 14858 6cf8 90E0      		ldi r25,hi8(93)
 14859 6cfa 67E0      		ldi r22,lo8(7)
 14860 6cfc 70E0      		ldi r23,hi8(7)
 14861 6cfe 4FEF      		ldi r20,lo8(-1)
 14862 6d00 0E94 0000 		call lcd_graphics_plot_pixel
 14863               	.LM1983:
 14864 6d04 8DE5      		ldi r24,lo8(93)
 14865 6d06 90E0      		ldi r25,hi8(93)
 14866 6d08 68E0      		ldi r22,lo8(8)
 14867 6d0a 70E0      		ldi r23,hi8(8)
 14868 6d0c 4FEF      		ldi r20,lo8(-1)
 14869 6d0e 0E94 0000 		call lcd_graphics_plot_pixel
 14870               	.LM1984:
 14871 6d12 8DE5      		ldi r24,lo8(93)
 14872 6d14 90E0      		ldi r25,hi8(93)
 14873 6d16 60E1      		ldi r22,lo8(16)
 14874 6d18 70E0      		ldi r23,hi8(16)
 14875 6d1a 4FEF      		ldi r20,lo8(-1)
 14876 6d1c 0E94 0000 		call lcd_graphics_plot_pixel
 14877               	.LM1985:
 14878 6d20 8DE5      		ldi r24,lo8(93)
 14879 6d22 90E0      		ldi r25,hi8(93)
 14880 6d24 61E1      		ldi r22,lo8(17)
 14881 6d26 70E0      		ldi r23,hi8(17)
 14882 6d28 4FEF      		ldi r20,lo8(-1)
 14883 6d2a 0E94 0000 		call lcd_graphics_plot_pixel
 14884               	.LM1986:
 14885 6d2e 8DE5      		ldi r24,lo8(93)
 14886 6d30 90E0      		ldi r25,hi8(93)
 14887 6d32 62E1      		ldi r22,lo8(18)
 14888 6d34 70E0      		ldi r23,hi8(18)
 14889 6d36 4FEF      		ldi r20,lo8(-1)
 14890 6d38 0E94 0000 		call lcd_graphics_plot_pixel
 14891               	.LM1987:
 14892 6d3c 8DE5      		ldi r24,lo8(93)
 14893 6d3e 90E0      		ldi r25,hi8(93)
 14894 6d40 63E1      		ldi r22,lo8(19)
 14895 6d42 70E0      		ldi r23,hi8(19)
 14896 6d44 4FEF      		ldi r20,lo8(-1)
 14897 6d46 0E94 0000 		call lcd_graphics_plot_pixel
 14898               	.LM1988:
 14899 6d4a 8DE5      		ldi r24,lo8(93)
 14900 6d4c 90E0      		ldi r25,hi8(93)
 14901 6d4e 64E1      		ldi r22,lo8(20)
 14902 6d50 70E0      		ldi r23,hi8(20)
 14903 6d52 4FEF      		ldi r20,lo8(-1)
 14904 6d54 0E94 0000 		call lcd_graphics_plot_pixel
 14905               	.LM1989:
 14906 6d58 8DE5      		ldi r24,lo8(93)
 14907 6d5a 90E0      		ldi r25,hi8(93)
 14908 6d5c 6AE4      		ldi r22,lo8(74)
 14909 6d5e 70E0      		ldi r23,hi8(74)
 14910 6d60 4FEF      		ldi r20,lo8(-1)
 14911 6d62 0E94 0000 		call lcd_graphics_plot_pixel
 14912               	.LM1990:
 14913 6d66 8DE5      		ldi r24,lo8(93)
 14914 6d68 90E0      		ldi r25,hi8(93)
 14915 6d6a 6BE4      		ldi r22,lo8(75)
 14916 6d6c 70E0      		ldi r23,hi8(75)
 14917 6d6e 4FEF      		ldi r20,lo8(-1)
 14918 6d70 0E94 0000 		call lcd_graphics_plot_pixel
 14919               	.LM1991:
 14920 6d74 8DE5      		ldi r24,lo8(93)
 14921 6d76 90E0      		ldi r25,hi8(93)
 14922 6d78 6CE4      		ldi r22,lo8(76)
 14923 6d7a 70E0      		ldi r23,hi8(76)
 14924 6d7c 4FEF      		ldi r20,lo8(-1)
 14925 6d7e 0E94 0000 		call lcd_graphics_plot_pixel
 14926               	.LM1992:
 14927 6d82 8DE5      		ldi r24,lo8(93)
 14928 6d84 90E0      		ldi r25,hi8(93)
 14929 6d86 6DE4      		ldi r22,lo8(77)
 14930 6d88 70E0      		ldi r23,hi8(77)
 14931 6d8a 4FEF      		ldi r20,lo8(-1)
 14932 6d8c 0E94 0000 		call lcd_graphics_plot_pixel
 14933               	.LM1993:
 14934 6d90 8EE5      		ldi r24,lo8(94)
 14935 6d92 90E0      		ldi r25,hi8(94)
 14936 6d94 67E0      		ldi r22,lo8(7)
 14937 6d96 70E0      		ldi r23,hi8(7)
 14938 6d98 4FEF      		ldi r20,lo8(-1)
 14939 6d9a 0E94 0000 		call lcd_graphics_plot_pixel
 14940               	.LM1994:
 14941 6d9e 8EE5      		ldi r24,lo8(94)
 14942 6da0 90E0      		ldi r25,hi8(94)
 14943 6da2 68E0      		ldi r22,lo8(8)
 14944 6da4 70E0      		ldi r23,hi8(8)
 14945 6da6 4FEF      		ldi r20,lo8(-1)
 14946 6da8 0E94 0000 		call lcd_graphics_plot_pixel
 14947               	.LM1995:
 14948 6dac 8EE5      		ldi r24,lo8(94)
 14949 6dae 90E0      		ldi r25,hi8(94)
 14950 6db0 69E0      		ldi r22,lo8(9)
 14951 6db2 70E0      		ldi r23,hi8(9)
 14952 6db4 4FEF      		ldi r20,lo8(-1)
 14953 6db6 0E94 0000 		call lcd_graphics_plot_pixel
 14954               	.LM1996:
 14955 6dba 8EE5      		ldi r24,lo8(94)
 14956 6dbc 90E0      		ldi r25,hi8(94)
 14957 6dbe 60E1      		ldi r22,lo8(16)
 14958 6dc0 70E0      		ldi r23,hi8(16)
 14959 6dc2 4FEF      		ldi r20,lo8(-1)
 14960 6dc4 0E94 0000 		call lcd_graphics_plot_pixel
 14961               	.LM1997:
 14962 6dc8 8EE5      		ldi r24,lo8(94)
 14963 6dca 90E0      		ldi r25,hi8(94)
 14964 6dcc 61E1      		ldi r22,lo8(17)
 14965 6dce 70E0      		ldi r23,hi8(17)
 14966 6dd0 4FEF      		ldi r20,lo8(-1)
 14967 6dd2 0E94 0000 		call lcd_graphics_plot_pixel
 14968               	.LM1998:
 14969 6dd6 8EE5      		ldi r24,lo8(94)
 14970 6dd8 90E0      		ldi r25,hi8(94)
 14971 6dda 62E1      		ldi r22,lo8(18)
 14972 6ddc 70E0      		ldi r23,hi8(18)
 14973 6dde 4FEF      		ldi r20,lo8(-1)
 14974 6de0 0E94 0000 		call lcd_graphics_plot_pixel
 14975               	.LM1999:
 14976 6de4 8EE5      		ldi r24,lo8(94)
 14977 6de6 90E0      		ldi r25,hi8(94)
 14978 6de8 63E1      		ldi r22,lo8(19)
 14979 6dea 70E0      		ldi r23,hi8(19)
 14980 6dec 4FEF      		ldi r20,lo8(-1)
 14981 6dee 0E94 0000 		call lcd_graphics_plot_pixel
 14982               	.LM2000:
 14983 6df2 8EE5      		ldi r24,lo8(94)
 14984 6df4 90E0      		ldi r25,hi8(94)
 14985 6df6 64E1      		ldi r22,lo8(20)
 14986 6df8 70E0      		ldi r23,hi8(20)
 14987 6dfa 4FEF      		ldi r20,lo8(-1)
 14988 6dfc 0E94 0000 		call lcd_graphics_plot_pixel
 14989               	.LM2001:
 14990 6e00 8EE5      		ldi r24,lo8(94)
 14991 6e02 90E0      		ldi r25,hi8(94)
 14992 6e04 6AE4      		ldi r22,lo8(74)
 14993 6e06 70E0      		ldi r23,hi8(74)
 14994 6e08 4FEF      		ldi r20,lo8(-1)
 14995 6e0a 0E94 0000 		call lcd_graphics_plot_pixel
 14996               	.LM2002:
 14997 6e0e 8EE5      		ldi r24,lo8(94)
 14998 6e10 90E0      		ldi r25,hi8(94)
 14999 6e12 6BE4      		ldi r22,lo8(75)
 15000 6e14 70E0      		ldi r23,hi8(75)
 15001 6e16 4FEF      		ldi r20,lo8(-1)
 15002 6e18 0E94 0000 		call lcd_graphics_plot_pixel
 15003               	.LM2003:
 15004 6e1c 8EE5      		ldi r24,lo8(94)
 15005 6e1e 90E0      		ldi r25,hi8(94)
 15006 6e20 6CE4      		ldi r22,lo8(76)
 15007 6e22 70E0      		ldi r23,hi8(76)
 15008 6e24 4FEF      		ldi r20,lo8(-1)
 15009 6e26 0E94 0000 		call lcd_graphics_plot_pixel
 15010               	.LM2004:
 15011 6e2a 8EE5      		ldi r24,lo8(94)
 15012 6e2c 90E0      		ldi r25,hi8(94)
 15013 6e2e 6DE4      		ldi r22,lo8(77)
 15014 6e30 70E0      		ldi r23,hi8(77)
 15015 6e32 4FEF      		ldi r20,lo8(-1)
 15016 6e34 0E94 0000 		call lcd_graphics_plot_pixel
 15017               	.LM2005:
 15018 6e38 8FE5      		ldi r24,lo8(95)
 15019 6e3a 90E0      		ldi r25,hi8(95)
 15020 6e3c 67E0      		ldi r22,lo8(7)
 15021 6e3e 70E0      		ldi r23,hi8(7)
 15022 6e40 4FEF      		ldi r20,lo8(-1)
 15023 6e42 0E94 0000 		call lcd_graphics_plot_pixel
 15024               	.LM2006:
 15025 6e46 8FE5      		ldi r24,lo8(95)
 15026 6e48 90E0      		ldi r25,hi8(95)
 15027 6e4a 68E0      		ldi r22,lo8(8)
 15028 6e4c 70E0      		ldi r23,hi8(8)
 15029 6e4e 4FEF      		ldi r20,lo8(-1)
 15030 6e50 0E94 0000 		call lcd_graphics_plot_pixel
 15031               	.LM2007:
 15032 6e54 8FE5      		ldi r24,lo8(95)
 15033 6e56 90E0      		ldi r25,hi8(95)
 15034 6e58 69E0      		ldi r22,lo8(9)
 15035 6e5a 70E0      		ldi r23,hi8(9)
 15036 6e5c 4FEF      		ldi r20,lo8(-1)
 15037 6e5e 0E94 0000 		call lcd_graphics_plot_pixel
 15038               	.LM2008:
 15039 6e62 8FE5      		ldi r24,lo8(95)
 15040 6e64 90E0      		ldi r25,hi8(95)
 15041 6e66 6AE0      		ldi r22,lo8(10)
 15042 6e68 70E0      		ldi r23,hi8(10)
 15043 6e6a 4FEF      		ldi r20,lo8(-1)
 15044 6e6c 0E94 0000 		call lcd_graphics_plot_pixel
 15045               	.LM2009:
 15046 6e70 8FE5      		ldi r24,lo8(95)
 15047 6e72 90E0      		ldi r25,hi8(95)
 15048 6e74 6FE0      		ldi r22,lo8(15)
 15049 6e76 70E0      		ldi r23,hi8(15)
 15050 6e78 4FEF      		ldi r20,lo8(-1)
 15051 6e7a 0E94 0000 		call lcd_graphics_plot_pixel
 15052               	.LM2010:
 15053 6e7e 8FE5      		ldi r24,lo8(95)
 15054 6e80 90E0      		ldi r25,hi8(95)
 15055 6e82 60E1      		ldi r22,lo8(16)
 15056 6e84 70E0      		ldi r23,hi8(16)
 15057 6e86 4FEF      		ldi r20,lo8(-1)
 15058 6e88 0E94 0000 		call lcd_graphics_plot_pixel
 15059               	.LM2011:
 15060 6e8c 8FE5      		ldi r24,lo8(95)
 15061 6e8e 90E0      		ldi r25,hi8(95)
 15062 6e90 61E1      		ldi r22,lo8(17)
 15063 6e92 70E0      		ldi r23,hi8(17)
 15064 6e94 4FEF      		ldi r20,lo8(-1)
 15065 6e96 0E94 0000 		call lcd_graphics_plot_pixel
 15066               	.LM2012:
 15067 6e9a 8FE5      		ldi r24,lo8(95)
 15068 6e9c 90E0      		ldi r25,hi8(95)
 15069 6e9e 62E1      		ldi r22,lo8(18)
 15070 6ea0 70E0      		ldi r23,hi8(18)
 15071 6ea2 4FEF      		ldi r20,lo8(-1)
 15072 6ea4 0E94 0000 		call lcd_graphics_plot_pixel
 15073               	.LM2013:
 15074 6ea8 8FE5      		ldi r24,lo8(95)
 15075 6eaa 90E0      		ldi r25,hi8(95)
 15076 6eac 63E1      		ldi r22,lo8(19)
 15077 6eae 70E0      		ldi r23,hi8(19)
 15078 6eb0 4FEF      		ldi r20,lo8(-1)
 15079 6eb2 0E94 0000 		call lcd_graphics_plot_pixel
 15080               	.LM2014:
 15081 6eb6 8FE5      		ldi r24,lo8(95)
 15082 6eb8 90E0      		ldi r25,hi8(95)
 15083 6eba 69E4      		ldi r22,lo8(73)
 15084 6ebc 70E0      		ldi r23,hi8(73)
 15085 6ebe 4FEF      		ldi r20,lo8(-1)
 15086 6ec0 0E94 0000 		call lcd_graphics_plot_pixel
 15087               	.LM2015:
 15088 6ec4 8FE5      		ldi r24,lo8(95)
 15089 6ec6 90E0      		ldi r25,hi8(95)
 15090 6ec8 6AE4      		ldi r22,lo8(74)
 15091 6eca 70E0      		ldi r23,hi8(74)
 15092 6ecc 4FEF      		ldi r20,lo8(-1)
 15093 6ece 0E94 0000 		call lcd_graphics_plot_pixel
 15094               	.LM2016:
 15095 6ed2 8FE5      		ldi r24,lo8(95)
 15096 6ed4 90E0      		ldi r25,hi8(95)
 15097 6ed6 6BE4      		ldi r22,lo8(75)
 15098 6ed8 70E0      		ldi r23,hi8(75)
 15099 6eda 4FEF      		ldi r20,lo8(-1)
 15100 6edc 0E94 0000 		call lcd_graphics_plot_pixel
 15101               	.LM2017:
 15102 6ee0 8FE5      		ldi r24,lo8(95)
 15103 6ee2 90E0      		ldi r25,hi8(95)
 15104 6ee4 6CE4      		ldi r22,lo8(76)
 15105 6ee6 70E0      		ldi r23,hi8(76)
 15106 6ee8 4FEF      		ldi r20,lo8(-1)
 15107 6eea 0E94 0000 		call lcd_graphics_plot_pixel
 15108               	.LM2018:
 15109 6eee 8FE5      		ldi r24,lo8(95)
 15110 6ef0 90E0      		ldi r25,hi8(95)
 15111 6ef2 6DE4      		ldi r22,lo8(77)
 15112 6ef4 70E0      		ldi r23,hi8(77)
 15113 6ef6 4FEF      		ldi r20,lo8(-1)
 15114 6ef8 0E94 0000 		call lcd_graphics_plot_pixel
 15115               	.LM2019:
 15116 6efc 80E6      		ldi r24,lo8(96)
 15117 6efe 90E0      		ldi r25,hi8(96)
 15118 6f00 68E0      		ldi r22,lo8(8)
 15119 6f02 70E0      		ldi r23,hi8(8)
 15120 6f04 4FEF      		ldi r20,lo8(-1)
 15121 6f06 0E94 0000 		call lcd_graphics_plot_pixel
 15122               	.LM2020:
 15123 6f0a 80E6      		ldi r24,lo8(96)
 15124 6f0c 90E0      		ldi r25,hi8(96)
 15125 6f0e 69E0      		ldi r22,lo8(9)
 15126 6f10 70E0      		ldi r23,hi8(9)
 15127 6f12 4FEF      		ldi r20,lo8(-1)
 15128 6f14 0E94 0000 		call lcd_graphics_plot_pixel
 15129               	.LM2021:
 15130 6f18 80E6      		ldi r24,lo8(96)
 15131 6f1a 90E0      		ldi r25,hi8(96)
 15132 6f1c 6AE0      		ldi r22,lo8(10)
 15133 6f1e 70E0      		ldi r23,hi8(10)
 15134 6f20 4FEF      		ldi r20,lo8(-1)
 15135 6f22 0E94 0000 		call lcd_graphics_plot_pixel
 15136               	.LM2022:
 15137 6f26 80E6      		ldi r24,lo8(96)
 15138 6f28 90E0      		ldi r25,hi8(96)
 15139 6f2a 6BE0      		ldi r22,lo8(11)
 15140 6f2c 70E0      		ldi r23,hi8(11)
 15141 6f2e 4FEF      		ldi r20,lo8(-1)
 15142 6f30 0E94 0000 		call lcd_graphics_plot_pixel
 15143               	.LM2023:
 15144 6f34 80E6      		ldi r24,lo8(96)
 15145 6f36 90E0      		ldi r25,hi8(96)
 15146 6f38 6CE0      		ldi r22,lo8(12)
 15147 6f3a 70E0      		ldi r23,hi8(12)
 15148 6f3c 4FEF      		ldi r20,lo8(-1)
 15149 6f3e 0E94 0000 		call lcd_graphics_plot_pixel
 15150               	.LM2024:
 15151 6f42 80E6      		ldi r24,lo8(96)
 15152 6f44 90E0      		ldi r25,hi8(96)
 15153 6f46 6DE0      		ldi r22,lo8(13)
 15154 6f48 70E0      		ldi r23,hi8(13)
 15155 6f4a 4FEF      		ldi r20,lo8(-1)
 15156 6f4c 0E94 0000 		call lcd_graphics_plot_pixel
 15157               	.LM2025:
 15158 6f50 80E6      		ldi r24,lo8(96)
 15159 6f52 90E0      		ldi r25,hi8(96)
 15160 6f54 6EE0      		ldi r22,lo8(14)
 15161 6f56 70E0      		ldi r23,hi8(14)
 15162 6f58 4FEF      		ldi r20,lo8(-1)
 15163 6f5a 0E94 0000 		call lcd_graphics_plot_pixel
 15164               	.LM2026:
 15165 6f5e 80E6      		ldi r24,lo8(96)
 15166 6f60 90E0      		ldi r25,hi8(96)
 15167 6f62 6FE0      		ldi r22,lo8(15)
 15168 6f64 70E0      		ldi r23,hi8(15)
 15169 6f66 4FEF      		ldi r20,lo8(-1)
 15170 6f68 0E94 0000 		call lcd_graphics_plot_pixel
 15171               	.LM2027:
 15172 6f6c 80E6      		ldi r24,lo8(96)
 15173 6f6e 90E0      		ldi r25,hi8(96)
 15174 6f70 60E1      		ldi r22,lo8(16)
 15175 6f72 70E0      		ldi r23,hi8(16)
 15176 6f74 4FEF      		ldi r20,lo8(-1)
 15177 6f76 0E94 0000 		call lcd_graphics_plot_pixel
 15178               	.LM2028:
 15179 6f7a 80E6      		ldi r24,lo8(96)
 15180 6f7c 90E0      		ldi r25,hi8(96)
 15181 6f7e 61E1      		ldi r22,lo8(17)
 15182 6f80 70E0      		ldi r23,hi8(17)
 15183 6f82 4FEF      		ldi r20,lo8(-1)
 15184 6f84 0E94 0000 		call lcd_graphics_plot_pixel
 15185               	.LM2029:
 15186 6f88 80E6      		ldi r24,lo8(96)
 15187 6f8a 90E0      		ldi r25,hi8(96)
 15188 6f8c 62E1      		ldi r22,lo8(18)
 15189 6f8e 70E0      		ldi r23,hi8(18)
 15190 6f90 4FEF      		ldi r20,lo8(-1)
 15191 6f92 0E94 0000 		call lcd_graphics_plot_pixel
 15192               	.LM2030:
 15193 6f96 80E6      		ldi r24,lo8(96)
 15194 6f98 90E0      		ldi r25,hi8(96)
 15195 6f9a 68E4      		ldi r22,lo8(72)
 15196 6f9c 70E0      		ldi r23,hi8(72)
 15197 6f9e 4FEF      		ldi r20,lo8(-1)
 15198 6fa0 0E94 0000 		call lcd_graphics_plot_pixel
 15199               	.LM2031:
 15200 6fa4 80E6      		ldi r24,lo8(96)
 15201 6fa6 90E0      		ldi r25,hi8(96)
 15202 6fa8 69E4      		ldi r22,lo8(73)
 15203 6faa 70E0      		ldi r23,hi8(73)
 15204 6fac 4FEF      		ldi r20,lo8(-1)
 15205 6fae 0E94 0000 		call lcd_graphics_plot_pixel
 15206               	.LM2032:
 15207 6fb2 80E6      		ldi r24,lo8(96)
 15208 6fb4 90E0      		ldi r25,hi8(96)
 15209 6fb6 6AE4      		ldi r22,lo8(74)
 15210 6fb8 70E0      		ldi r23,hi8(74)
 15211 6fba 4FEF      		ldi r20,lo8(-1)
 15212 6fbc 0E94 0000 		call lcd_graphics_plot_pixel
 15213               	.LM2033:
 15214 6fc0 80E6      		ldi r24,lo8(96)
 15215 6fc2 90E0      		ldi r25,hi8(96)
 15216 6fc4 6BE4      		ldi r22,lo8(75)
 15217 6fc6 70E0      		ldi r23,hi8(75)
 15218 6fc8 4FEF      		ldi r20,lo8(-1)
 15219 6fca 0E94 0000 		call lcd_graphics_plot_pixel
 15220               	.LM2034:
 15221 6fce 80E6      		ldi r24,lo8(96)
 15222 6fd0 90E0      		ldi r25,hi8(96)
 15223 6fd2 6CE4      		ldi r22,lo8(76)
 15224 6fd4 70E0      		ldi r23,hi8(76)
 15225 6fd6 4FEF      		ldi r20,lo8(-1)
 15226 6fd8 0E94 0000 		call lcd_graphics_plot_pixel
 15227               	.LM2035:
 15228 6fdc 81E6      		ldi r24,lo8(97)
 15229 6fde 90E0      		ldi r25,hi8(97)
 15230 6fe0 68E0      		ldi r22,lo8(8)
 15231 6fe2 70E0      		ldi r23,hi8(8)
 15232 6fe4 4FEF      		ldi r20,lo8(-1)
 15233 6fe6 0E94 0000 		call lcd_graphics_plot_pixel
 15234               	.LM2036:
 15235 6fea 81E6      		ldi r24,lo8(97)
 15236 6fec 90E0      		ldi r25,hi8(97)
 15237 6fee 69E0      		ldi r22,lo8(9)
 15238 6ff0 70E0      		ldi r23,hi8(9)
 15239 6ff2 4FEF      		ldi r20,lo8(-1)
 15240 6ff4 0E94 0000 		call lcd_graphics_plot_pixel
 15241               	.LM2037:
 15242 6ff8 81E6      		ldi r24,lo8(97)
 15243 6ffa 90E0      		ldi r25,hi8(97)
 15244 6ffc 6AE0      		ldi r22,lo8(10)
 15245 6ffe 70E0      		ldi r23,hi8(10)
 15246 7000 4FEF      		ldi r20,lo8(-1)
 15247 7002 0E94 0000 		call lcd_graphics_plot_pixel
 15248               	.LM2038:
 15249 7006 81E6      		ldi r24,lo8(97)
 15250 7008 90E0      		ldi r25,hi8(97)
 15251 700a 6BE0      		ldi r22,lo8(11)
 15252 700c 70E0      		ldi r23,hi8(11)
 15253 700e 4FEF      		ldi r20,lo8(-1)
 15254 7010 0E94 0000 		call lcd_graphics_plot_pixel
 15255               	.LM2039:
 15256 7014 81E6      		ldi r24,lo8(97)
 15257 7016 90E0      		ldi r25,hi8(97)
 15258 7018 6CE0      		ldi r22,lo8(12)
 15259 701a 70E0      		ldi r23,hi8(12)
 15260 701c 4FEF      		ldi r20,lo8(-1)
 15261 701e 0E94 0000 		call lcd_graphics_plot_pixel
 15262               	.LM2040:
 15263 7022 81E6      		ldi r24,lo8(97)
 15264 7024 90E0      		ldi r25,hi8(97)
 15265 7026 6DE0      		ldi r22,lo8(13)
 15266 7028 70E0      		ldi r23,hi8(13)
 15267 702a 4FEF      		ldi r20,lo8(-1)
 15268 702c 0E94 0000 		call lcd_graphics_plot_pixel
 15269               	.LM2041:
 15270 7030 81E6      		ldi r24,lo8(97)
 15271 7032 90E0      		ldi r25,hi8(97)
 15272 7034 6EE0      		ldi r22,lo8(14)
 15273 7036 70E0      		ldi r23,hi8(14)
 15274 7038 4FEF      		ldi r20,lo8(-1)
 15275 703a 0E94 0000 		call lcd_graphics_plot_pixel
 15276               	.LM2042:
 15277 703e 81E6      		ldi r24,lo8(97)
 15278 7040 90E0      		ldi r25,hi8(97)
 15279 7042 6FE0      		ldi r22,lo8(15)
 15280 7044 70E0      		ldi r23,hi8(15)
 15281 7046 4FEF      		ldi r20,lo8(-1)
 15282 7048 0E94 0000 		call lcd_graphics_plot_pixel
 15283               	.LM2043:
 15284 704c 81E6      		ldi r24,lo8(97)
 15285 704e 90E0      		ldi r25,hi8(97)
 15286 7050 60E1      		ldi r22,lo8(16)
 15287 7052 70E0      		ldi r23,hi8(16)
 15288 7054 4FEF      		ldi r20,lo8(-1)
 15289 7056 0E94 0000 		call lcd_graphics_plot_pixel
 15290               	.LM2044:
 15291 705a 81E6      		ldi r24,lo8(97)
 15292 705c 90E0      		ldi r25,hi8(97)
 15293 705e 61E1      		ldi r22,lo8(17)
 15294 7060 70E0      		ldi r23,hi8(17)
 15295 7062 4FEF      		ldi r20,lo8(-1)
 15296 7064 0E94 0000 		call lcd_graphics_plot_pixel
 15297               	.LM2045:
 15298 7068 81E6      		ldi r24,lo8(97)
 15299 706a 90E0      		ldi r25,hi8(97)
 15300 706c 62E1      		ldi r22,lo8(18)
 15301 706e 70E0      		ldi r23,hi8(18)
 15302 7070 4FEF      		ldi r20,lo8(-1)
 15303 7072 0E94 0000 		call lcd_graphics_plot_pixel
 15304               	.LM2046:
 15305 7076 81E6      		ldi r24,lo8(97)
 15306 7078 90E0      		ldi r25,hi8(97)
 15307 707a 63E1      		ldi r22,lo8(19)
 15308 707c 70E0      		ldi r23,hi8(19)
 15309 707e 4FEF      		ldi r20,lo8(-1)
 15310 7080 0E94 0000 		call lcd_graphics_plot_pixel
 15311               	.LM2047:
 15312 7084 81E6      		ldi r24,lo8(97)
 15313 7086 90E0      		ldi r25,hi8(97)
 15314 7088 64E1      		ldi r22,lo8(20)
 15315 708a 70E0      		ldi r23,hi8(20)
 15316 708c 4FEF      		ldi r20,lo8(-1)
 15317 708e 0E94 0000 		call lcd_graphics_plot_pixel
 15318               	.LM2048:
 15319 7092 81E6      		ldi r24,lo8(97)
 15320 7094 90E0      		ldi r25,hi8(97)
 15321 7096 65E1      		ldi r22,lo8(21)
 15322 7098 70E0      		ldi r23,hi8(21)
 15323 709a 4FEF      		ldi r20,lo8(-1)
 15324 709c 0E94 0000 		call lcd_graphics_plot_pixel
 15325               	.LM2049:
 15326 70a0 81E6      		ldi r24,lo8(97)
 15327 70a2 90E0      		ldi r25,hi8(97)
 15328 70a4 66E1      		ldi r22,lo8(22)
 15329 70a6 70E0      		ldi r23,hi8(22)
 15330 70a8 4FEF      		ldi r20,lo8(-1)
 15331 70aa 0E94 0000 		call lcd_graphics_plot_pixel
 15332               	.LM2050:
 15333 70ae 81E6      		ldi r24,lo8(97)
 15334 70b0 90E0      		ldi r25,hi8(97)
 15335 70b2 67E1      		ldi r22,lo8(23)
 15336 70b4 70E0      		ldi r23,hi8(23)
 15337 70b6 4FEF      		ldi r20,lo8(-1)
 15338 70b8 0E94 0000 		call lcd_graphics_plot_pixel
 15339               	.LM2051:
 15340 70bc 81E6      		ldi r24,lo8(97)
 15341 70be 90E0      		ldi r25,hi8(97)
 15342 70c0 68E1      		ldi r22,lo8(24)
 15343 70c2 70E0      		ldi r23,hi8(24)
 15344 70c4 4FEF      		ldi r20,lo8(-1)
 15345 70c6 0E94 0000 		call lcd_graphics_plot_pixel
 15346               	.LM2052:
 15347 70ca 81E6      		ldi r24,lo8(97)
 15348 70cc 90E0      		ldi r25,hi8(97)
 15349 70ce 69E1      		ldi r22,lo8(25)
 15350 70d0 70E0      		ldi r23,hi8(25)
 15351 70d2 4FEF      		ldi r20,lo8(-1)
 15352 70d4 0E94 0000 		call lcd_graphics_plot_pixel
 15353               	.LM2053:
 15354 70d8 81E6      		ldi r24,lo8(97)
 15355 70da 90E0      		ldi r25,hi8(97)
 15356 70dc 6AE1      		ldi r22,lo8(26)
 15357 70de 70E0      		ldi r23,hi8(26)
 15358 70e0 4FEF      		ldi r20,lo8(-1)
 15359 70e2 0E94 0000 		call lcd_graphics_plot_pixel
 15360               	.LM2054:
 15361 70e6 81E6      		ldi r24,lo8(97)
 15362 70e8 90E0      		ldi r25,hi8(97)
 15363 70ea 6BE1      		ldi r22,lo8(27)
 15364 70ec 70E0      		ldi r23,hi8(27)
 15365 70ee 4FEF      		ldi r20,lo8(-1)
 15366 70f0 0E94 0000 		call lcd_graphics_plot_pixel
 15367               	.LM2055:
 15368 70f4 81E6      		ldi r24,lo8(97)
 15369 70f6 90E0      		ldi r25,hi8(97)
 15370 70f8 6CE1      		ldi r22,lo8(28)
 15371 70fa 70E0      		ldi r23,hi8(28)
 15372 70fc 4FEF      		ldi r20,lo8(-1)
 15373 70fe 0E94 0000 		call lcd_graphics_plot_pixel
 15374               	.LM2056:
 15375 7102 81E6      		ldi r24,lo8(97)
 15376 7104 90E0      		ldi r25,hi8(97)
 15377 7106 6DE1      		ldi r22,lo8(29)
 15378 7108 70E0      		ldi r23,hi8(29)
 15379 710a 4FEF      		ldi r20,lo8(-1)
 15380 710c 0E94 0000 		call lcd_graphics_plot_pixel
 15381               	.LM2057:
 15382 7110 81E6      		ldi r24,lo8(97)
 15383 7112 90E0      		ldi r25,hi8(97)
 15384 7114 6EE1      		ldi r22,lo8(30)
 15385 7116 70E0      		ldi r23,hi8(30)
 15386 7118 4FEF      		ldi r20,lo8(-1)
 15387 711a 0E94 0000 		call lcd_graphics_plot_pixel
 15388               	.LM2058:
 15389 711e 81E6      		ldi r24,lo8(97)
 15390 7120 90E0      		ldi r25,hi8(97)
 15391 7122 6FE1      		ldi r22,lo8(31)
 15392 7124 70E0      		ldi r23,hi8(31)
 15393 7126 4FEF      		ldi r20,lo8(-1)
 15394 7128 0E94 0000 		call lcd_graphics_plot_pixel
 15395               	.LM2059:
 15396 712c 81E6      		ldi r24,lo8(97)
 15397 712e 90E0      		ldi r25,hi8(97)
 15398 7130 60E2      		ldi r22,lo8(32)
 15399 7132 70E0      		ldi r23,hi8(32)
 15400 7134 4FEF      		ldi r20,lo8(-1)
 15401 7136 0E94 0000 		call lcd_graphics_plot_pixel
 15402               	.LM2060:
 15403 713a 81E6      		ldi r24,lo8(97)
 15404 713c 90E0      		ldi r25,hi8(97)
 15405 713e 61E2      		ldi r22,lo8(33)
 15406 7140 70E0      		ldi r23,hi8(33)
 15407 7142 4FEF      		ldi r20,lo8(-1)
 15408 7144 0E94 0000 		call lcd_graphics_plot_pixel
 15409               	.LM2061:
 15410 7148 81E6      		ldi r24,lo8(97)
 15411 714a 90E0      		ldi r25,hi8(97)
 15412 714c 62E2      		ldi r22,lo8(34)
 15413 714e 70E0      		ldi r23,hi8(34)
 15414 7150 4FEF      		ldi r20,lo8(-1)
 15415 7152 0E94 0000 		call lcd_graphics_plot_pixel
 15416               	.LM2062:
 15417 7156 81E6      		ldi r24,lo8(97)
 15418 7158 90E0      		ldi r25,hi8(97)
 15419 715a 63E2      		ldi r22,lo8(35)
 15420 715c 70E0      		ldi r23,hi8(35)
 15421 715e 4FEF      		ldi r20,lo8(-1)
 15422 7160 0E94 0000 		call lcd_graphics_plot_pixel
 15423               	.LM2063:
 15424 7164 81E6      		ldi r24,lo8(97)
 15425 7166 90E0      		ldi r25,hi8(97)
 15426 7168 64E2      		ldi r22,lo8(36)
 15427 716a 70E0      		ldi r23,hi8(36)
 15428 716c 4FEF      		ldi r20,lo8(-1)
 15429 716e 0E94 0000 		call lcd_graphics_plot_pixel
 15430               	.LM2064:
 15431 7172 81E6      		ldi r24,lo8(97)
 15432 7174 90E0      		ldi r25,hi8(97)
 15433 7176 65E2      		ldi r22,lo8(37)
 15434 7178 70E0      		ldi r23,hi8(37)
 15435 717a 4FEF      		ldi r20,lo8(-1)
 15436 717c 0E94 0000 		call lcd_graphics_plot_pixel
 15437               	.LM2065:
 15438 7180 81E6      		ldi r24,lo8(97)
 15439 7182 90E0      		ldi r25,hi8(97)
 15440 7184 66E2      		ldi r22,lo8(38)
 15441 7186 70E0      		ldi r23,hi8(38)
 15442 7188 4FEF      		ldi r20,lo8(-1)
 15443 718a 0E94 0000 		call lcd_graphics_plot_pixel
 15444               	.LM2066:
 15445 718e 81E6      		ldi r24,lo8(97)
 15446 7190 90E0      		ldi r25,hi8(97)
 15447 7192 67E2      		ldi r22,lo8(39)
 15448 7194 70E0      		ldi r23,hi8(39)
 15449 7196 4FEF      		ldi r20,lo8(-1)
 15450 7198 0E94 0000 		call lcd_graphics_plot_pixel
 15451               	.LM2067:
 15452 719c 81E6      		ldi r24,lo8(97)
 15453 719e 90E0      		ldi r25,hi8(97)
 15454 71a0 68E2      		ldi r22,lo8(40)
 15455 71a2 70E0      		ldi r23,hi8(40)
 15456 71a4 4FEF      		ldi r20,lo8(-1)
 15457 71a6 0E94 0000 		call lcd_graphics_plot_pixel
 15458               	.LM2068:
 15459 71aa 81E6      		ldi r24,lo8(97)
 15460 71ac 90E0      		ldi r25,hi8(97)
 15461 71ae 69E2      		ldi r22,lo8(41)
 15462 71b0 70E0      		ldi r23,hi8(41)
 15463 71b2 4FEF      		ldi r20,lo8(-1)
 15464 71b4 0E94 0000 		call lcd_graphics_plot_pixel
 15465               	.LM2069:
 15466 71b8 81E6      		ldi r24,lo8(97)
 15467 71ba 90E0      		ldi r25,hi8(97)
 15468 71bc 6AE2      		ldi r22,lo8(42)
 15469 71be 70E0      		ldi r23,hi8(42)
 15470 71c0 4FEF      		ldi r20,lo8(-1)
 15471 71c2 0E94 0000 		call lcd_graphics_plot_pixel
 15472               	.LM2070:
 15473 71c6 81E6      		ldi r24,lo8(97)
 15474 71c8 90E0      		ldi r25,hi8(97)
 15475 71ca 6BE2      		ldi r22,lo8(43)
 15476 71cc 70E0      		ldi r23,hi8(43)
 15477 71ce 4FEF      		ldi r20,lo8(-1)
 15478 71d0 0E94 0000 		call lcd_graphics_plot_pixel
 15479               	.LM2071:
 15480 71d4 81E6      		ldi r24,lo8(97)
 15481 71d6 90E0      		ldi r25,hi8(97)
 15482 71d8 6CE2      		ldi r22,lo8(44)
 15483 71da 70E0      		ldi r23,hi8(44)
 15484 71dc 4FEF      		ldi r20,lo8(-1)
 15485 71de 0E94 0000 		call lcd_graphics_plot_pixel
 15486               	.LM2072:
 15487 71e2 81E6      		ldi r24,lo8(97)
 15488 71e4 90E0      		ldi r25,hi8(97)
 15489 71e6 6DE2      		ldi r22,lo8(45)
 15490 71e8 70E0      		ldi r23,hi8(45)
 15491 71ea 4FEF      		ldi r20,lo8(-1)
 15492 71ec 0E94 0000 		call lcd_graphics_plot_pixel
 15493               	.LM2073:
 15494 71f0 81E6      		ldi r24,lo8(97)
 15495 71f2 90E0      		ldi r25,hi8(97)
 15496 71f4 6EE2      		ldi r22,lo8(46)
 15497 71f6 70E0      		ldi r23,hi8(46)
 15498 71f8 4FEF      		ldi r20,lo8(-1)
 15499 71fa 0E94 0000 		call lcd_graphics_plot_pixel
 15500               	.LM2074:
 15501 71fe 81E6      		ldi r24,lo8(97)
 15502 7200 90E0      		ldi r25,hi8(97)
 15503 7202 6FE2      		ldi r22,lo8(47)
 15504 7204 70E0      		ldi r23,hi8(47)
 15505 7206 4FEF      		ldi r20,lo8(-1)
 15506 7208 0E94 0000 		call lcd_graphics_plot_pixel
 15507               	.LM2075:
 15508 720c 81E6      		ldi r24,lo8(97)
 15509 720e 90E0      		ldi r25,hi8(97)
 15510 7210 60E3      		ldi r22,lo8(48)
 15511 7212 70E0      		ldi r23,hi8(48)
 15512 7214 4FEF      		ldi r20,lo8(-1)
 15513 7216 0E94 0000 		call lcd_graphics_plot_pixel
 15514               	.LM2076:
 15515 721a 81E6      		ldi r24,lo8(97)
 15516 721c 90E0      		ldi r25,hi8(97)
 15517 721e 61E3      		ldi r22,lo8(49)
 15518 7220 70E0      		ldi r23,hi8(49)
 15519 7222 4FEF      		ldi r20,lo8(-1)
 15520 7224 0E94 0000 		call lcd_graphics_plot_pixel
 15521               	.LM2077:
 15522 7228 81E6      		ldi r24,lo8(97)
 15523 722a 90E0      		ldi r25,hi8(97)
 15524 722c 62E3      		ldi r22,lo8(50)
 15525 722e 70E0      		ldi r23,hi8(50)
 15526 7230 4FEF      		ldi r20,lo8(-1)
 15527 7232 0E94 0000 		call lcd_graphics_plot_pixel
 15528               	.LM2078:
 15529 7236 81E6      		ldi r24,lo8(97)
 15530 7238 90E0      		ldi r25,hi8(97)
 15531 723a 63E3      		ldi r22,lo8(51)
 15532 723c 70E0      		ldi r23,hi8(51)
 15533 723e 4FEF      		ldi r20,lo8(-1)
 15534 7240 0E94 0000 		call lcd_graphics_plot_pixel
 15535               	.LM2079:
 15536 7244 81E6      		ldi r24,lo8(97)
 15537 7246 90E0      		ldi r25,hi8(97)
 15538 7248 64E3      		ldi r22,lo8(52)
 15539 724a 70E0      		ldi r23,hi8(52)
 15540 724c 4FEF      		ldi r20,lo8(-1)
 15541 724e 0E94 0000 		call lcd_graphics_plot_pixel
 15542               	.LM2080:
 15543 7252 81E6      		ldi r24,lo8(97)
 15544 7254 90E0      		ldi r25,hi8(97)
 15545 7256 65E3      		ldi r22,lo8(53)
 15546 7258 70E0      		ldi r23,hi8(53)
 15547 725a 4FEF      		ldi r20,lo8(-1)
 15548 725c 0E94 0000 		call lcd_graphics_plot_pixel
 15549               	.LM2081:
 15550 7260 81E6      		ldi r24,lo8(97)
 15551 7262 90E0      		ldi r25,hi8(97)
 15552 7264 66E3      		ldi r22,lo8(54)
 15553 7266 70E0      		ldi r23,hi8(54)
 15554 7268 4FEF      		ldi r20,lo8(-1)
 15555 726a 0E94 0000 		call lcd_graphics_plot_pixel
 15556               	.LM2082:
 15557 726e 81E6      		ldi r24,lo8(97)
 15558 7270 90E0      		ldi r25,hi8(97)
 15559 7272 67E3      		ldi r22,lo8(55)
 15560 7274 70E0      		ldi r23,hi8(55)
 15561 7276 4FEF      		ldi r20,lo8(-1)
 15562 7278 0E94 0000 		call lcd_graphics_plot_pixel
 15563               	.LM2083:
 15564 727c 81E6      		ldi r24,lo8(97)
 15565 727e 90E0      		ldi r25,hi8(97)
 15566 7280 68E3      		ldi r22,lo8(56)
 15567 7282 70E0      		ldi r23,hi8(56)
 15568 7284 4FEF      		ldi r20,lo8(-1)
 15569 7286 0E94 0000 		call lcd_graphics_plot_pixel
 15570               	.LM2084:
 15571 728a 81E6      		ldi r24,lo8(97)
 15572 728c 90E0      		ldi r25,hi8(97)
 15573 728e 69E3      		ldi r22,lo8(57)
 15574 7290 70E0      		ldi r23,hi8(57)
 15575 7292 4FEF      		ldi r20,lo8(-1)
 15576 7294 0E94 0000 		call lcd_graphics_plot_pixel
 15577               	.LM2085:
 15578 7298 81E6      		ldi r24,lo8(97)
 15579 729a 90E0      		ldi r25,hi8(97)
 15580 729c 6AE3      		ldi r22,lo8(58)
 15581 729e 70E0      		ldi r23,hi8(58)
 15582 72a0 4FEF      		ldi r20,lo8(-1)
 15583 72a2 0E94 0000 		call lcd_graphics_plot_pixel
 15584               	.LM2086:
 15585 72a6 81E6      		ldi r24,lo8(97)
 15586 72a8 90E0      		ldi r25,hi8(97)
 15587 72aa 6BE3      		ldi r22,lo8(59)
 15588 72ac 70E0      		ldi r23,hi8(59)
 15589 72ae 4FEF      		ldi r20,lo8(-1)
 15590 72b0 0E94 0000 		call lcd_graphics_plot_pixel
 15591               	.LM2087:
 15592 72b4 81E6      		ldi r24,lo8(97)
 15593 72b6 90E0      		ldi r25,hi8(97)
 15594 72b8 6CE3      		ldi r22,lo8(60)
 15595 72ba 70E0      		ldi r23,hi8(60)
 15596 72bc 4FEF      		ldi r20,lo8(-1)
 15597 72be 0E94 0000 		call lcd_graphics_plot_pixel
 15598               	.LM2088:
 15599 72c2 81E6      		ldi r24,lo8(97)
 15600 72c4 90E0      		ldi r25,hi8(97)
 15601 72c6 6DE3      		ldi r22,lo8(61)
 15602 72c8 70E0      		ldi r23,hi8(61)
 15603 72ca 4FEF      		ldi r20,lo8(-1)
 15604 72cc 0E94 0000 		call lcd_graphics_plot_pixel
 15605               	.LM2089:
 15606 72d0 81E6      		ldi r24,lo8(97)
 15607 72d2 90E0      		ldi r25,hi8(97)
 15608 72d4 6EE3      		ldi r22,lo8(62)
 15609 72d6 70E0      		ldi r23,hi8(62)
 15610 72d8 4FEF      		ldi r20,lo8(-1)
 15611 72da 0E94 0000 		call lcd_graphics_plot_pixel
 15612               	.LM2090:
 15613 72de 81E6      		ldi r24,lo8(97)
 15614 72e0 90E0      		ldi r25,hi8(97)
 15615 72e2 6FE3      		ldi r22,lo8(63)
 15616 72e4 70E0      		ldi r23,hi8(63)
 15617 72e6 4FEF      		ldi r20,lo8(-1)
 15618 72e8 0E94 0000 		call lcd_graphics_plot_pixel
 15619               	.LM2091:
 15620 72ec 81E6      		ldi r24,lo8(97)
 15621 72ee 90E0      		ldi r25,hi8(97)
 15622 72f0 60E4      		ldi r22,lo8(64)
 15623 72f2 70E0      		ldi r23,hi8(64)
 15624 72f4 4FEF      		ldi r20,lo8(-1)
 15625 72f6 0E94 0000 		call lcd_graphics_plot_pixel
 15626               	.LM2092:
 15627 72fa 81E6      		ldi r24,lo8(97)
 15628 72fc 90E0      		ldi r25,hi8(97)
 15629 72fe 61E4      		ldi r22,lo8(65)
 15630 7300 70E0      		ldi r23,hi8(65)
 15631 7302 4FEF      		ldi r20,lo8(-1)
 15632 7304 0E94 0000 		call lcd_graphics_plot_pixel
 15633               	.LM2093:
 15634 7308 81E6      		ldi r24,lo8(97)
 15635 730a 90E0      		ldi r25,hi8(97)
 15636 730c 62E4      		ldi r22,lo8(66)
 15637 730e 70E0      		ldi r23,hi8(66)
 15638 7310 4FEF      		ldi r20,lo8(-1)
 15639 7312 0E94 0000 		call lcd_graphics_plot_pixel
 15640               	.LM2094:
 15641 7316 81E6      		ldi r24,lo8(97)
 15642 7318 90E0      		ldi r25,hi8(97)
 15643 731a 63E4      		ldi r22,lo8(67)
 15644 731c 70E0      		ldi r23,hi8(67)
 15645 731e 4FEF      		ldi r20,lo8(-1)
 15646 7320 0E94 0000 		call lcd_graphics_plot_pixel
 15647               	.LM2095:
 15648 7324 81E6      		ldi r24,lo8(97)
 15649 7326 90E0      		ldi r25,hi8(97)
 15650 7328 64E4      		ldi r22,lo8(68)
 15651 732a 70E0      		ldi r23,hi8(68)
 15652 732c 4FEF      		ldi r20,lo8(-1)
 15653 732e 0E94 0000 		call lcd_graphics_plot_pixel
 15654               	.LM2096:
 15655 7332 81E6      		ldi r24,lo8(97)
 15656 7334 90E0      		ldi r25,hi8(97)
 15657 7336 65E4      		ldi r22,lo8(69)
 15658 7338 70E0      		ldi r23,hi8(69)
 15659 733a 4FEF      		ldi r20,lo8(-1)
 15660 733c 0E94 0000 		call lcd_graphics_plot_pixel
 15661               	.LM2097:
 15662 7340 81E6      		ldi r24,lo8(97)
 15663 7342 90E0      		ldi r25,hi8(97)
 15664 7344 66E4      		ldi r22,lo8(70)
 15665 7346 70E0      		ldi r23,hi8(70)
 15666 7348 4FEF      		ldi r20,lo8(-1)
 15667 734a 0E94 0000 		call lcd_graphics_plot_pixel
 15668               	.LM2098:
 15669 734e 81E6      		ldi r24,lo8(97)
 15670 7350 90E0      		ldi r25,hi8(97)
 15671 7352 67E4      		ldi r22,lo8(71)
 15672 7354 70E0      		ldi r23,hi8(71)
 15673 7356 4FEF      		ldi r20,lo8(-1)
 15674 7358 0E94 0000 		call lcd_graphics_plot_pixel
 15675               	.LM2099:
 15676 735c 81E6      		ldi r24,lo8(97)
 15677 735e 90E0      		ldi r25,hi8(97)
 15678 7360 68E4      		ldi r22,lo8(72)
 15679 7362 70E0      		ldi r23,hi8(72)
 15680 7364 4FEF      		ldi r20,lo8(-1)
 15681 7366 0E94 0000 		call lcd_graphics_plot_pixel
 15682               	.LM2100:
 15683 736a 81E6      		ldi r24,lo8(97)
 15684 736c 90E0      		ldi r25,hi8(97)
 15685 736e 69E4      		ldi r22,lo8(73)
 15686 7370 70E0      		ldi r23,hi8(73)
 15687 7372 4FEF      		ldi r20,lo8(-1)
 15688 7374 0E94 0000 		call lcd_graphics_plot_pixel
 15689               	.LM2101:
 15690 7378 81E6      		ldi r24,lo8(97)
 15691 737a 90E0      		ldi r25,hi8(97)
 15692 737c 6AE4      		ldi r22,lo8(74)
 15693 737e 70E0      		ldi r23,hi8(74)
 15694 7380 4FEF      		ldi r20,lo8(-1)
 15695 7382 0E94 0000 		call lcd_graphics_plot_pixel
 15696               	.LM2102:
 15697 7386 81E6      		ldi r24,lo8(97)
 15698 7388 90E0      		ldi r25,hi8(97)
 15699 738a 6BE4      		ldi r22,lo8(75)
 15700 738c 70E0      		ldi r23,hi8(75)
 15701 738e 4FEF      		ldi r20,lo8(-1)
 15702 7390 0E94 0000 		call lcd_graphics_plot_pixel
 15703               	.LM2103:
 15704 7394 81E6      		ldi r24,lo8(97)
 15705 7396 90E0      		ldi r25,hi8(97)
 15706 7398 6CE4      		ldi r22,lo8(76)
 15707 739a 70E0      		ldi r23,hi8(76)
 15708 739c 4FEF      		ldi r20,lo8(-1)
 15709 739e 0E94 0000 		call lcd_graphics_plot_pixel
 15710               	.LM2104:
 15711 73a2 82E6      		ldi r24,lo8(98)
 15712 73a4 90E0      		ldi r25,hi8(98)
 15713 73a6 69E0      		ldi r22,lo8(9)
 15714 73a8 70E0      		ldi r23,hi8(9)
 15715 73aa 4FEF      		ldi r20,lo8(-1)
 15716 73ac 0E94 0000 		call lcd_graphics_plot_pixel
 15717               	.LM2105:
 15718 73b0 82E6      		ldi r24,lo8(98)
 15719 73b2 90E0      		ldi r25,hi8(98)
 15720 73b4 6AE0      		ldi r22,lo8(10)
 15721 73b6 70E0      		ldi r23,hi8(10)
 15722 73b8 4FEF      		ldi r20,lo8(-1)
 15723 73ba 0E94 0000 		call lcd_graphics_plot_pixel
 15724               	.LM2106:
 15725 73be 82E6      		ldi r24,lo8(98)
 15726 73c0 90E0      		ldi r25,hi8(98)
 15727 73c2 6BE0      		ldi r22,lo8(11)
 15728 73c4 70E0      		ldi r23,hi8(11)
 15729 73c6 4FEF      		ldi r20,lo8(-1)
 15730 73c8 0E94 0000 		call lcd_graphics_plot_pixel
 15731               	.LM2107:
 15732 73cc 82E6      		ldi r24,lo8(98)
 15733 73ce 90E0      		ldi r25,hi8(98)
 15734 73d0 6CE0      		ldi r22,lo8(12)
 15735 73d2 70E0      		ldi r23,hi8(12)
 15736 73d4 4FEF      		ldi r20,lo8(-1)
 15737 73d6 0E94 0000 		call lcd_graphics_plot_pixel
 15738               	.LM2108:
 15739 73da 82E6      		ldi r24,lo8(98)
 15740 73dc 90E0      		ldi r25,hi8(98)
 15741 73de 6DE0      		ldi r22,lo8(13)
 15742 73e0 70E0      		ldi r23,hi8(13)
 15743 73e2 4FEF      		ldi r20,lo8(-1)
 15744 73e4 0E94 0000 		call lcd_graphics_plot_pixel
 15745               	.LM2109:
 15746 73e8 82E6      		ldi r24,lo8(98)
 15747 73ea 90E0      		ldi r25,hi8(98)
 15748 73ec 6EE0      		ldi r22,lo8(14)
 15749 73ee 70E0      		ldi r23,hi8(14)
 15750 73f0 4FEF      		ldi r20,lo8(-1)
 15751 73f2 0E94 0000 		call lcd_graphics_plot_pixel
 15752               	.LM2110:
 15753 73f6 82E6      		ldi r24,lo8(98)
 15754 73f8 90E0      		ldi r25,hi8(98)
 15755 73fa 6FE0      		ldi r22,lo8(15)
 15756 73fc 70E0      		ldi r23,hi8(15)
 15757 73fe 4FEF      		ldi r20,lo8(-1)
 15758 7400 0E94 0000 		call lcd_graphics_plot_pixel
 15759               	.LM2111:
 15760 7404 82E6      		ldi r24,lo8(98)
 15761 7406 90E0      		ldi r25,hi8(98)
 15762 7408 60E1      		ldi r22,lo8(16)
 15763 740a 70E0      		ldi r23,hi8(16)
 15764 740c 4FEF      		ldi r20,lo8(-1)
 15765 740e 0E94 0000 		call lcd_graphics_plot_pixel
 15766               	.LM2112:
 15767 7412 82E6      		ldi r24,lo8(98)
 15768 7414 90E0      		ldi r25,hi8(98)
 15769 7416 61E1      		ldi r22,lo8(17)
 15770 7418 70E0      		ldi r23,hi8(17)
 15771 741a 4FEF      		ldi r20,lo8(-1)
 15772 741c 0E94 0000 		call lcd_graphics_plot_pixel
 15773               	.LM2113:
 15774 7420 82E6      		ldi r24,lo8(98)
 15775 7422 90E0      		ldi r25,hi8(98)
 15776 7424 62E1      		ldi r22,lo8(18)
 15777 7426 70E0      		ldi r23,hi8(18)
 15778 7428 4FEF      		ldi r20,lo8(-1)
 15779 742a 0E94 0000 		call lcd_graphics_plot_pixel
 15780               	.LM2114:
 15781 742e 82E6      		ldi r24,lo8(98)
 15782 7430 90E0      		ldi r25,hi8(98)
 15783 7432 63E1      		ldi r22,lo8(19)
 15784 7434 70E0      		ldi r23,hi8(19)
 15785 7436 4FEF      		ldi r20,lo8(-1)
 15786 7438 0E94 0000 		call lcd_graphics_plot_pixel
 15787               	.LM2115:
 15788 743c 82E6      		ldi r24,lo8(98)
 15789 743e 90E0      		ldi r25,hi8(98)
 15790 7440 64E1      		ldi r22,lo8(20)
 15791 7442 70E0      		ldi r23,hi8(20)
 15792 7444 4FEF      		ldi r20,lo8(-1)
 15793 7446 0E94 0000 		call lcd_graphics_plot_pixel
 15794               	.LM2116:
 15795 744a 82E6      		ldi r24,lo8(98)
 15796 744c 90E0      		ldi r25,hi8(98)
 15797 744e 65E1      		ldi r22,lo8(21)
 15798 7450 70E0      		ldi r23,hi8(21)
 15799 7452 4FEF      		ldi r20,lo8(-1)
 15800 7454 0E94 0000 		call lcd_graphics_plot_pixel
 15801               	.LM2117:
 15802 7458 82E6      		ldi r24,lo8(98)
 15803 745a 90E0      		ldi r25,hi8(98)
 15804 745c 66E1      		ldi r22,lo8(22)
 15805 745e 70E0      		ldi r23,hi8(22)
 15806 7460 4FEF      		ldi r20,lo8(-1)
 15807 7462 0E94 0000 		call lcd_graphics_plot_pixel
 15808               	.LM2118:
 15809 7466 82E6      		ldi r24,lo8(98)
 15810 7468 90E0      		ldi r25,hi8(98)
 15811 746a 67E1      		ldi r22,lo8(23)
 15812 746c 70E0      		ldi r23,hi8(23)
 15813 746e 4FEF      		ldi r20,lo8(-1)
 15814 7470 0E94 0000 		call lcd_graphics_plot_pixel
 15815               	.LM2119:
 15816 7474 82E6      		ldi r24,lo8(98)
 15817 7476 90E0      		ldi r25,hi8(98)
 15818 7478 68E1      		ldi r22,lo8(24)
 15819 747a 70E0      		ldi r23,hi8(24)
 15820 747c 4FEF      		ldi r20,lo8(-1)
 15821 747e 0E94 0000 		call lcd_graphics_plot_pixel
 15822               	.LM2120:
 15823 7482 82E6      		ldi r24,lo8(98)
 15824 7484 90E0      		ldi r25,hi8(98)
 15825 7486 69E1      		ldi r22,lo8(25)
 15826 7488 70E0      		ldi r23,hi8(25)
 15827 748a 4FEF      		ldi r20,lo8(-1)
 15828 748c 0E94 0000 		call lcd_graphics_plot_pixel
 15829               	.LM2121:
 15830 7490 82E6      		ldi r24,lo8(98)
 15831 7492 90E0      		ldi r25,hi8(98)
 15832 7494 6AE1      		ldi r22,lo8(26)
 15833 7496 70E0      		ldi r23,hi8(26)
 15834 7498 4FEF      		ldi r20,lo8(-1)
 15835 749a 0E94 0000 		call lcd_graphics_plot_pixel
 15836               	.LM2122:
 15837 749e 82E6      		ldi r24,lo8(98)
 15838 74a0 90E0      		ldi r25,hi8(98)
 15839 74a2 6BE1      		ldi r22,lo8(27)
 15840 74a4 70E0      		ldi r23,hi8(27)
 15841 74a6 4FEF      		ldi r20,lo8(-1)
 15842 74a8 0E94 0000 		call lcd_graphics_plot_pixel
 15843               	.LM2123:
 15844 74ac 82E6      		ldi r24,lo8(98)
 15845 74ae 90E0      		ldi r25,hi8(98)
 15846 74b0 6CE1      		ldi r22,lo8(28)
 15847 74b2 70E0      		ldi r23,hi8(28)
 15848 74b4 4FEF      		ldi r20,lo8(-1)
 15849 74b6 0E94 0000 		call lcd_graphics_plot_pixel
 15850               	.LM2124:
 15851 74ba 82E6      		ldi r24,lo8(98)
 15852 74bc 90E0      		ldi r25,hi8(98)
 15853 74be 6DE1      		ldi r22,lo8(29)
 15854 74c0 70E0      		ldi r23,hi8(29)
 15855 74c2 4FEF      		ldi r20,lo8(-1)
 15856 74c4 0E94 0000 		call lcd_graphics_plot_pixel
 15857               	.LM2125:
 15858 74c8 82E6      		ldi r24,lo8(98)
 15859 74ca 90E0      		ldi r25,hi8(98)
 15860 74cc 6EE1      		ldi r22,lo8(30)
 15861 74ce 70E0      		ldi r23,hi8(30)
 15862 74d0 4FEF      		ldi r20,lo8(-1)
 15863 74d2 0E94 0000 		call lcd_graphics_plot_pixel
 15864               	.LM2126:
 15865 74d6 82E6      		ldi r24,lo8(98)
 15866 74d8 90E0      		ldi r25,hi8(98)
 15867 74da 6FE1      		ldi r22,lo8(31)
 15868 74dc 70E0      		ldi r23,hi8(31)
 15869 74de 4FEF      		ldi r20,lo8(-1)
 15870 74e0 0E94 0000 		call lcd_graphics_plot_pixel
 15871               	.LM2127:
 15872 74e4 82E6      		ldi r24,lo8(98)
 15873 74e6 90E0      		ldi r25,hi8(98)
 15874 74e8 60E2      		ldi r22,lo8(32)
 15875 74ea 70E0      		ldi r23,hi8(32)
 15876 74ec 4FEF      		ldi r20,lo8(-1)
 15877 74ee 0E94 0000 		call lcd_graphics_plot_pixel
 15878               	.LM2128:
 15879 74f2 82E6      		ldi r24,lo8(98)
 15880 74f4 90E0      		ldi r25,hi8(98)
 15881 74f6 61E2      		ldi r22,lo8(33)
 15882 74f8 70E0      		ldi r23,hi8(33)
 15883 74fa 4FEF      		ldi r20,lo8(-1)
 15884 74fc 0E94 0000 		call lcd_graphics_plot_pixel
 15885               	.LM2129:
 15886 7500 82E6      		ldi r24,lo8(98)
 15887 7502 90E0      		ldi r25,hi8(98)
 15888 7504 62E2      		ldi r22,lo8(34)
 15889 7506 70E0      		ldi r23,hi8(34)
 15890 7508 4FEF      		ldi r20,lo8(-1)
 15891 750a 0E94 0000 		call lcd_graphics_plot_pixel
 15892               	.LM2130:
 15893 750e 82E6      		ldi r24,lo8(98)
 15894 7510 90E0      		ldi r25,hi8(98)
 15895 7512 63E2      		ldi r22,lo8(35)
 15896 7514 70E0      		ldi r23,hi8(35)
 15897 7516 4FEF      		ldi r20,lo8(-1)
 15898 7518 0E94 0000 		call lcd_graphics_plot_pixel
 15899               	.LM2131:
 15900 751c 82E6      		ldi r24,lo8(98)
 15901 751e 90E0      		ldi r25,hi8(98)
 15902 7520 64E2      		ldi r22,lo8(36)
 15903 7522 70E0      		ldi r23,hi8(36)
 15904 7524 4FEF      		ldi r20,lo8(-1)
 15905 7526 0E94 0000 		call lcd_graphics_plot_pixel
 15906               	.LM2132:
 15907 752a 82E6      		ldi r24,lo8(98)
 15908 752c 90E0      		ldi r25,hi8(98)
 15909 752e 65E2      		ldi r22,lo8(37)
 15910 7530 70E0      		ldi r23,hi8(37)
 15911 7532 4FEF      		ldi r20,lo8(-1)
 15912 7534 0E94 0000 		call lcd_graphics_plot_pixel
 15913               	.LM2133:
 15914 7538 82E6      		ldi r24,lo8(98)
 15915 753a 90E0      		ldi r25,hi8(98)
 15916 753c 66E2      		ldi r22,lo8(38)
 15917 753e 70E0      		ldi r23,hi8(38)
 15918 7540 4FEF      		ldi r20,lo8(-1)
 15919 7542 0E94 0000 		call lcd_graphics_plot_pixel
 15920               	.LM2134:
 15921 7546 82E6      		ldi r24,lo8(98)
 15922 7548 90E0      		ldi r25,hi8(98)
 15923 754a 67E2      		ldi r22,lo8(39)
 15924 754c 70E0      		ldi r23,hi8(39)
 15925 754e 4FEF      		ldi r20,lo8(-1)
 15926 7550 0E94 0000 		call lcd_graphics_plot_pixel
 15927               	.LM2135:
 15928 7554 82E6      		ldi r24,lo8(98)
 15929 7556 90E0      		ldi r25,hi8(98)
 15930 7558 68E2      		ldi r22,lo8(40)
 15931 755a 70E0      		ldi r23,hi8(40)
 15932 755c 4FEF      		ldi r20,lo8(-1)
 15933 755e 0E94 0000 		call lcd_graphics_plot_pixel
 15934               	.LM2136:
 15935 7562 82E6      		ldi r24,lo8(98)
 15936 7564 90E0      		ldi r25,hi8(98)
 15937 7566 69E2      		ldi r22,lo8(41)
 15938 7568 70E0      		ldi r23,hi8(41)
 15939 756a 4FEF      		ldi r20,lo8(-1)
 15940 756c 0E94 0000 		call lcd_graphics_plot_pixel
 15941               	.LM2137:
 15942 7570 82E6      		ldi r24,lo8(98)
 15943 7572 90E0      		ldi r25,hi8(98)
 15944 7574 6AE2      		ldi r22,lo8(42)
 15945 7576 70E0      		ldi r23,hi8(42)
 15946 7578 4FEF      		ldi r20,lo8(-1)
 15947 757a 0E94 0000 		call lcd_graphics_plot_pixel
 15948               	.LM2138:
 15949 757e 82E6      		ldi r24,lo8(98)
 15950 7580 90E0      		ldi r25,hi8(98)
 15951 7582 6BE2      		ldi r22,lo8(43)
 15952 7584 70E0      		ldi r23,hi8(43)
 15953 7586 4FEF      		ldi r20,lo8(-1)
 15954 7588 0E94 0000 		call lcd_graphics_plot_pixel
 15955               	.LM2139:
 15956 758c 82E6      		ldi r24,lo8(98)
 15957 758e 90E0      		ldi r25,hi8(98)
 15958 7590 6CE2      		ldi r22,lo8(44)
 15959 7592 70E0      		ldi r23,hi8(44)
 15960 7594 4FEF      		ldi r20,lo8(-1)
 15961 7596 0E94 0000 		call lcd_graphics_plot_pixel
 15962               	.LM2140:
 15963 759a 82E6      		ldi r24,lo8(98)
 15964 759c 90E0      		ldi r25,hi8(98)
 15965 759e 6DE2      		ldi r22,lo8(45)
 15966 75a0 70E0      		ldi r23,hi8(45)
 15967 75a2 4FEF      		ldi r20,lo8(-1)
 15968 75a4 0E94 0000 		call lcd_graphics_plot_pixel
 15969               	.LM2141:
 15970 75a8 82E6      		ldi r24,lo8(98)
 15971 75aa 90E0      		ldi r25,hi8(98)
 15972 75ac 6EE2      		ldi r22,lo8(46)
 15973 75ae 70E0      		ldi r23,hi8(46)
 15974 75b0 4FEF      		ldi r20,lo8(-1)
 15975 75b2 0E94 0000 		call lcd_graphics_plot_pixel
 15976               	.LM2142:
 15977 75b6 82E6      		ldi r24,lo8(98)
 15978 75b8 90E0      		ldi r25,hi8(98)
 15979 75ba 6FE2      		ldi r22,lo8(47)
 15980 75bc 70E0      		ldi r23,hi8(47)
 15981 75be 4FEF      		ldi r20,lo8(-1)
 15982 75c0 0E94 0000 		call lcd_graphics_plot_pixel
 15983               	.LM2143:
 15984 75c4 82E6      		ldi r24,lo8(98)
 15985 75c6 90E0      		ldi r25,hi8(98)
 15986 75c8 60E3      		ldi r22,lo8(48)
 15987 75ca 70E0      		ldi r23,hi8(48)
 15988 75cc 4FEF      		ldi r20,lo8(-1)
 15989 75ce 0E94 0000 		call lcd_graphics_plot_pixel
 15990               	.LM2144:
 15991 75d2 82E6      		ldi r24,lo8(98)
 15992 75d4 90E0      		ldi r25,hi8(98)
 15993 75d6 61E3      		ldi r22,lo8(49)
 15994 75d8 70E0      		ldi r23,hi8(49)
 15995 75da 4FEF      		ldi r20,lo8(-1)
 15996 75dc 0E94 0000 		call lcd_graphics_plot_pixel
 15997               	.LM2145:
 15998 75e0 82E6      		ldi r24,lo8(98)
 15999 75e2 90E0      		ldi r25,hi8(98)
 16000 75e4 62E3      		ldi r22,lo8(50)
 16001 75e6 70E0      		ldi r23,hi8(50)
 16002 75e8 4FEF      		ldi r20,lo8(-1)
 16003 75ea 0E94 0000 		call lcd_graphics_plot_pixel
 16004               	.LM2146:
 16005 75ee 82E6      		ldi r24,lo8(98)
 16006 75f0 90E0      		ldi r25,hi8(98)
 16007 75f2 63E3      		ldi r22,lo8(51)
 16008 75f4 70E0      		ldi r23,hi8(51)
 16009 75f6 4FEF      		ldi r20,lo8(-1)
 16010 75f8 0E94 0000 		call lcd_graphics_plot_pixel
 16011               	.LM2147:
 16012 75fc 82E6      		ldi r24,lo8(98)
 16013 75fe 90E0      		ldi r25,hi8(98)
 16014 7600 64E3      		ldi r22,lo8(52)
 16015 7602 70E0      		ldi r23,hi8(52)
 16016 7604 4FEF      		ldi r20,lo8(-1)
 16017 7606 0E94 0000 		call lcd_graphics_plot_pixel
 16018               	.LM2148:
 16019 760a 82E6      		ldi r24,lo8(98)
 16020 760c 90E0      		ldi r25,hi8(98)
 16021 760e 65E3      		ldi r22,lo8(53)
 16022 7610 70E0      		ldi r23,hi8(53)
 16023 7612 4FEF      		ldi r20,lo8(-1)
 16024 7614 0E94 0000 		call lcd_graphics_plot_pixel
 16025               	.LM2149:
 16026 7618 82E6      		ldi r24,lo8(98)
 16027 761a 90E0      		ldi r25,hi8(98)
 16028 761c 66E3      		ldi r22,lo8(54)
 16029 761e 70E0      		ldi r23,hi8(54)
 16030 7620 4FEF      		ldi r20,lo8(-1)
 16031 7622 0E94 0000 		call lcd_graphics_plot_pixel
 16032               	.LM2150:
 16033 7626 82E6      		ldi r24,lo8(98)
 16034 7628 90E0      		ldi r25,hi8(98)
 16035 762a 67E3      		ldi r22,lo8(55)
 16036 762c 70E0      		ldi r23,hi8(55)
 16037 762e 4FEF      		ldi r20,lo8(-1)
 16038 7630 0E94 0000 		call lcd_graphics_plot_pixel
 16039               	.LM2151:
 16040 7634 82E6      		ldi r24,lo8(98)
 16041 7636 90E0      		ldi r25,hi8(98)
 16042 7638 68E3      		ldi r22,lo8(56)
 16043 763a 70E0      		ldi r23,hi8(56)
 16044 763c 4FEF      		ldi r20,lo8(-1)
 16045 763e 0E94 0000 		call lcd_graphics_plot_pixel
 16046               	.LM2152:
 16047 7642 82E6      		ldi r24,lo8(98)
 16048 7644 90E0      		ldi r25,hi8(98)
 16049 7646 69E3      		ldi r22,lo8(57)
 16050 7648 70E0      		ldi r23,hi8(57)
 16051 764a 4FEF      		ldi r20,lo8(-1)
 16052 764c 0E94 0000 		call lcd_graphics_plot_pixel
 16053               	.LM2153:
 16054 7650 82E6      		ldi r24,lo8(98)
 16055 7652 90E0      		ldi r25,hi8(98)
 16056 7654 6AE3      		ldi r22,lo8(58)
 16057 7656 70E0      		ldi r23,hi8(58)
 16058 7658 4FEF      		ldi r20,lo8(-1)
 16059 765a 0E94 0000 		call lcd_graphics_plot_pixel
 16060               	.LM2154:
 16061 765e 82E6      		ldi r24,lo8(98)
 16062 7660 90E0      		ldi r25,hi8(98)
 16063 7662 6BE3      		ldi r22,lo8(59)
 16064 7664 70E0      		ldi r23,hi8(59)
 16065 7666 4FEF      		ldi r20,lo8(-1)
 16066 7668 0E94 0000 		call lcd_graphics_plot_pixel
 16067               	.LM2155:
 16068 766c 82E6      		ldi r24,lo8(98)
 16069 766e 90E0      		ldi r25,hi8(98)
 16070 7670 6CE3      		ldi r22,lo8(60)
 16071 7672 70E0      		ldi r23,hi8(60)
 16072 7674 4FEF      		ldi r20,lo8(-1)
 16073 7676 0E94 0000 		call lcd_graphics_plot_pixel
 16074               	.LM2156:
 16075 767a 82E6      		ldi r24,lo8(98)
 16076 767c 90E0      		ldi r25,hi8(98)
 16077 767e 6DE3      		ldi r22,lo8(61)
 16078 7680 70E0      		ldi r23,hi8(61)
 16079 7682 4FEF      		ldi r20,lo8(-1)
 16080 7684 0E94 0000 		call lcd_graphics_plot_pixel
 16081               	.LM2157:
 16082 7688 82E6      		ldi r24,lo8(98)
 16083 768a 90E0      		ldi r25,hi8(98)
 16084 768c 6EE3      		ldi r22,lo8(62)
 16085 768e 70E0      		ldi r23,hi8(62)
 16086 7690 4FEF      		ldi r20,lo8(-1)
 16087 7692 0E94 0000 		call lcd_graphics_plot_pixel
 16088               	.LM2158:
 16089 7696 82E6      		ldi r24,lo8(98)
 16090 7698 90E0      		ldi r25,hi8(98)
 16091 769a 6FE3      		ldi r22,lo8(63)
 16092 769c 70E0      		ldi r23,hi8(63)
 16093 769e 4FEF      		ldi r20,lo8(-1)
 16094 76a0 0E94 0000 		call lcd_graphics_plot_pixel
 16095               	.LM2159:
 16096 76a4 82E6      		ldi r24,lo8(98)
 16097 76a6 90E0      		ldi r25,hi8(98)
 16098 76a8 60E4      		ldi r22,lo8(64)
 16099 76aa 70E0      		ldi r23,hi8(64)
 16100 76ac 4FEF      		ldi r20,lo8(-1)
 16101 76ae 0E94 0000 		call lcd_graphics_plot_pixel
 16102               	.LM2160:
 16103 76b2 82E6      		ldi r24,lo8(98)
 16104 76b4 90E0      		ldi r25,hi8(98)
 16105 76b6 61E4      		ldi r22,lo8(65)
 16106 76b8 70E0      		ldi r23,hi8(65)
 16107 76ba 4FEF      		ldi r20,lo8(-1)
 16108 76bc 0E94 0000 		call lcd_graphics_plot_pixel
 16109               	.LM2161:
 16110 76c0 82E6      		ldi r24,lo8(98)
 16111 76c2 90E0      		ldi r25,hi8(98)
 16112 76c4 62E4      		ldi r22,lo8(66)
 16113 76c6 70E0      		ldi r23,hi8(66)
 16114 76c8 4FEF      		ldi r20,lo8(-1)
 16115 76ca 0E94 0000 		call lcd_graphics_plot_pixel
 16116               	.LM2162:
 16117 76ce 82E6      		ldi r24,lo8(98)
 16118 76d0 90E0      		ldi r25,hi8(98)
 16119 76d2 63E4      		ldi r22,lo8(67)
 16120 76d4 70E0      		ldi r23,hi8(67)
 16121 76d6 4FEF      		ldi r20,lo8(-1)
 16122 76d8 0E94 0000 		call lcd_graphics_plot_pixel
 16123               	.LM2163:
 16124 76dc 82E6      		ldi r24,lo8(98)
 16125 76de 90E0      		ldi r25,hi8(98)
 16126 76e0 64E4      		ldi r22,lo8(68)
 16127 76e2 70E0      		ldi r23,hi8(68)
 16128 76e4 4FEF      		ldi r20,lo8(-1)
 16129 76e6 0E94 0000 		call lcd_graphics_plot_pixel
 16130               	.LM2164:
 16131 76ea 82E6      		ldi r24,lo8(98)
 16132 76ec 90E0      		ldi r25,hi8(98)
 16133 76ee 65E4      		ldi r22,lo8(69)
 16134 76f0 70E0      		ldi r23,hi8(69)
 16135 76f2 4FEF      		ldi r20,lo8(-1)
 16136 76f4 0E94 0000 		call lcd_graphics_plot_pixel
 16137               	.LM2165:
 16138 76f8 82E6      		ldi r24,lo8(98)
 16139 76fa 90E0      		ldi r25,hi8(98)
 16140 76fc 66E4      		ldi r22,lo8(70)
 16141 76fe 70E0      		ldi r23,hi8(70)
 16142 7700 4FEF      		ldi r20,lo8(-1)
 16143 7702 0E94 0000 		call lcd_graphics_plot_pixel
 16144               	.LM2166:
 16145 7706 82E6      		ldi r24,lo8(98)
 16146 7708 90E0      		ldi r25,hi8(98)
 16147 770a 67E4      		ldi r22,lo8(71)
 16148 770c 70E0      		ldi r23,hi8(71)
 16149 770e 4FEF      		ldi r20,lo8(-1)
 16150 7710 0E94 0000 		call lcd_graphics_plot_pixel
 16151               	.LM2167:
 16152 7714 82E6      		ldi r24,lo8(98)
 16153 7716 90E0      		ldi r25,hi8(98)
 16154 7718 68E4      		ldi r22,lo8(72)
 16155 771a 70E0      		ldi r23,hi8(72)
 16156 771c 4FEF      		ldi r20,lo8(-1)
 16157 771e 0E94 0000 		call lcd_graphics_plot_pixel
 16158               	.LM2168:
 16159 7722 82E6      		ldi r24,lo8(98)
 16160 7724 90E0      		ldi r25,hi8(98)
 16161 7726 69E4      		ldi r22,lo8(73)
 16162 7728 70E0      		ldi r23,hi8(73)
 16163 772a 4FEF      		ldi r20,lo8(-1)
 16164 772c 0E94 0000 		call lcd_graphics_plot_pixel
 16165               	.LM2169:
 16166 7730 82E6      		ldi r24,lo8(98)
 16167 7732 90E0      		ldi r25,hi8(98)
 16168 7734 6AE4      		ldi r22,lo8(74)
 16169 7736 70E0      		ldi r23,hi8(74)
 16170 7738 4FEF      		ldi r20,lo8(-1)
 16171 773a 0E94 0000 		call lcd_graphics_plot_pixel
 16172               	.LM2170:
 16173 773e 82E6      		ldi r24,lo8(98)
 16174 7740 90E0      		ldi r25,hi8(98)
 16175 7742 6BE4      		ldi r22,lo8(75)
 16176 7744 70E0      		ldi r23,hi8(75)
 16177 7746 4FEF      		ldi r20,lo8(-1)
 16178 7748 0E94 0000 		call lcd_graphics_plot_pixel
 16179               	.LM2171:
 16180 774c 83E6      		ldi r24,lo8(99)
 16181 774e 90E0      		ldi r25,hi8(99)
 16182 7750 6AE0      		ldi r22,lo8(10)
 16183 7752 70E0      		ldi r23,hi8(10)
 16184 7754 4FEF      		ldi r20,lo8(-1)
 16185 7756 0E94 0000 		call lcd_graphics_plot_pixel
 16186               	.LM2172:
 16187 775a 83E6      		ldi r24,lo8(99)
 16188 775c 90E0      		ldi r25,hi8(99)
 16189 775e 6BE0      		ldi r22,lo8(11)
 16190 7760 70E0      		ldi r23,hi8(11)
 16191 7762 4FEF      		ldi r20,lo8(-1)
 16192 7764 0E94 0000 		call lcd_graphics_plot_pixel
 16193               	.LM2173:
 16194 7768 83E6      		ldi r24,lo8(99)
 16195 776a 90E0      		ldi r25,hi8(99)
 16196 776c 6CE0      		ldi r22,lo8(12)
 16197 776e 70E0      		ldi r23,hi8(12)
 16198 7770 4FEF      		ldi r20,lo8(-1)
 16199 7772 0E94 0000 		call lcd_graphics_plot_pixel
 16200               	.LM2174:
 16201 7776 83E6      		ldi r24,lo8(99)
 16202 7778 90E0      		ldi r25,hi8(99)
 16203 777a 6DE0      		ldi r22,lo8(13)
 16204 777c 70E0      		ldi r23,hi8(13)
 16205 777e 4FEF      		ldi r20,lo8(-1)
 16206 7780 0E94 0000 		call lcd_graphics_plot_pixel
 16207               	.LM2175:
 16208 7784 83E6      		ldi r24,lo8(99)
 16209 7786 90E0      		ldi r25,hi8(99)
 16210 7788 6EE0      		ldi r22,lo8(14)
 16211 778a 70E0      		ldi r23,hi8(14)
 16212 778c 4FEF      		ldi r20,lo8(-1)
 16213 778e 0E94 0000 		call lcd_graphics_plot_pixel
 16214               	.LM2176:
 16215 7792 83E6      		ldi r24,lo8(99)
 16216 7794 90E0      		ldi r25,hi8(99)
 16217 7796 6FE0      		ldi r22,lo8(15)
 16218 7798 70E0      		ldi r23,hi8(15)
 16219 779a 4FEF      		ldi r20,lo8(-1)
 16220 779c 0E94 0000 		call lcd_graphics_plot_pixel
 16221               	.LM2177:
 16222 77a0 83E6      		ldi r24,lo8(99)
 16223 77a2 90E0      		ldi r25,hi8(99)
 16224 77a4 60E1      		ldi r22,lo8(16)
 16225 77a6 70E0      		ldi r23,hi8(16)
 16226 77a8 4FEF      		ldi r20,lo8(-1)
 16227 77aa 0E94 0000 		call lcd_graphics_plot_pixel
 16228               	.LM2178:
 16229 77ae 83E6      		ldi r24,lo8(99)
 16230 77b0 90E0      		ldi r25,hi8(99)
 16231 77b2 61E1      		ldi r22,lo8(17)
 16232 77b4 70E0      		ldi r23,hi8(17)
 16233 77b6 4FEF      		ldi r20,lo8(-1)
 16234 77b8 0E94 0000 		call lcd_graphics_plot_pixel
 16235               	.LM2179:
 16236 77bc 83E6      		ldi r24,lo8(99)
 16237 77be 90E0      		ldi r25,hi8(99)
 16238 77c0 62E1      		ldi r22,lo8(18)
 16239 77c2 70E0      		ldi r23,hi8(18)
 16240 77c4 4FEF      		ldi r20,lo8(-1)
 16241 77c6 0E94 0000 		call lcd_graphics_plot_pixel
 16242               	.LM2180:
 16243 77ca 83E6      		ldi r24,lo8(99)
 16244 77cc 90E0      		ldi r25,hi8(99)
 16245 77ce 63E1      		ldi r22,lo8(19)
 16246 77d0 70E0      		ldi r23,hi8(19)
 16247 77d2 4FEF      		ldi r20,lo8(-1)
 16248 77d4 0E94 0000 		call lcd_graphics_plot_pixel
 16249               	.LM2181:
 16250 77d8 83E6      		ldi r24,lo8(99)
 16251 77da 90E0      		ldi r25,hi8(99)
 16252 77dc 64E1      		ldi r22,lo8(20)
 16253 77de 70E0      		ldi r23,hi8(20)
 16254 77e0 4FEF      		ldi r20,lo8(-1)
 16255 77e2 0E94 0000 		call lcd_graphics_plot_pixel
 16256               	.LM2182:
 16257 77e6 83E6      		ldi r24,lo8(99)
 16258 77e8 90E0      		ldi r25,hi8(99)
 16259 77ea 65E1      		ldi r22,lo8(21)
 16260 77ec 70E0      		ldi r23,hi8(21)
 16261 77ee 4FEF      		ldi r20,lo8(-1)
 16262 77f0 0E94 0000 		call lcd_graphics_plot_pixel
 16263               	.LM2183:
 16264 77f4 83E6      		ldi r24,lo8(99)
 16265 77f6 90E0      		ldi r25,hi8(99)
 16266 77f8 66E1      		ldi r22,lo8(22)
 16267 77fa 70E0      		ldi r23,hi8(22)
 16268 77fc 4FEF      		ldi r20,lo8(-1)
 16269 77fe 0E94 0000 		call lcd_graphics_plot_pixel
 16270               	.LM2184:
 16271 7802 83E6      		ldi r24,lo8(99)
 16272 7804 90E0      		ldi r25,hi8(99)
 16273 7806 67E1      		ldi r22,lo8(23)
 16274 7808 70E0      		ldi r23,hi8(23)
 16275 780a 4FEF      		ldi r20,lo8(-1)
 16276 780c 0E94 0000 		call lcd_graphics_plot_pixel
 16277               	.LM2185:
 16278 7810 83E6      		ldi r24,lo8(99)
 16279 7812 90E0      		ldi r25,hi8(99)
 16280 7814 68E1      		ldi r22,lo8(24)
 16281 7816 70E0      		ldi r23,hi8(24)
 16282 7818 4FEF      		ldi r20,lo8(-1)
 16283 781a 0E94 0000 		call lcd_graphics_plot_pixel
 16284               	.LM2186:
 16285 781e 83E6      		ldi r24,lo8(99)
 16286 7820 90E0      		ldi r25,hi8(99)
 16287 7822 69E1      		ldi r22,lo8(25)
 16288 7824 70E0      		ldi r23,hi8(25)
 16289 7826 4FEF      		ldi r20,lo8(-1)
 16290 7828 0E94 0000 		call lcd_graphics_plot_pixel
 16291               	.LM2187:
 16292 782c 83E6      		ldi r24,lo8(99)
 16293 782e 90E0      		ldi r25,hi8(99)
 16294 7830 6AE1      		ldi r22,lo8(26)
 16295 7832 70E0      		ldi r23,hi8(26)
 16296 7834 4FEF      		ldi r20,lo8(-1)
 16297 7836 0E94 0000 		call lcd_graphics_plot_pixel
 16298               	.LM2188:
 16299 783a 83E6      		ldi r24,lo8(99)
 16300 783c 90E0      		ldi r25,hi8(99)
 16301 783e 6BE1      		ldi r22,lo8(27)
 16302 7840 70E0      		ldi r23,hi8(27)
 16303 7842 4FEF      		ldi r20,lo8(-1)
 16304 7844 0E94 0000 		call lcd_graphics_plot_pixel
 16305               	.LM2189:
 16306 7848 83E6      		ldi r24,lo8(99)
 16307 784a 90E0      		ldi r25,hi8(99)
 16308 784c 6CE1      		ldi r22,lo8(28)
 16309 784e 70E0      		ldi r23,hi8(28)
 16310 7850 4FEF      		ldi r20,lo8(-1)
 16311 7852 0E94 0000 		call lcd_graphics_plot_pixel
 16312               	.LM2190:
 16313 7856 83E6      		ldi r24,lo8(99)
 16314 7858 90E0      		ldi r25,hi8(99)
 16315 785a 6DE1      		ldi r22,lo8(29)
 16316 785c 70E0      		ldi r23,hi8(29)
 16317 785e 4FEF      		ldi r20,lo8(-1)
 16318 7860 0E94 0000 		call lcd_graphics_plot_pixel
 16319               	.LM2191:
 16320 7864 83E6      		ldi r24,lo8(99)
 16321 7866 90E0      		ldi r25,hi8(99)
 16322 7868 6EE1      		ldi r22,lo8(30)
 16323 786a 70E0      		ldi r23,hi8(30)
 16324 786c 4FEF      		ldi r20,lo8(-1)
 16325 786e 0E94 0000 		call lcd_graphics_plot_pixel
 16326               	.LM2192:
 16327 7872 83E6      		ldi r24,lo8(99)
 16328 7874 90E0      		ldi r25,hi8(99)
 16329 7876 6FE1      		ldi r22,lo8(31)
 16330 7878 70E0      		ldi r23,hi8(31)
 16331 787a 4FEF      		ldi r20,lo8(-1)
 16332 787c 0E94 0000 		call lcd_graphics_plot_pixel
 16333               	.LM2193:
 16334 7880 83E6      		ldi r24,lo8(99)
 16335 7882 90E0      		ldi r25,hi8(99)
 16336 7884 60E2      		ldi r22,lo8(32)
 16337 7886 70E0      		ldi r23,hi8(32)
 16338 7888 4FEF      		ldi r20,lo8(-1)
 16339 788a 0E94 0000 		call lcd_graphics_plot_pixel
 16340               	.LM2194:
 16341 788e 83E6      		ldi r24,lo8(99)
 16342 7890 90E0      		ldi r25,hi8(99)
 16343 7892 61E2      		ldi r22,lo8(33)
 16344 7894 70E0      		ldi r23,hi8(33)
 16345 7896 4FEF      		ldi r20,lo8(-1)
 16346 7898 0E94 0000 		call lcd_graphics_plot_pixel
 16347               	.LM2195:
 16348 789c 83E6      		ldi r24,lo8(99)
 16349 789e 90E0      		ldi r25,hi8(99)
 16350 78a0 62E2      		ldi r22,lo8(34)
 16351 78a2 70E0      		ldi r23,hi8(34)
 16352 78a4 4FEF      		ldi r20,lo8(-1)
 16353 78a6 0E94 0000 		call lcd_graphics_plot_pixel
 16354               	.LM2196:
 16355 78aa 83E6      		ldi r24,lo8(99)
 16356 78ac 90E0      		ldi r25,hi8(99)
 16357 78ae 63E2      		ldi r22,lo8(35)
 16358 78b0 70E0      		ldi r23,hi8(35)
 16359 78b2 4FEF      		ldi r20,lo8(-1)
 16360 78b4 0E94 0000 		call lcd_graphics_plot_pixel
 16361               	.LM2197:
 16362 78b8 83E6      		ldi r24,lo8(99)
 16363 78ba 90E0      		ldi r25,hi8(99)
 16364 78bc 64E2      		ldi r22,lo8(36)
 16365 78be 70E0      		ldi r23,hi8(36)
 16366 78c0 4FEF      		ldi r20,lo8(-1)
 16367 78c2 0E94 0000 		call lcd_graphics_plot_pixel
 16368               	.LM2198:
 16369 78c6 83E6      		ldi r24,lo8(99)
 16370 78c8 90E0      		ldi r25,hi8(99)
 16371 78ca 65E2      		ldi r22,lo8(37)
 16372 78cc 70E0      		ldi r23,hi8(37)
 16373 78ce 4FEF      		ldi r20,lo8(-1)
 16374 78d0 0E94 0000 		call lcd_graphics_plot_pixel
 16375               	.LM2199:
 16376 78d4 83E6      		ldi r24,lo8(99)
 16377 78d6 90E0      		ldi r25,hi8(99)
 16378 78d8 66E2      		ldi r22,lo8(38)
 16379 78da 70E0      		ldi r23,hi8(38)
 16380 78dc 4FEF      		ldi r20,lo8(-1)
 16381 78de 0E94 0000 		call lcd_graphics_plot_pixel
 16382               	.LM2200:
 16383 78e2 83E6      		ldi r24,lo8(99)
 16384 78e4 90E0      		ldi r25,hi8(99)
 16385 78e6 67E2      		ldi r22,lo8(39)
 16386 78e8 70E0      		ldi r23,hi8(39)
 16387 78ea 4FEF      		ldi r20,lo8(-1)
 16388 78ec 0E94 0000 		call lcd_graphics_plot_pixel
 16389               	.LM2201:
 16390 78f0 83E6      		ldi r24,lo8(99)
 16391 78f2 90E0      		ldi r25,hi8(99)
 16392 78f4 68E2      		ldi r22,lo8(40)
 16393 78f6 70E0      		ldi r23,hi8(40)
 16394 78f8 4FEF      		ldi r20,lo8(-1)
 16395 78fa 0E94 0000 		call lcd_graphics_plot_pixel
 16396               	.LM2202:
 16397 78fe 83E6      		ldi r24,lo8(99)
 16398 7900 90E0      		ldi r25,hi8(99)
 16399 7902 69E2      		ldi r22,lo8(41)
 16400 7904 70E0      		ldi r23,hi8(41)
 16401 7906 4FEF      		ldi r20,lo8(-1)
 16402 7908 0E94 0000 		call lcd_graphics_plot_pixel
 16403               	.LM2203:
 16404 790c 83E6      		ldi r24,lo8(99)
 16405 790e 90E0      		ldi r25,hi8(99)
 16406 7910 6AE2      		ldi r22,lo8(42)
 16407 7912 70E0      		ldi r23,hi8(42)
 16408 7914 4FEF      		ldi r20,lo8(-1)
 16409 7916 0E94 0000 		call lcd_graphics_plot_pixel
 16410               	.LM2204:
 16411 791a 83E6      		ldi r24,lo8(99)
 16412 791c 90E0      		ldi r25,hi8(99)
 16413 791e 6BE2      		ldi r22,lo8(43)
 16414 7920 70E0      		ldi r23,hi8(43)
 16415 7922 4FEF      		ldi r20,lo8(-1)
 16416 7924 0E94 0000 		call lcd_graphics_plot_pixel
 16417               	.LM2205:
 16418 7928 83E6      		ldi r24,lo8(99)
 16419 792a 90E0      		ldi r25,hi8(99)
 16420 792c 6CE2      		ldi r22,lo8(44)
 16421 792e 70E0      		ldi r23,hi8(44)
 16422 7930 4FEF      		ldi r20,lo8(-1)
 16423 7932 0E94 0000 		call lcd_graphics_plot_pixel
 16424               	.LM2206:
 16425 7936 83E6      		ldi r24,lo8(99)
 16426 7938 90E0      		ldi r25,hi8(99)
 16427 793a 6DE2      		ldi r22,lo8(45)
 16428 793c 70E0      		ldi r23,hi8(45)
 16429 793e 4FEF      		ldi r20,lo8(-1)
 16430 7940 0E94 0000 		call lcd_graphics_plot_pixel
 16431               	.LM2207:
 16432 7944 83E6      		ldi r24,lo8(99)
 16433 7946 90E0      		ldi r25,hi8(99)
 16434 7948 6EE2      		ldi r22,lo8(46)
 16435 794a 70E0      		ldi r23,hi8(46)
 16436 794c 4FEF      		ldi r20,lo8(-1)
 16437 794e 0E94 0000 		call lcd_graphics_plot_pixel
 16438               	.LM2208:
 16439 7952 83E6      		ldi r24,lo8(99)
 16440 7954 90E0      		ldi r25,hi8(99)
 16441 7956 6FE2      		ldi r22,lo8(47)
 16442 7958 70E0      		ldi r23,hi8(47)
 16443 795a 4FEF      		ldi r20,lo8(-1)
 16444 795c 0E94 0000 		call lcd_graphics_plot_pixel
 16445               	.LM2209:
 16446 7960 83E6      		ldi r24,lo8(99)
 16447 7962 90E0      		ldi r25,hi8(99)
 16448 7964 60E3      		ldi r22,lo8(48)
 16449 7966 70E0      		ldi r23,hi8(48)
 16450 7968 4FEF      		ldi r20,lo8(-1)
 16451 796a 0E94 0000 		call lcd_graphics_plot_pixel
 16452               	.LM2210:
 16453 796e 83E6      		ldi r24,lo8(99)
 16454 7970 90E0      		ldi r25,hi8(99)
 16455 7972 61E3      		ldi r22,lo8(49)
 16456 7974 70E0      		ldi r23,hi8(49)
 16457 7976 4FEF      		ldi r20,lo8(-1)
 16458 7978 0E94 0000 		call lcd_graphics_plot_pixel
 16459               	.LM2211:
 16460 797c 83E6      		ldi r24,lo8(99)
 16461 797e 90E0      		ldi r25,hi8(99)
 16462 7980 62E3      		ldi r22,lo8(50)
 16463 7982 70E0      		ldi r23,hi8(50)
 16464 7984 4FEF      		ldi r20,lo8(-1)
 16465 7986 0E94 0000 		call lcd_graphics_plot_pixel
 16466               	.LM2212:
 16467 798a 83E6      		ldi r24,lo8(99)
 16468 798c 90E0      		ldi r25,hi8(99)
 16469 798e 63E3      		ldi r22,lo8(51)
 16470 7990 70E0      		ldi r23,hi8(51)
 16471 7992 4FEF      		ldi r20,lo8(-1)
 16472 7994 0E94 0000 		call lcd_graphics_plot_pixel
 16473               	.LM2213:
 16474 7998 83E6      		ldi r24,lo8(99)
 16475 799a 90E0      		ldi r25,hi8(99)
 16476 799c 64E3      		ldi r22,lo8(52)
 16477 799e 70E0      		ldi r23,hi8(52)
 16478 79a0 4FEF      		ldi r20,lo8(-1)
 16479 79a2 0E94 0000 		call lcd_graphics_plot_pixel
 16480               	.LM2214:
 16481 79a6 83E6      		ldi r24,lo8(99)
 16482 79a8 90E0      		ldi r25,hi8(99)
 16483 79aa 65E3      		ldi r22,lo8(53)
 16484 79ac 70E0      		ldi r23,hi8(53)
 16485 79ae 4FEF      		ldi r20,lo8(-1)
 16486 79b0 0E94 0000 		call lcd_graphics_plot_pixel
 16487               	.LM2215:
 16488 79b4 83E6      		ldi r24,lo8(99)
 16489 79b6 90E0      		ldi r25,hi8(99)
 16490 79b8 66E3      		ldi r22,lo8(54)
 16491 79ba 70E0      		ldi r23,hi8(54)
 16492 79bc 4FEF      		ldi r20,lo8(-1)
 16493 79be 0E94 0000 		call lcd_graphics_plot_pixel
 16494               	.LM2216:
 16495 79c2 83E6      		ldi r24,lo8(99)
 16496 79c4 90E0      		ldi r25,hi8(99)
 16497 79c6 67E3      		ldi r22,lo8(55)
 16498 79c8 70E0      		ldi r23,hi8(55)
 16499 79ca 4FEF      		ldi r20,lo8(-1)
 16500 79cc 0E94 0000 		call lcd_graphics_plot_pixel
 16501               	.LM2217:
 16502 79d0 83E6      		ldi r24,lo8(99)
 16503 79d2 90E0      		ldi r25,hi8(99)
 16504 79d4 68E3      		ldi r22,lo8(56)
 16505 79d6 70E0      		ldi r23,hi8(56)
 16506 79d8 4FEF      		ldi r20,lo8(-1)
 16507 79da 0E94 0000 		call lcd_graphics_plot_pixel
 16508               	.LM2218:
 16509 79de 83E6      		ldi r24,lo8(99)
 16510 79e0 90E0      		ldi r25,hi8(99)
 16511 79e2 69E3      		ldi r22,lo8(57)
 16512 79e4 70E0      		ldi r23,hi8(57)
 16513 79e6 4FEF      		ldi r20,lo8(-1)
 16514 79e8 0E94 0000 		call lcd_graphics_plot_pixel
 16515               	.LM2219:
 16516 79ec 83E6      		ldi r24,lo8(99)
 16517 79ee 90E0      		ldi r25,hi8(99)
 16518 79f0 6AE3      		ldi r22,lo8(58)
 16519 79f2 70E0      		ldi r23,hi8(58)
 16520 79f4 4FEF      		ldi r20,lo8(-1)
 16521 79f6 0E94 0000 		call lcd_graphics_plot_pixel
 16522               	.LM2220:
 16523 79fa 83E6      		ldi r24,lo8(99)
 16524 79fc 90E0      		ldi r25,hi8(99)
 16525 79fe 6BE3      		ldi r22,lo8(59)
 16526 7a00 70E0      		ldi r23,hi8(59)
 16527 7a02 4FEF      		ldi r20,lo8(-1)
 16528 7a04 0E94 0000 		call lcd_graphics_plot_pixel
 16529               	.LM2221:
 16530 7a08 83E6      		ldi r24,lo8(99)
 16531 7a0a 90E0      		ldi r25,hi8(99)
 16532 7a0c 6CE3      		ldi r22,lo8(60)
 16533 7a0e 70E0      		ldi r23,hi8(60)
 16534 7a10 4FEF      		ldi r20,lo8(-1)
 16535 7a12 0E94 0000 		call lcd_graphics_plot_pixel
 16536               	.LM2222:
 16537 7a16 83E6      		ldi r24,lo8(99)
 16538 7a18 90E0      		ldi r25,hi8(99)
 16539 7a1a 6DE3      		ldi r22,lo8(61)
 16540 7a1c 70E0      		ldi r23,hi8(61)
 16541 7a1e 4FEF      		ldi r20,lo8(-1)
 16542 7a20 0E94 0000 		call lcd_graphics_plot_pixel
 16543               	.LM2223:
 16544 7a24 83E6      		ldi r24,lo8(99)
 16545 7a26 90E0      		ldi r25,hi8(99)
 16546 7a28 6EE3      		ldi r22,lo8(62)
 16547 7a2a 70E0      		ldi r23,hi8(62)
 16548 7a2c 4FEF      		ldi r20,lo8(-1)
 16549 7a2e 0E94 0000 		call lcd_graphics_plot_pixel
 16550               	.LM2224:
 16551 7a32 83E6      		ldi r24,lo8(99)
 16552 7a34 90E0      		ldi r25,hi8(99)
 16553 7a36 6FE3      		ldi r22,lo8(63)
 16554 7a38 70E0      		ldi r23,hi8(63)
 16555 7a3a 4FEF      		ldi r20,lo8(-1)
 16556 7a3c 0E94 0000 		call lcd_graphics_plot_pixel
 16557               	.LM2225:
 16558 7a40 83E6      		ldi r24,lo8(99)
 16559 7a42 90E0      		ldi r25,hi8(99)
 16560 7a44 60E4      		ldi r22,lo8(64)
 16561 7a46 70E0      		ldi r23,hi8(64)
 16562 7a48 4FEF      		ldi r20,lo8(-1)
 16563 7a4a 0E94 0000 		call lcd_graphics_plot_pixel
 16564               	.LM2226:
 16565 7a4e 83E6      		ldi r24,lo8(99)
 16566 7a50 90E0      		ldi r25,hi8(99)
 16567 7a52 61E4      		ldi r22,lo8(65)
 16568 7a54 70E0      		ldi r23,hi8(65)
 16569 7a56 4FEF      		ldi r20,lo8(-1)
 16570 7a58 0E94 0000 		call lcd_graphics_plot_pixel
 16571               	.LM2227:
 16572 7a5c 83E6      		ldi r24,lo8(99)
 16573 7a5e 90E0      		ldi r25,hi8(99)
 16574 7a60 62E4      		ldi r22,lo8(66)
 16575 7a62 70E0      		ldi r23,hi8(66)
 16576 7a64 4FEF      		ldi r20,lo8(-1)
 16577 7a66 0E94 0000 		call lcd_graphics_plot_pixel
 16578               	.LM2228:
 16579 7a6a 83E6      		ldi r24,lo8(99)
 16580 7a6c 90E0      		ldi r25,hi8(99)
 16581 7a6e 63E4      		ldi r22,lo8(67)
 16582 7a70 70E0      		ldi r23,hi8(67)
 16583 7a72 4FEF      		ldi r20,lo8(-1)
 16584 7a74 0E94 0000 		call lcd_graphics_plot_pixel
 16585               	.LM2229:
 16586 7a78 83E6      		ldi r24,lo8(99)
 16587 7a7a 90E0      		ldi r25,hi8(99)
 16588 7a7c 64E4      		ldi r22,lo8(68)
 16589 7a7e 70E0      		ldi r23,hi8(68)
 16590 7a80 4FEF      		ldi r20,lo8(-1)
 16591 7a82 0E94 0000 		call lcd_graphics_plot_pixel
 16592               	.LM2230:
 16593 7a86 83E6      		ldi r24,lo8(99)
 16594 7a88 90E0      		ldi r25,hi8(99)
 16595 7a8a 65E4      		ldi r22,lo8(69)
 16596 7a8c 70E0      		ldi r23,hi8(69)
 16597 7a8e 4FEF      		ldi r20,lo8(-1)
 16598 7a90 0E94 0000 		call lcd_graphics_plot_pixel
 16599               	.LM2231:
 16600 7a94 83E6      		ldi r24,lo8(99)
 16601 7a96 90E0      		ldi r25,hi8(99)
 16602 7a98 66E4      		ldi r22,lo8(70)
 16603 7a9a 70E0      		ldi r23,hi8(70)
 16604 7a9c 4FEF      		ldi r20,lo8(-1)
 16605 7a9e 0E94 0000 		call lcd_graphics_plot_pixel
 16606               	.LM2232:
 16607 7aa2 83E6      		ldi r24,lo8(99)
 16608 7aa4 90E0      		ldi r25,hi8(99)
 16609 7aa6 67E4      		ldi r22,lo8(71)
 16610 7aa8 70E0      		ldi r23,hi8(71)
 16611 7aaa 4FEF      		ldi r20,lo8(-1)
 16612 7aac 0E94 0000 		call lcd_graphics_plot_pixel
 16613               	.LM2233:
 16614 7ab0 83E6      		ldi r24,lo8(99)
 16615 7ab2 90E0      		ldi r25,hi8(99)
 16616 7ab4 68E4      		ldi r22,lo8(72)
 16617 7ab6 70E0      		ldi r23,hi8(72)
 16618 7ab8 4FEF      		ldi r20,lo8(-1)
 16619 7aba 0E94 0000 		call lcd_graphics_plot_pixel
 16620               	.LM2234:
 16621 7abe 83E6      		ldi r24,lo8(99)
 16622 7ac0 90E0      		ldi r25,hi8(99)
 16623 7ac2 69E4      		ldi r22,lo8(73)
 16624 7ac4 70E0      		ldi r23,hi8(73)
 16625 7ac6 4FEF      		ldi r20,lo8(-1)
 16626 7ac8 0E94 0000 		call lcd_graphics_plot_pixel
 16627               	.LM2235:
 16628 7acc 83E6      		ldi r24,lo8(99)
 16629 7ace 90E0      		ldi r25,hi8(99)
 16630 7ad0 6AE4      		ldi r22,lo8(74)
 16631 7ad2 70E0      		ldi r23,hi8(74)
 16632 7ad4 4FEF      		ldi r20,lo8(-1)
 16633 7ad6 0E94 0000 		call lcd_graphics_plot_pixel
 16634               	.LM2236:
 16635 7ada 84E6      		ldi r24,lo8(100)
 16636 7adc 90E0      		ldi r25,hi8(100)
 16637 7ade 6BE0      		ldi r22,lo8(11)
 16638 7ae0 70E0      		ldi r23,hi8(11)
 16639 7ae2 4FEF      		ldi r20,lo8(-1)
 16640 7ae4 0E94 0000 		call lcd_graphics_plot_pixel
 16641               	.LM2237:
 16642 7ae8 84E6      		ldi r24,lo8(100)
 16643 7aea 90E0      		ldi r25,hi8(100)
 16644 7aec 6CE0      		ldi r22,lo8(12)
 16645 7aee 70E0      		ldi r23,hi8(12)
 16646 7af0 4FEF      		ldi r20,lo8(-1)
 16647 7af2 0E94 0000 		call lcd_graphics_plot_pixel
 16648               	.LM2238:
 16649 7af6 84E6      		ldi r24,lo8(100)
 16650 7af8 90E0      		ldi r25,hi8(100)
 16651 7afa 6DE0      		ldi r22,lo8(13)
 16652 7afc 70E0      		ldi r23,hi8(13)
 16653 7afe 4FEF      		ldi r20,lo8(-1)
 16654 7b00 0E94 0000 		call lcd_graphics_plot_pixel
 16655               	.LM2239:
 16656 7b04 84E6      		ldi r24,lo8(100)
 16657 7b06 90E0      		ldi r25,hi8(100)
 16658 7b08 6EE0      		ldi r22,lo8(14)
 16659 7b0a 70E0      		ldi r23,hi8(14)
 16660 7b0c 4FEF      		ldi r20,lo8(-1)
 16661 7b0e 0E94 0000 		call lcd_graphics_plot_pixel
 16662               	.LM2240:
 16663 7b12 84E6      		ldi r24,lo8(100)
 16664 7b14 90E0      		ldi r25,hi8(100)
 16665 7b16 6FE0      		ldi r22,lo8(15)
 16666 7b18 70E0      		ldi r23,hi8(15)
 16667 7b1a 4FEF      		ldi r20,lo8(-1)
 16668 7b1c 0E94 0000 		call lcd_graphics_plot_pixel
 16669               	.LM2241:
 16670 7b20 84E6      		ldi r24,lo8(100)
 16671 7b22 90E0      		ldi r25,hi8(100)
 16672 7b24 60E1      		ldi r22,lo8(16)
 16673 7b26 70E0      		ldi r23,hi8(16)
 16674 7b28 4FEF      		ldi r20,lo8(-1)
 16675 7b2a 0E94 0000 		call lcd_graphics_plot_pixel
 16676               	.LM2242:
 16677 7b2e 84E6      		ldi r24,lo8(100)
 16678 7b30 90E0      		ldi r25,hi8(100)
 16679 7b32 61E1      		ldi r22,lo8(17)
 16680 7b34 70E0      		ldi r23,hi8(17)
 16681 7b36 4FEF      		ldi r20,lo8(-1)
 16682 7b38 0E94 0000 		call lcd_graphics_plot_pixel
 16683               	.LM2243:
 16684 7b3c 84E6      		ldi r24,lo8(100)
 16685 7b3e 90E0      		ldi r25,hi8(100)
 16686 7b40 62E1      		ldi r22,lo8(18)
 16687 7b42 70E0      		ldi r23,hi8(18)
 16688 7b44 4FEF      		ldi r20,lo8(-1)
 16689 7b46 0E94 0000 		call lcd_graphics_plot_pixel
 16690               	.LM2244:
 16691 7b4a 84E6      		ldi r24,lo8(100)
 16692 7b4c 90E0      		ldi r25,hi8(100)
 16693 7b4e 63E1      		ldi r22,lo8(19)
 16694 7b50 70E0      		ldi r23,hi8(19)
 16695 7b52 4FEF      		ldi r20,lo8(-1)
 16696 7b54 0E94 0000 		call lcd_graphics_plot_pixel
 16697               	.LM2245:
 16698 7b58 84E6      		ldi r24,lo8(100)
 16699 7b5a 90E0      		ldi r25,hi8(100)
 16700 7b5c 64E1      		ldi r22,lo8(20)
 16701 7b5e 70E0      		ldi r23,hi8(20)
 16702 7b60 4FEF      		ldi r20,lo8(-1)
 16703 7b62 0E94 0000 		call lcd_graphics_plot_pixel
 16704               	.LM2246:
 16705 7b66 84E6      		ldi r24,lo8(100)
 16706 7b68 90E0      		ldi r25,hi8(100)
 16707 7b6a 65E1      		ldi r22,lo8(21)
 16708 7b6c 70E0      		ldi r23,hi8(21)
 16709 7b6e 4FEF      		ldi r20,lo8(-1)
 16710 7b70 0E94 0000 		call lcd_graphics_plot_pixel
 16711               	.LM2247:
 16712 7b74 84E6      		ldi r24,lo8(100)
 16713 7b76 90E0      		ldi r25,hi8(100)
 16714 7b78 66E1      		ldi r22,lo8(22)
 16715 7b7a 70E0      		ldi r23,hi8(22)
 16716 7b7c 4FEF      		ldi r20,lo8(-1)
 16717 7b7e 0E94 0000 		call lcd_graphics_plot_pixel
 16718               	.LM2248:
 16719 7b82 84E6      		ldi r24,lo8(100)
 16720 7b84 90E0      		ldi r25,hi8(100)
 16721 7b86 67E1      		ldi r22,lo8(23)
 16722 7b88 70E0      		ldi r23,hi8(23)
 16723 7b8a 4FEF      		ldi r20,lo8(-1)
 16724 7b8c 0E94 0000 		call lcd_graphics_plot_pixel
 16725               	.LM2249:
 16726 7b90 84E6      		ldi r24,lo8(100)
 16727 7b92 90E0      		ldi r25,hi8(100)
 16728 7b94 68E1      		ldi r22,lo8(24)
 16729 7b96 70E0      		ldi r23,hi8(24)
 16730 7b98 4FEF      		ldi r20,lo8(-1)
 16731 7b9a 0E94 0000 		call lcd_graphics_plot_pixel
 16732               	.LM2250:
 16733 7b9e 84E6      		ldi r24,lo8(100)
 16734 7ba0 90E0      		ldi r25,hi8(100)
 16735 7ba2 69E1      		ldi r22,lo8(25)
 16736 7ba4 70E0      		ldi r23,hi8(25)
 16737 7ba6 4FEF      		ldi r20,lo8(-1)
 16738 7ba8 0E94 0000 		call lcd_graphics_plot_pixel
 16739               	.LM2251:
 16740 7bac 84E6      		ldi r24,lo8(100)
 16741 7bae 90E0      		ldi r25,hi8(100)
 16742 7bb0 6AE1      		ldi r22,lo8(26)
 16743 7bb2 70E0      		ldi r23,hi8(26)
 16744 7bb4 4FEF      		ldi r20,lo8(-1)
 16745 7bb6 0E94 0000 		call lcd_graphics_plot_pixel
 16746               	.LM2252:
 16747 7bba 84E6      		ldi r24,lo8(100)
 16748 7bbc 90E0      		ldi r25,hi8(100)
 16749 7bbe 6BE1      		ldi r22,lo8(27)
 16750 7bc0 70E0      		ldi r23,hi8(27)
 16751 7bc2 4FEF      		ldi r20,lo8(-1)
 16752 7bc4 0E94 0000 		call lcd_graphics_plot_pixel
 16753               	.LM2253:
 16754 7bc8 84E6      		ldi r24,lo8(100)
 16755 7bca 90E0      		ldi r25,hi8(100)
 16756 7bcc 6CE1      		ldi r22,lo8(28)
 16757 7bce 70E0      		ldi r23,hi8(28)
 16758 7bd0 4FEF      		ldi r20,lo8(-1)
 16759 7bd2 0E94 0000 		call lcd_graphics_plot_pixel
 16760               	.LM2254:
 16761 7bd6 84E6      		ldi r24,lo8(100)
 16762 7bd8 90E0      		ldi r25,hi8(100)
 16763 7bda 6DE1      		ldi r22,lo8(29)
 16764 7bdc 70E0      		ldi r23,hi8(29)
 16765 7bde 4FEF      		ldi r20,lo8(-1)
 16766 7be0 0E94 0000 		call lcd_graphics_plot_pixel
 16767               	.LM2255:
 16768 7be4 84E6      		ldi r24,lo8(100)
 16769 7be6 90E0      		ldi r25,hi8(100)
 16770 7be8 6EE1      		ldi r22,lo8(30)
 16771 7bea 70E0      		ldi r23,hi8(30)
 16772 7bec 4FEF      		ldi r20,lo8(-1)
 16773 7bee 0E94 0000 		call lcd_graphics_plot_pixel
 16774               	.LM2256:
 16775 7bf2 84E6      		ldi r24,lo8(100)
 16776 7bf4 90E0      		ldi r25,hi8(100)
 16777 7bf6 6FE1      		ldi r22,lo8(31)
 16778 7bf8 70E0      		ldi r23,hi8(31)
 16779 7bfa 4FEF      		ldi r20,lo8(-1)
 16780 7bfc 0E94 0000 		call lcd_graphics_plot_pixel
 16781               	.LM2257:
 16782 7c00 84E6      		ldi r24,lo8(100)
 16783 7c02 90E0      		ldi r25,hi8(100)
 16784 7c04 60E2      		ldi r22,lo8(32)
 16785 7c06 70E0      		ldi r23,hi8(32)
 16786 7c08 4FEF      		ldi r20,lo8(-1)
 16787 7c0a 0E94 0000 		call lcd_graphics_plot_pixel
 16788               	.LM2258:
 16789 7c0e 84E6      		ldi r24,lo8(100)
 16790 7c10 90E0      		ldi r25,hi8(100)
 16791 7c12 61E2      		ldi r22,lo8(33)
 16792 7c14 70E0      		ldi r23,hi8(33)
 16793 7c16 4FEF      		ldi r20,lo8(-1)
 16794 7c18 0E94 0000 		call lcd_graphics_plot_pixel
 16795               	.LM2259:
 16796 7c1c 84E6      		ldi r24,lo8(100)
 16797 7c1e 90E0      		ldi r25,hi8(100)
 16798 7c20 62E2      		ldi r22,lo8(34)
 16799 7c22 70E0      		ldi r23,hi8(34)
 16800 7c24 4FEF      		ldi r20,lo8(-1)
 16801 7c26 0E94 0000 		call lcd_graphics_plot_pixel
 16802               	.LM2260:
 16803 7c2a 84E6      		ldi r24,lo8(100)
 16804 7c2c 90E0      		ldi r25,hi8(100)
 16805 7c2e 63E2      		ldi r22,lo8(35)
 16806 7c30 70E0      		ldi r23,hi8(35)
 16807 7c32 4FEF      		ldi r20,lo8(-1)
 16808 7c34 0E94 0000 		call lcd_graphics_plot_pixel
 16809               	.LM2261:
 16810 7c38 84E6      		ldi r24,lo8(100)
 16811 7c3a 90E0      		ldi r25,hi8(100)
 16812 7c3c 64E2      		ldi r22,lo8(36)
 16813 7c3e 70E0      		ldi r23,hi8(36)
 16814 7c40 4FEF      		ldi r20,lo8(-1)
 16815 7c42 0E94 0000 		call lcd_graphics_plot_pixel
 16816               	.LM2262:
 16817 7c46 84E6      		ldi r24,lo8(100)
 16818 7c48 90E0      		ldi r25,hi8(100)
 16819 7c4a 65E2      		ldi r22,lo8(37)
 16820 7c4c 70E0      		ldi r23,hi8(37)
 16821 7c4e 4FEF      		ldi r20,lo8(-1)
 16822 7c50 0E94 0000 		call lcd_graphics_plot_pixel
 16823               	.LM2263:
 16824 7c54 84E6      		ldi r24,lo8(100)
 16825 7c56 90E0      		ldi r25,hi8(100)
 16826 7c58 66E2      		ldi r22,lo8(38)
 16827 7c5a 70E0      		ldi r23,hi8(38)
 16828 7c5c 4FEF      		ldi r20,lo8(-1)
 16829 7c5e 0E94 0000 		call lcd_graphics_plot_pixel
 16830               	.LM2264:
 16831 7c62 84E6      		ldi r24,lo8(100)
 16832 7c64 90E0      		ldi r25,hi8(100)
 16833 7c66 67E2      		ldi r22,lo8(39)
 16834 7c68 70E0      		ldi r23,hi8(39)
 16835 7c6a 4FEF      		ldi r20,lo8(-1)
 16836 7c6c 0E94 0000 		call lcd_graphics_plot_pixel
 16837               	.LM2265:
 16838 7c70 84E6      		ldi r24,lo8(100)
 16839 7c72 90E0      		ldi r25,hi8(100)
 16840 7c74 68E2      		ldi r22,lo8(40)
 16841 7c76 70E0      		ldi r23,hi8(40)
 16842 7c78 4FEF      		ldi r20,lo8(-1)
 16843 7c7a 0E94 0000 		call lcd_graphics_plot_pixel
 16844               	.LM2266:
 16845 7c7e 84E6      		ldi r24,lo8(100)
 16846 7c80 90E0      		ldi r25,hi8(100)
 16847 7c82 69E2      		ldi r22,lo8(41)
 16848 7c84 70E0      		ldi r23,hi8(41)
 16849 7c86 4FEF      		ldi r20,lo8(-1)
 16850 7c88 0E94 0000 		call lcd_graphics_plot_pixel
 16851               	.LM2267:
 16852 7c8c 84E6      		ldi r24,lo8(100)
 16853 7c8e 90E0      		ldi r25,hi8(100)
 16854 7c90 6AE2      		ldi r22,lo8(42)
 16855 7c92 70E0      		ldi r23,hi8(42)
 16856 7c94 4FEF      		ldi r20,lo8(-1)
 16857 7c96 0E94 0000 		call lcd_graphics_plot_pixel
 16858               	.LM2268:
 16859 7c9a 84E6      		ldi r24,lo8(100)
 16860 7c9c 90E0      		ldi r25,hi8(100)
 16861 7c9e 6BE2      		ldi r22,lo8(43)
 16862 7ca0 70E0      		ldi r23,hi8(43)
 16863 7ca2 4FEF      		ldi r20,lo8(-1)
 16864 7ca4 0E94 0000 		call lcd_graphics_plot_pixel
 16865               	.LM2269:
 16866 7ca8 84E6      		ldi r24,lo8(100)
 16867 7caa 90E0      		ldi r25,hi8(100)
 16868 7cac 6CE2      		ldi r22,lo8(44)
 16869 7cae 70E0      		ldi r23,hi8(44)
 16870 7cb0 4FEF      		ldi r20,lo8(-1)
 16871 7cb2 0E94 0000 		call lcd_graphics_plot_pixel
 16872               	.LM2270:
 16873 7cb6 84E6      		ldi r24,lo8(100)
 16874 7cb8 90E0      		ldi r25,hi8(100)
 16875 7cba 6DE2      		ldi r22,lo8(45)
 16876 7cbc 70E0      		ldi r23,hi8(45)
 16877 7cbe 4FEF      		ldi r20,lo8(-1)
 16878 7cc0 0E94 0000 		call lcd_graphics_plot_pixel
 16879               	.LM2271:
 16880 7cc4 84E6      		ldi r24,lo8(100)
 16881 7cc6 90E0      		ldi r25,hi8(100)
 16882 7cc8 6EE2      		ldi r22,lo8(46)
 16883 7cca 70E0      		ldi r23,hi8(46)
 16884 7ccc 4FEF      		ldi r20,lo8(-1)
 16885 7cce 0E94 0000 		call lcd_graphics_plot_pixel
 16886               	.LM2272:
 16887 7cd2 84E6      		ldi r24,lo8(100)
 16888 7cd4 90E0      		ldi r25,hi8(100)
 16889 7cd6 6FE2      		ldi r22,lo8(47)
 16890 7cd8 70E0      		ldi r23,hi8(47)
 16891 7cda 4FEF      		ldi r20,lo8(-1)
 16892 7cdc 0E94 0000 		call lcd_graphics_plot_pixel
 16893               	.LM2273:
 16894 7ce0 84E6      		ldi r24,lo8(100)
 16895 7ce2 90E0      		ldi r25,hi8(100)
 16896 7ce4 60E3      		ldi r22,lo8(48)
 16897 7ce6 70E0      		ldi r23,hi8(48)
 16898 7ce8 4FEF      		ldi r20,lo8(-1)
 16899 7cea 0E94 0000 		call lcd_graphics_plot_pixel
 16900               	.LM2274:
 16901 7cee 84E6      		ldi r24,lo8(100)
 16902 7cf0 90E0      		ldi r25,hi8(100)
 16903 7cf2 61E3      		ldi r22,lo8(49)
 16904 7cf4 70E0      		ldi r23,hi8(49)
 16905 7cf6 4FEF      		ldi r20,lo8(-1)
 16906 7cf8 0E94 0000 		call lcd_graphics_plot_pixel
 16907               	.LM2275:
 16908 7cfc 84E6      		ldi r24,lo8(100)
 16909 7cfe 90E0      		ldi r25,hi8(100)
 16910 7d00 62E3      		ldi r22,lo8(50)
 16911 7d02 70E0      		ldi r23,hi8(50)
 16912 7d04 4FEF      		ldi r20,lo8(-1)
 16913 7d06 0E94 0000 		call lcd_graphics_plot_pixel
 16914               	.LM2276:
 16915 7d0a 84E6      		ldi r24,lo8(100)
 16916 7d0c 90E0      		ldi r25,hi8(100)
 16917 7d0e 63E3      		ldi r22,lo8(51)
 16918 7d10 70E0      		ldi r23,hi8(51)
 16919 7d12 4FEF      		ldi r20,lo8(-1)
 16920 7d14 0E94 0000 		call lcd_graphics_plot_pixel
 16921               	.LM2277:
 16922 7d18 84E6      		ldi r24,lo8(100)
 16923 7d1a 90E0      		ldi r25,hi8(100)
 16924 7d1c 64E3      		ldi r22,lo8(52)
 16925 7d1e 70E0      		ldi r23,hi8(52)
 16926 7d20 4FEF      		ldi r20,lo8(-1)
 16927 7d22 0E94 0000 		call lcd_graphics_plot_pixel
 16928               	.LM2278:
 16929 7d26 84E6      		ldi r24,lo8(100)
 16930 7d28 90E0      		ldi r25,hi8(100)
 16931 7d2a 65E3      		ldi r22,lo8(53)
 16932 7d2c 70E0      		ldi r23,hi8(53)
 16933 7d2e 4FEF      		ldi r20,lo8(-1)
 16934 7d30 0E94 0000 		call lcd_graphics_plot_pixel
 16935               	.LM2279:
 16936 7d34 84E6      		ldi r24,lo8(100)
 16937 7d36 90E0      		ldi r25,hi8(100)
 16938 7d38 66E3      		ldi r22,lo8(54)
 16939 7d3a 70E0      		ldi r23,hi8(54)
 16940 7d3c 4FEF      		ldi r20,lo8(-1)
 16941 7d3e 0E94 0000 		call lcd_graphics_plot_pixel
 16942               	.LM2280:
 16943 7d42 84E6      		ldi r24,lo8(100)
 16944 7d44 90E0      		ldi r25,hi8(100)
 16945 7d46 67E3      		ldi r22,lo8(55)
 16946 7d48 70E0      		ldi r23,hi8(55)
 16947 7d4a 4FEF      		ldi r20,lo8(-1)
 16948 7d4c 0E94 0000 		call lcd_graphics_plot_pixel
 16949               	.LM2281:
 16950 7d50 84E6      		ldi r24,lo8(100)
 16951 7d52 90E0      		ldi r25,hi8(100)
 16952 7d54 68E3      		ldi r22,lo8(56)
 16953 7d56 70E0      		ldi r23,hi8(56)
 16954 7d58 4FEF      		ldi r20,lo8(-1)
 16955 7d5a 0E94 0000 		call lcd_graphics_plot_pixel
 16956               	.LM2282:
 16957 7d5e 84E6      		ldi r24,lo8(100)
 16958 7d60 90E0      		ldi r25,hi8(100)
 16959 7d62 69E3      		ldi r22,lo8(57)
 16960 7d64 70E0      		ldi r23,hi8(57)
 16961 7d66 4FEF      		ldi r20,lo8(-1)
 16962 7d68 0E94 0000 		call lcd_graphics_plot_pixel
 16963               	.LM2283:
 16964 7d6c 84E6      		ldi r24,lo8(100)
 16965 7d6e 90E0      		ldi r25,hi8(100)
 16966 7d70 6AE3      		ldi r22,lo8(58)
 16967 7d72 70E0      		ldi r23,hi8(58)
 16968 7d74 4FEF      		ldi r20,lo8(-1)
 16969 7d76 0E94 0000 		call lcd_graphics_plot_pixel
 16970               	.LM2284:
 16971 7d7a 84E6      		ldi r24,lo8(100)
 16972 7d7c 90E0      		ldi r25,hi8(100)
 16973 7d7e 6BE3      		ldi r22,lo8(59)
 16974 7d80 70E0      		ldi r23,hi8(59)
 16975 7d82 4FEF      		ldi r20,lo8(-1)
 16976 7d84 0E94 0000 		call lcd_graphics_plot_pixel
 16977               	.LM2285:
 16978 7d88 84E6      		ldi r24,lo8(100)
 16979 7d8a 90E0      		ldi r25,hi8(100)
 16980 7d8c 6CE3      		ldi r22,lo8(60)
 16981 7d8e 70E0      		ldi r23,hi8(60)
 16982 7d90 4FEF      		ldi r20,lo8(-1)
 16983 7d92 0E94 0000 		call lcd_graphics_plot_pixel
 16984               	.LM2286:
 16985 7d96 84E6      		ldi r24,lo8(100)
 16986 7d98 90E0      		ldi r25,hi8(100)
 16987 7d9a 6DE3      		ldi r22,lo8(61)
 16988 7d9c 70E0      		ldi r23,hi8(61)
 16989 7d9e 4FEF      		ldi r20,lo8(-1)
 16990 7da0 0E94 0000 		call lcd_graphics_plot_pixel
 16991               	.LM2287:
 16992 7da4 84E6      		ldi r24,lo8(100)
 16993 7da6 90E0      		ldi r25,hi8(100)
 16994 7da8 6EE3      		ldi r22,lo8(62)
 16995 7daa 70E0      		ldi r23,hi8(62)
 16996 7dac 4FEF      		ldi r20,lo8(-1)
 16997 7dae 0E94 0000 		call lcd_graphics_plot_pixel
 16998               	.LM2288:
 16999 7db2 84E6      		ldi r24,lo8(100)
 17000 7db4 90E0      		ldi r25,hi8(100)
 17001 7db6 6FE3      		ldi r22,lo8(63)
 17002 7db8 70E0      		ldi r23,hi8(63)
 17003 7dba 4FEF      		ldi r20,lo8(-1)
 17004 7dbc 0E94 0000 		call lcd_graphics_plot_pixel
 17005               	.LM2289:
 17006 7dc0 84E6      		ldi r24,lo8(100)
 17007 7dc2 90E0      		ldi r25,hi8(100)
 17008 7dc4 60E4      		ldi r22,lo8(64)
 17009 7dc6 70E0      		ldi r23,hi8(64)
 17010 7dc8 4FEF      		ldi r20,lo8(-1)
 17011 7dca 0E94 0000 		call lcd_graphics_plot_pixel
 17012               	.LM2290:
 17013 7dce 84E6      		ldi r24,lo8(100)
 17014 7dd0 90E0      		ldi r25,hi8(100)
 17015 7dd2 61E4      		ldi r22,lo8(65)
 17016 7dd4 70E0      		ldi r23,hi8(65)
 17017 7dd6 4FEF      		ldi r20,lo8(-1)
 17018 7dd8 0E94 0000 		call lcd_graphics_plot_pixel
 17019               	.LM2291:
 17020 7ddc 84E6      		ldi r24,lo8(100)
 17021 7dde 90E0      		ldi r25,hi8(100)
 17022 7de0 62E4      		ldi r22,lo8(66)
 17023 7de2 70E0      		ldi r23,hi8(66)
 17024 7de4 4FEF      		ldi r20,lo8(-1)
 17025 7de6 0E94 0000 		call lcd_graphics_plot_pixel
 17026               	.LM2292:
 17027 7dea 84E6      		ldi r24,lo8(100)
 17028 7dec 90E0      		ldi r25,hi8(100)
 17029 7dee 63E4      		ldi r22,lo8(67)
 17030 7df0 70E0      		ldi r23,hi8(67)
 17031 7df2 4FEF      		ldi r20,lo8(-1)
 17032 7df4 0E94 0000 		call lcd_graphics_plot_pixel
 17033               	.LM2293:
 17034 7df8 84E6      		ldi r24,lo8(100)
 17035 7dfa 90E0      		ldi r25,hi8(100)
 17036 7dfc 64E4      		ldi r22,lo8(68)
 17037 7dfe 70E0      		ldi r23,hi8(68)
 17038 7e00 4FEF      		ldi r20,lo8(-1)
 17039 7e02 0E94 0000 		call lcd_graphics_plot_pixel
 17040               	.LM2294:
 17041 7e06 84E6      		ldi r24,lo8(100)
 17042 7e08 90E0      		ldi r25,hi8(100)
 17043 7e0a 65E4      		ldi r22,lo8(69)
 17044 7e0c 70E0      		ldi r23,hi8(69)
 17045 7e0e 4FEF      		ldi r20,lo8(-1)
 17046 7e10 0E94 0000 		call lcd_graphics_plot_pixel
 17047               	.LM2295:
 17048 7e14 84E6      		ldi r24,lo8(100)
 17049 7e16 90E0      		ldi r25,hi8(100)
 17050 7e18 66E4      		ldi r22,lo8(70)
 17051 7e1a 70E0      		ldi r23,hi8(70)
 17052 7e1c 4FEF      		ldi r20,lo8(-1)
 17053 7e1e 0E94 0000 		call lcd_graphics_plot_pixel
 17054               	.LM2296:
 17055 7e22 84E6      		ldi r24,lo8(100)
 17056 7e24 90E0      		ldi r25,hi8(100)
 17057 7e26 67E4      		ldi r22,lo8(71)
 17058 7e28 70E0      		ldi r23,hi8(71)
 17059 7e2a 4FEF      		ldi r20,lo8(-1)
 17060 7e2c 0E94 0000 		call lcd_graphics_plot_pixel
 17061               	.LM2297:
 17062 7e30 84E6      		ldi r24,lo8(100)
 17063 7e32 90E0      		ldi r25,hi8(100)
 17064 7e34 68E4      		ldi r22,lo8(72)
 17065 7e36 70E0      		ldi r23,hi8(72)
 17066 7e38 4FEF      		ldi r20,lo8(-1)
 17067 7e3a 0E94 0000 		call lcd_graphics_plot_pixel
 17068               	/* epilogue start */
 17069               	.LM2298:
 17070 7e3e CF91      		pop r28
 17071 7e40 DF91      		pop r29
 17072 7e42 0895      		ret
 17073               	.LFE21:
 17075               	.global	draw_bar
 17077               	draw_bar:
 17078               	.LFB22:
 17079               	.LM2299:
 17080 7e44 DF93      		push r29
 17081 7e46 CF93      		push r28
 17082 7e48 00D0      		rcall .
 17083 7e4a CDB7      		in r28,__SP_L__
 17084 7e4c DEB7      		in r29,__SP_H__
 17085               	/* prologue: function */
 17086               	/* frame size = 2 */
 17087 7e4e 8983      		std Y+1,r24
 17088 7e50 6A83      		std Y+2,r22
 17089               	.LM2300:
 17090 7e52 8981      		ldd r24,Y+1
 17091 7e54 882F      		mov r24,r24
 17092 7e56 90E0      		ldi r25,lo8(0)
 17093 7e58 0196      		adiw r24,1
 17094 7e5a AC01      		movw r20,r24
 17095 7e5c 8A81      		ldd r24,Y+2
 17096 7e5e 882F      		mov r24,r24
 17097 7e60 90E0      		ldi r25,lo8(0)
 17098 7e62 0196      		adiw r24,1
 17099 7e64 9C01      		movw r18,r24
 17100 7e66 CA01      		movw r24,r20
 17101 7e68 B901      		movw r22,r18
 17102 7e6a 4FEF      		ldi r20,lo8(-1)
 17103 7e6c 0E94 0000 		call lcd_graphics_plot_pixel
 17104               	.LM2301:
 17105 7e70 8981      		ldd r24,Y+1
 17106 7e72 882F      		mov r24,r24
 17107 7e74 90E0      		ldi r25,lo8(0)
 17108 7e76 0196      		adiw r24,1
 17109 7e78 AC01      		movw r20,r24
 17110 7e7a 8A81      		ldd r24,Y+2
 17111 7e7c 882F      		mov r24,r24
 17112 7e7e 90E0      		ldi r25,lo8(0)
 17113 7e80 0296      		adiw r24,2
 17114 7e82 9C01      		movw r18,r24
 17115 7e84 CA01      		movw r24,r20
 17116 7e86 B901      		movw r22,r18
 17117 7e88 4FEF      		ldi r20,lo8(-1)
 17118 7e8a 0E94 0000 		call lcd_graphics_plot_pixel
 17119               	.LM2302:
 17120 7e8e 8981      		ldd r24,Y+1
 17121 7e90 882F      		mov r24,r24
 17122 7e92 90E0      		ldi r25,lo8(0)
 17123 7e94 0296      		adiw r24,2
 17124 7e96 AC01      		movw r20,r24
 17125 7e98 8A81      		ldd r24,Y+2
 17126 7e9a 882F      		mov r24,r24
 17127 7e9c 90E0      		ldi r25,lo8(0)
 17128 7e9e 0296      		adiw r24,2
 17129 7ea0 9C01      		movw r18,r24
 17130 7ea2 CA01      		movw r24,r20
 17131 7ea4 B901      		movw r22,r18
 17132 7ea6 4FEF      		ldi r20,lo8(-1)
 17133 7ea8 0E94 0000 		call lcd_graphics_plot_pixel
 17134               	.LM2303:
 17135 7eac 8981      		ldd r24,Y+1
 17136 7eae 882F      		mov r24,r24
 17137 7eb0 90E0      		ldi r25,lo8(0)
 17138 7eb2 0296      		adiw r24,2
 17139 7eb4 AC01      		movw r20,r24
 17140 7eb6 8A81      		ldd r24,Y+2
 17141 7eb8 882F      		mov r24,r24
 17142 7eba 90E0      		ldi r25,lo8(0)
 17143 7ebc 0396      		adiw r24,3
 17144 7ebe 9C01      		movw r18,r24
 17145 7ec0 CA01      		movw r24,r20
 17146 7ec2 B901      		movw r22,r18
 17147 7ec4 4FEF      		ldi r20,lo8(-1)
 17148 7ec6 0E94 0000 		call lcd_graphics_plot_pixel
 17149               	.LM2304:
 17150 7eca 8981      		ldd r24,Y+1
 17151 7ecc 882F      		mov r24,r24
 17152 7ece 90E0      		ldi r25,lo8(0)
 17153 7ed0 0396      		adiw r24,3
 17154 7ed2 AC01      		movw r20,r24
 17155 7ed4 8A81      		ldd r24,Y+2
 17156 7ed6 882F      		mov r24,r24
 17157 7ed8 90E0      		ldi r25,lo8(0)
 17158 7eda 0396      		adiw r24,3
 17159 7edc 9C01      		movw r18,r24
 17160 7ede CA01      		movw r24,r20
 17161 7ee0 B901      		movw r22,r18
 17162 7ee2 4FEF      		ldi r20,lo8(-1)
 17163 7ee4 0E94 0000 		call lcd_graphics_plot_pixel
 17164               	.LM2305:
 17165 7ee8 8981      		ldd r24,Y+1
 17166 7eea 882F      		mov r24,r24
 17167 7eec 90E0      		ldi r25,lo8(0)
 17168 7eee 0396      		adiw r24,3
 17169 7ef0 AC01      		movw r20,r24
 17170 7ef2 8A81      		ldd r24,Y+2
 17171 7ef4 882F      		mov r24,r24
 17172 7ef6 90E0      		ldi r25,lo8(0)
 17173 7ef8 0496      		adiw r24,4
 17174 7efa 9C01      		movw r18,r24
 17175 7efc CA01      		movw r24,r20
 17176 7efe B901      		movw r22,r18
 17177 7f00 4FEF      		ldi r20,lo8(-1)
 17178 7f02 0E94 0000 		call lcd_graphics_plot_pixel
 17179               	.LM2306:
 17180 7f06 8981      		ldd r24,Y+1
 17181 7f08 882F      		mov r24,r24
 17182 7f0a 90E0      		ldi r25,lo8(0)
 17183 7f0c 0496      		adiw r24,4
 17184 7f0e AC01      		movw r20,r24
 17185 7f10 8A81      		ldd r24,Y+2
 17186 7f12 882F      		mov r24,r24
 17187 7f14 90E0      		ldi r25,lo8(0)
 17188 7f16 0396      		adiw r24,3
 17189 7f18 9C01      		movw r18,r24
 17190 7f1a CA01      		movw r24,r20
 17191 7f1c B901      		movw r22,r18
 17192 7f1e 4FEF      		ldi r20,lo8(-1)
 17193 7f20 0E94 0000 		call lcd_graphics_plot_pixel
 17194               	.LM2307:
 17195 7f24 8981      		ldd r24,Y+1
 17196 7f26 882F      		mov r24,r24
 17197 7f28 90E0      		ldi r25,lo8(0)
 17198 7f2a 0496      		adiw r24,4
 17199 7f2c AC01      		movw r20,r24
 17200 7f2e 8A81      		ldd r24,Y+2
 17201 7f30 882F      		mov r24,r24
 17202 7f32 90E0      		ldi r25,lo8(0)
 17203 7f34 0496      		adiw r24,4
 17204 7f36 9C01      		movw r18,r24
 17205 7f38 CA01      		movw r24,r20
 17206 7f3a B901      		movw r22,r18
 17207 7f3c 4FEF      		ldi r20,lo8(-1)
 17208 7f3e 0E94 0000 		call lcd_graphics_plot_pixel
 17209               	.LM2308:
 17210 7f42 8981      		ldd r24,Y+1
 17211 7f44 882F      		mov r24,r24
 17212 7f46 90E0      		ldi r25,lo8(0)
 17213 7f48 0596      		adiw r24,5
 17214 7f4a AC01      		movw r20,r24
 17215 7f4c 8A81      		ldd r24,Y+2
 17216 7f4e 882F      		mov r24,r24
 17217 7f50 90E0      		ldi r25,lo8(0)
 17218 7f52 0396      		adiw r24,3
 17219 7f54 9C01      		movw r18,r24
 17220 7f56 CA01      		movw r24,r20
 17221 7f58 B901      		movw r22,r18
 17222 7f5a 4FEF      		ldi r20,lo8(-1)
 17223 7f5c 0E94 0000 		call lcd_graphics_plot_pixel
 17224               	.LM2309:
 17225 7f60 8981      		ldd r24,Y+1
 17226 7f62 882F      		mov r24,r24
 17227 7f64 90E0      		ldi r25,lo8(0)
 17228 7f66 0596      		adiw r24,5
 17229 7f68 AC01      		movw r20,r24
 17230 7f6a 8A81      		ldd r24,Y+2
 17231 7f6c 882F      		mov r24,r24
 17232 7f6e 90E0      		ldi r25,lo8(0)
 17233 7f70 0496      		adiw r24,4
 17234 7f72 9C01      		movw r18,r24
 17235 7f74 CA01      		movw r24,r20
 17236 7f76 B901      		movw r22,r18
 17237 7f78 4FEF      		ldi r20,lo8(-1)
 17238 7f7a 0E94 0000 		call lcd_graphics_plot_pixel
 17239               	.LM2310:
 17240 7f7e 8981      		ldd r24,Y+1
 17241 7f80 882F      		mov r24,r24
 17242 7f82 90E0      		ldi r25,lo8(0)
 17243 7f84 0596      		adiw r24,5
 17244 7f86 AC01      		movw r20,r24
 17245 7f88 8A81      		ldd r24,Y+2
 17246 7f8a 882F      		mov r24,r24
 17247 7f8c 90E0      		ldi r25,lo8(0)
 17248 7f8e 0596      		adiw r24,5
 17249 7f90 9C01      		movw r18,r24
 17250 7f92 CA01      		movw r24,r20
 17251 7f94 B901      		movw r22,r18
 17252 7f96 4FEF      		ldi r20,lo8(-1)
 17253 7f98 0E94 0000 		call lcd_graphics_plot_pixel
 17254               	.LM2311:
 17255 7f9c 8981      		ldd r24,Y+1
 17256 7f9e 882F      		mov r24,r24
 17257 7fa0 90E0      		ldi r25,lo8(0)
 17258 7fa2 0696      		adiw r24,6
 17259 7fa4 AC01      		movw r20,r24
 17260 7fa6 8A81      		ldd r24,Y+2
 17261 7fa8 882F      		mov r24,r24
 17262 7faa 90E0      		ldi r25,lo8(0)
 17263 7fac 0496      		adiw r24,4
 17264 7fae 9C01      		movw r18,r24
 17265 7fb0 CA01      		movw r24,r20
 17266 7fb2 B901      		movw r22,r18
 17267 7fb4 4FEF      		ldi r20,lo8(-1)
 17268 7fb6 0E94 0000 		call lcd_graphics_plot_pixel
 17269               	.LM2312:
 17270 7fba 8981      		ldd r24,Y+1
 17271 7fbc 882F      		mov r24,r24
 17272 7fbe 90E0      		ldi r25,lo8(0)
 17273 7fc0 0696      		adiw r24,6
 17274 7fc2 AC01      		movw r20,r24
 17275 7fc4 8A81      		ldd r24,Y+2
 17276 7fc6 882F      		mov r24,r24
 17277 7fc8 90E0      		ldi r25,lo8(0)
 17278 7fca 0596      		adiw r24,5
 17279 7fcc 9C01      		movw r18,r24
 17280 7fce CA01      		movw r24,r20
 17281 7fd0 B901      		movw r22,r18
 17282 7fd2 4FEF      		ldi r20,lo8(-1)
 17283 7fd4 0E94 0000 		call lcd_graphics_plot_pixel
 17284               	.LM2313:
 17285 7fd8 8981      		ldd r24,Y+1
 17286 7fda 882F      		mov r24,r24
 17287 7fdc 90E0      		ldi r25,lo8(0)
 17288 7fde 0796      		adiw r24,7
 17289 7fe0 AC01      		movw r20,r24
 17290 7fe2 8A81      		ldd r24,Y+2
 17291 7fe4 882F      		mov r24,r24
 17292 7fe6 90E0      		ldi r25,lo8(0)
 17293 7fe8 0496      		adiw r24,4
 17294 7fea 9C01      		movw r18,r24
 17295 7fec CA01      		movw r24,r20
 17296 7fee B901      		movw r22,r18
 17297 7ff0 4FEF      		ldi r20,lo8(-1)
 17298 7ff2 0E94 0000 		call lcd_graphics_plot_pixel
 17299               	.LM2314:
 17300 7ff6 8981      		ldd r24,Y+1
 17301 7ff8 882F      		mov r24,r24
 17302 7ffa 90E0      		ldi r25,lo8(0)
 17303 7ffc 0796      		adiw r24,7
 17304 7ffe AC01      		movw r20,r24
 17305 8000 8A81      		ldd r24,Y+2
 17306 8002 882F      		mov r24,r24
 17307 8004 90E0      		ldi r25,lo8(0)
 17308 8006 0596      		adiw r24,5
 17309 8008 9C01      		movw r18,r24
 17310 800a CA01      		movw r24,r20
 17311 800c B901      		movw r22,r18
 17312 800e 4FEF      		ldi r20,lo8(-1)
 17313 8010 0E94 0000 		call lcd_graphics_plot_pixel
 17314               	.LM2315:
 17315 8014 8981      		ldd r24,Y+1
 17316 8016 882F      		mov r24,r24
 17317 8018 90E0      		ldi r25,lo8(0)
 17318 801a 0796      		adiw r24,7
 17319 801c AC01      		movw r20,r24
 17320 801e 8A81      		ldd r24,Y+2
 17321 8020 882F      		mov r24,r24
 17322 8022 90E0      		ldi r25,lo8(0)
 17323 8024 0696      		adiw r24,6
 17324 8026 9C01      		movw r18,r24
 17325 8028 CA01      		movw r24,r20
 17326 802a B901      		movw r22,r18
 17327 802c 4FEF      		ldi r20,lo8(-1)
 17328 802e 0E94 0000 		call lcd_graphics_plot_pixel
 17329               	.LM2316:
 17330 8032 8981      		ldd r24,Y+1
 17331 8034 882F      		mov r24,r24
 17332 8036 90E0      		ldi r25,lo8(0)
 17333 8038 0896      		adiw r24,8
 17334 803a AC01      		movw r20,r24
 17335 803c 8A81      		ldd r24,Y+2
 17336 803e 882F      		mov r24,r24
 17337 8040 90E0      		ldi r25,lo8(0)
 17338 8042 0496      		adiw r24,4
 17339 8044 9C01      		movw r18,r24
 17340 8046 CA01      		movw r24,r20
 17341 8048 B901      		movw r22,r18
 17342 804a 4FEF      		ldi r20,lo8(-1)
 17343 804c 0E94 0000 		call lcd_graphics_plot_pixel
 17344               	.LM2317:
 17345 8050 8981      		ldd r24,Y+1
 17346 8052 882F      		mov r24,r24
 17347 8054 90E0      		ldi r25,lo8(0)
 17348 8056 0896      		adiw r24,8
 17349 8058 AC01      		movw r20,r24
 17350 805a 8A81      		ldd r24,Y+2
 17351 805c 882F      		mov r24,r24
 17352 805e 90E0      		ldi r25,lo8(0)
 17353 8060 0596      		adiw r24,5
 17354 8062 9C01      		movw r18,r24
 17355 8064 CA01      		movw r24,r20
 17356 8066 B901      		movw r22,r18
 17357 8068 4FEF      		ldi r20,lo8(-1)
 17358 806a 0E94 0000 		call lcd_graphics_plot_pixel
 17359               	.LM2318:
 17360 806e 8981      		ldd r24,Y+1
 17361 8070 882F      		mov r24,r24
 17362 8072 90E0      		ldi r25,lo8(0)
 17363 8074 0896      		adiw r24,8
 17364 8076 AC01      		movw r20,r24
 17365 8078 8A81      		ldd r24,Y+2
 17366 807a 882F      		mov r24,r24
 17367 807c 90E0      		ldi r25,lo8(0)
 17368 807e 0696      		adiw r24,6
 17369 8080 9C01      		movw r18,r24
 17370 8082 CA01      		movw r24,r20
 17371 8084 B901      		movw r22,r18
 17372 8086 4FEF      		ldi r20,lo8(-1)
 17373 8088 0E94 0000 		call lcd_graphics_plot_pixel
 17374               	.LM2319:
 17375 808c 8981      		ldd r24,Y+1
 17376 808e 882F      		mov r24,r24
 17377 8090 90E0      		ldi r25,lo8(0)
 17378 8092 0996      		adiw r24,9
 17379 8094 AC01      		movw r20,r24
 17380 8096 8A81      		ldd r24,Y+2
 17381 8098 882F      		mov r24,r24
 17382 809a 90E0      		ldi r25,lo8(0)
 17383 809c 0496      		adiw r24,4
 17384 809e 9C01      		movw r18,r24
 17385 80a0 CA01      		movw r24,r20
 17386 80a2 B901      		movw r22,r18
 17387 80a4 4FEF      		ldi r20,lo8(-1)
 17388 80a6 0E94 0000 		call lcd_graphics_plot_pixel
 17389               	.LM2320:
 17390 80aa 8981      		ldd r24,Y+1
 17391 80ac 882F      		mov r24,r24
 17392 80ae 90E0      		ldi r25,lo8(0)
 17393 80b0 0996      		adiw r24,9
 17394 80b2 AC01      		movw r20,r24
 17395 80b4 8A81      		ldd r24,Y+2
 17396 80b6 882F      		mov r24,r24
 17397 80b8 90E0      		ldi r25,lo8(0)
 17398 80ba 0596      		adiw r24,5
 17399 80bc 9C01      		movw r18,r24
 17400 80be CA01      		movw r24,r20
 17401 80c0 B901      		movw r22,r18
 17402 80c2 4FEF      		ldi r20,lo8(-1)
 17403 80c4 0E94 0000 		call lcd_graphics_plot_pixel
 17404               	.LM2321:
 17405 80c8 8981      		ldd r24,Y+1
 17406 80ca 882F      		mov r24,r24
 17407 80cc 90E0      		ldi r25,lo8(0)
 17408 80ce 0996      		adiw r24,9
 17409 80d0 AC01      		movw r20,r24
 17410 80d2 8A81      		ldd r24,Y+2
 17411 80d4 882F      		mov r24,r24
 17412 80d6 90E0      		ldi r25,lo8(0)
 17413 80d8 0696      		adiw r24,6
 17414 80da 9C01      		movw r18,r24
 17415 80dc CA01      		movw r24,r20
 17416 80de B901      		movw r22,r18
 17417 80e0 4FEF      		ldi r20,lo8(-1)
 17418 80e2 0E94 0000 		call lcd_graphics_plot_pixel
 17419               	.LM2322:
 17420 80e6 8981      		ldd r24,Y+1
 17421 80e8 882F      		mov r24,r24
 17422 80ea 90E0      		ldi r25,lo8(0)
 17423 80ec 0A96      		adiw r24,10
 17424 80ee AC01      		movw r20,r24
 17425 80f0 8A81      		ldd r24,Y+2
 17426 80f2 882F      		mov r24,r24
 17427 80f4 90E0      		ldi r25,lo8(0)
 17428 80f6 0596      		adiw r24,5
 17429 80f8 9C01      		movw r18,r24
 17430 80fa CA01      		movw r24,r20
 17431 80fc B901      		movw r22,r18
 17432 80fe 4FEF      		ldi r20,lo8(-1)
 17433 8100 0E94 0000 		call lcd_graphics_plot_pixel
 17434               	.LM2323:
 17435 8104 8981      		ldd r24,Y+1
 17436 8106 882F      		mov r24,r24
 17437 8108 90E0      		ldi r25,lo8(0)
 17438 810a 0A96      		adiw r24,10
 17439 810c AC01      		movw r20,r24
 17440 810e 8A81      		ldd r24,Y+2
 17441 8110 882F      		mov r24,r24
 17442 8112 90E0      		ldi r25,lo8(0)
 17443 8114 0696      		adiw r24,6
 17444 8116 9C01      		movw r18,r24
 17445 8118 CA01      		movw r24,r20
 17446 811a B901      		movw r22,r18
 17447 811c 4FEF      		ldi r20,lo8(-1)
 17448 811e 0E94 0000 		call lcd_graphics_plot_pixel
 17449               	.LM2324:
 17450 8122 8981      		ldd r24,Y+1
 17451 8124 882F      		mov r24,r24
 17452 8126 90E0      		ldi r25,lo8(0)
 17453 8128 0B96      		adiw r24,11
 17454 812a AC01      		movw r20,r24
 17455 812c 8A81      		ldd r24,Y+2
 17456 812e 882F      		mov r24,r24
 17457 8130 90E0      		ldi r25,lo8(0)
 17458 8132 0596      		adiw r24,5
 17459 8134 9C01      		movw r18,r24
 17460 8136 CA01      		movw r24,r20
 17461 8138 B901      		movw r22,r18
 17462 813a 4FEF      		ldi r20,lo8(-1)
 17463 813c 0E94 0000 		call lcd_graphics_plot_pixel
 17464               	.LM2325:
 17465 8140 8981      		ldd r24,Y+1
 17466 8142 882F      		mov r24,r24
 17467 8144 90E0      		ldi r25,lo8(0)
 17468 8146 0B96      		adiw r24,11
 17469 8148 AC01      		movw r20,r24
 17470 814a 8A81      		ldd r24,Y+2
 17471 814c 882F      		mov r24,r24
 17472 814e 90E0      		ldi r25,lo8(0)
 17473 8150 0696      		adiw r24,6
 17474 8152 9C01      		movw r18,r24
 17475 8154 CA01      		movw r24,r20
 17476 8156 B901      		movw r22,r18
 17477 8158 4FEF      		ldi r20,lo8(-1)
 17478 815a 0E94 0000 		call lcd_graphics_plot_pixel
 17479               	.LM2326:
 17480 815e 8981      		ldd r24,Y+1
 17481 8160 882F      		mov r24,r24
 17482 8162 90E0      		ldi r25,lo8(0)
 17483 8164 0C96      		adiw r24,12
 17484 8166 AC01      		movw r20,r24
 17485 8168 8A81      		ldd r24,Y+2
 17486 816a 882F      		mov r24,r24
 17487 816c 90E0      		ldi r25,lo8(0)
 17488 816e 0596      		adiw r24,5
 17489 8170 9C01      		movw r18,r24
 17490 8172 CA01      		movw r24,r20
 17491 8174 B901      		movw r22,r18
 17492 8176 4FEF      		ldi r20,lo8(-1)
 17493 8178 0E94 0000 		call lcd_graphics_plot_pixel
 17494               	.LM2327:
 17495 817c 8981      		ldd r24,Y+1
 17496 817e 882F      		mov r24,r24
 17497 8180 90E0      		ldi r25,lo8(0)
 17498 8182 0C96      		adiw r24,12
 17499 8184 AC01      		movw r20,r24
 17500 8186 8A81      		ldd r24,Y+2
 17501 8188 882F      		mov r24,r24
 17502 818a 90E0      		ldi r25,lo8(0)
 17503 818c 0696      		adiw r24,6
 17504 818e 9C01      		movw r18,r24
 17505 8190 CA01      		movw r24,r20
 17506 8192 B901      		movw r22,r18
 17507 8194 4FEF      		ldi r20,lo8(-1)
 17508 8196 0E94 0000 		call lcd_graphics_plot_pixel
 17509               	.LM2328:
 17510 819a 8981      		ldd r24,Y+1
 17511 819c 882F      		mov r24,r24
 17512 819e 90E0      		ldi r25,lo8(0)
 17513 81a0 0D96      		adiw r24,13
 17514 81a2 AC01      		movw r20,r24
 17515 81a4 8A81      		ldd r24,Y+2
 17516 81a6 882F      		mov r24,r24
 17517 81a8 90E0      		ldi r25,lo8(0)
 17518 81aa 0596      		adiw r24,5
 17519 81ac 9C01      		movw r18,r24
 17520 81ae CA01      		movw r24,r20
 17521 81b0 B901      		movw r22,r18
 17522 81b2 4FEF      		ldi r20,lo8(-1)
 17523 81b4 0E94 0000 		call lcd_graphics_plot_pixel
 17524               	.LM2329:
 17525 81b8 8981      		ldd r24,Y+1
 17526 81ba 882F      		mov r24,r24
 17527 81bc 90E0      		ldi r25,lo8(0)
 17528 81be 0D96      		adiw r24,13
 17529 81c0 AC01      		movw r20,r24
 17530 81c2 8A81      		ldd r24,Y+2
 17531 81c4 882F      		mov r24,r24
 17532 81c6 90E0      		ldi r25,lo8(0)
 17533 81c8 0696      		adiw r24,6
 17534 81ca 9C01      		movw r18,r24
 17535 81cc CA01      		movw r24,r20
 17536 81ce B901      		movw r22,r18
 17537 81d0 4FEF      		ldi r20,lo8(-1)
 17538 81d2 0E94 0000 		call lcd_graphics_plot_pixel
 17539               	.LM2330:
 17540 81d6 8981      		ldd r24,Y+1
 17541 81d8 882F      		mov r24,r24
 17542 81da 90E0      		ldi r25,lo8(0)
 17543 81dc 0E96      		adiw r24,14
 17544 81de AC01      		movw r20,r24
 17545 81e0 8A81      		ldd r24,Y+2
 17546 81e2 882F      		mov r24,r24
 17547 81e4 90E0      		ldi r25,lo8(0)
 17548 81e6 0596      		adiw r24,5
 17549 81e8 9C01      		movw r18,r24
 17550 81ea CA01      		movw r24,r20
 17551 81ec B901      		movw r22,r18
 17552 81ee 4FEF      		ldi r20,lo8(-1)
 17553 81f0 0E94 0000 		call lcd_graphics_plot_pixel
 17554               	.LM2331:
 17555 81f4 8981      		ldd r24,Y+1
 17556 81f6 882F      		mov r24,r24
 17557 81f8 90E0      		ldi r25,lo8(0)
 17558 81fa 0E96      		adiw r24,14
 17559 81fc AC01      		movw r20,r24
 17560 81fe 8A81      		ldd r24,Y+2
 17561 8200 882F      		mov r24,r24
 17562 8202 90E0      		ldi r25,lo8(0)
 17563 8204 0696      		adiw r24,6
 17564 8206 9C01      		movw r18,r24
 17565 8208 CA01      		movw r24,r20
 17566 820a B901      		movw r22,r18
 17567 820c 4FEF      		ldi r20,lo8(-1)
 17568 820e 0E94 0000 		call lcd_graphics_plot_pixel
 17569               	.LM2332:
 17570 8212 8981      		ldd r24,Y+1
 17571 8214 882F      		mov r24,r24
 17572 8216 90E0      		ldi r25,lo8(0)
 17573 8218 0F96      		adiw r24,15
 17574 821a AC01      		movw r20,r24
 17575 821c 8A81      		ldd r24,Y+2
 17576 821e 882F      		mov r24,r24
 17577 8220 90E0      		ldi r25,lo8(0)
 17578 8222 0596      		adiw r24,5
 17579 8224 9C01      		movw r18,r24
 17580 8226 CA01      		movw r24,r20
 17581 8228 B901      		movw r22,r18
 17582 822a 4FEF      		ldi r20,lo8(-1)
 17583 822c 0E94 0000 		call lcd_graphics_plot_pixel
 17584               	.LM2333:
 17585 8230 8981      		ldd r24,Y+1
 17586 8232 882F      		mov r24,r24
 17587 8234 90E0      		ldi r25,lo8(0)
 17588 8236 0F96      		adiw r24,15
 17589 8238 AC01      		movw r20,r24
 17590 823a 8A81      		ldd r24,Y+2
 17591 823c 882F      		mov r24,r24
 17592 823e 90E0      		ldi r25,lo8(0)
 17593 8240 0696      		adiw r24,6
 17594 8242 9C01      		movw r18,r24
 17595 8244 CA01      		movw r24,r20
 17596 8246 B901      		movw r22,r18
 17597 8248 4FEF      		ldi r20,lo8(-1)
 17598 824a 0E94 0000 		call lcd_graphics_plot_pixel
 17599               	.LM2334:
 17600 824e 8981      		ldd r24,Y+1
 17601 8250 882F      		mov r24,r24
 17602 8252 90E0      		ldi r25,lo8(0)
 17603 8254 4096      		adiw r24,16
 17604 8256 AC01      		movw r20,r24
 17605 8258 8A81      		ldd r24,Y+2
 17606 825a 882F      		mov r24,r24
 17607 825c 90E0      		ldi r25,lo8(0)
 17608 825e 0596      		adiw r24,5
 17609 8260 9C01      		movw r18,r24
 17610 8262 CA01      		movw r24,r20
 17611 8264 B901      		movw r22,r18
 17612 8266 4FEF      		ldi r20,lo8(-1)
 17613 8268 0E94 0000 		call lcd_graphics_plot_pixel
 17614               	.LM2335:
 17615 826c 8981      		ldd r24,Y+1
 17616 826e 882F      		mov r24,r24
 17617 8270 90E0      		ldi r25,lo8(0)
 17618 8272 4096      		adiw r24,16
 17619 8274 AC01      		movw r20,r24
 17620 8276 8A81      		ldd r24,Y+2
 17621 8278 882F      		mov r24,r24
 17622 827a 90E0      		ldi r25,lo8(0)
 17623 827c 0696      		adiw r24,6
 17624 827e 9C01      		movw r18,r24
 17625 8280 CA01      		movw r24,r20
 17626 8282 B901      		movw r22,r18
 17627 8284 4FEF      		ldi r20,lo8(-1)
 17628 8286 0E94 0000 		call lcd_graphics_plot_pixel
 17629               	.LM2336:
 17630 828a 8981      		ldd r24,Y+1
 17631 828c 882F      		mov r24,r24
 17632 828e 90E0      		ldi r25,lo8(0)
 17633 8290 4196      		adiw r24,17
 17634 8292 AC01      		movw r20,r24
 17635 8294 8A81      		ldd r24,Y+2
 17636 8296 882F      		mov r24,r24
 17637 8298 90E0      		ldi r25,lo8(0)
 17638 829a 0596      		adiw r24,5
 17639 829c 9C01      		movw r18,r24
 17640 829e CA01      		movw r24,r20
 17641 82a0 B901      		movw r22,r18
 17642 82a2 4FEF      		ldi r20,lo8(-1)
 17643 82a4 0E94 0000 		call lcd_graphics_plot_pixel
 17644               	.LM2337:
 17645 82a8 8981      		ldd r24,Y+1
 17646 82aa 882F      		mov r24,r24
 17647 82ac 90E0      		ldi r25,lo8(0)
 17648 82ae 4196      		adiw r24,17
 17649 82b0 AC01      		movw r20,r24
 17650 82b2 8A81      		ldd r24,Y+2
 17651 82b4 882F      		mov r24,r24
 17652 82b6 90E0      		ldi r25,lo8(0)
 17653 82b8 0696      		adiw r24,6
 17654 82ba 9C01      		movw r18,r24
 17655 82bc CA01      		movw r24,r20
 17656 82be B901      		movw r22,r18
 17657 82c0 4FEF      		ldi r20,lo8(-1)
 17658 82c2 0E94 0000 		call lcd_graphics_plot_pixel
 17659               	.LM2338:
 17660 82c6 8981      		ldd r24,Y+1
 17661 82c8 882F      		mov r24,r24
 17662 82ca 90E0      		ldi r25,lo8(0)
 17663 82cc 4296      		adiw r24,18
 17664 82ce AC01      		movw r20,r24
 17665 82d0 8A81      		ldd r24,Y+2
 17666 82d2 882F      		mov r24,r24
 17667 82d4 90E0      		ldi r25,lo8(0)
 17668 82d6 0496      		adiw r24,4
 17669 82d8 9C01      		movw r18,r24
 17670 82da CA01      		movw r24,r20
 17671 82dc B901      		movw r22,r18
 17672 82de 4FEF      		ldi r20,lo8(-1)
 17673 82e0 0E94 0000 		call lcd_graphics_plot_pixel
 17674               	.LM2339:
 17675 82e4 8981      		ldd r24,Y+1
 17676 82e6 882F      		mov r24,r24
 17677 82e8 90E0      		ldi r25,lo8(0)
 17678 82ea 4296      		adiw r24,18
 17679 82ec AC01      		movw r20,r24
 17680 82ee 8A81      		ldd r24,Y+2
 17681 82f0 882F      		mov r24,r24
 17682 82f2 90E0      		ldi r25,lo8(0)
 17683 82f4 0596      		adiw r24,5
 17684 82f6 9C01      		movw r18,r24
 17685 82f8 CA01      		movw r24,r20
 17686 82fa B901      		movw r22,r18
 17687 82fc 4FEF      		ldi r20,lo8(-1)
 17688 82fe 0E94 0000 		call lcd_graphics_plot_pixel
 17689               	.LM2340:
 17690 8302 8981      		ldd r24,Y+1
 17691 8304 882F      		mov r24,r24
 17692 8306 90E0      		ldi r25,lo8(0)
 17693 8308 4296      		adiw r24,18
 17694 830a AC01      		movw r20,r24
 17695 830c 8A81      		ldd r24,Y+2
 17696 830e 882F      		mov r24,r24
 17697 8310 90E0      		ldi r25,lo8(0)
 17698 8312 0696      		adiw r24,6
 17699 8314 9C01      		movw r18,r24
 17700 8316 CA01      		movw r24,r20
 17701 8318 B901      		movw r22,r18
 17702 831a 4FEF      		ldi r20,lo8(-1)
 17703 831c 0E94 0000 		call lcd_graphics_plot_pixel
 17704               	.LM2341:
 17705 8320 8981      		ldd r24,Y+1
 17706 8322 882F      		mov r24,r24
 17707 8324 90E0      		ldi r25,lo8(0)
 17708 8326 4396      		adiw r24,19
 17709 8328 AC01      		movw r20,r24
 17710 832a 8A81      		ldd r24,Y+2
 17711 832c 882F      		mov r24,r24
 17712 832e 90E0      		ldi r25,lo8(0)
 17713 8330 0496      		adiw r24,4
 17714 8332 9C01      		movw r18,r24
 17715 8334 CA01      		movw r24,r20
 17716 8336 B901      		movw r22,r18
 17717 8338 4FEF      		ldi r20,lo8(-1)
 17718 833a 0E94 0000 		call lcd_graphics_plot_pixel
 17719               	.LM2342:
 17720 833e 8981      		ldd r24,Y+1
 17721 8340 882F      		mov r24,r24
 17722 8342 90E0      		ldi r25,lo8(0)
 17723 8344 4396      		adiw r24,19
 17724 8346 AC01      		movw r20,r24
 17725 8348 8A81      		ldd r24,Y+2
 17726 834a 882F      		mov r24,r24
 17727 834c 90E0      		ldi r25,lo8(0)
 17728 834e 0596      		adiw r24,5
 17729 8350 9C01      		movw r18,r24
 17730 8352 CA01      		movw r24,r20
 17731 8354 B901      		movw r22,r18
 17732 8356 4FEF      		ldi r20,lo8(-1)
 17733 8358 0E94 0000 		call lcd_graphics_plot_pixel
 17734               	.LM2343:
 17735 835c 8981      		ldd r24,Y+1
 17736 835e 882F      		mov r24,r24
 17737 8360 90E0      		ldi r25,lo8(0)
 17738 8362 4396      		adiw r24,19
 17739 8364 AC01      		movw r20,r24
 17740 8366 8A81      		ldd r24,Y+2
 17741 8368 882F      		mov r24,r24
 17742 836a 90E0      		ldi r25,lo8(0)
 17743 836c 0696      		adiw r24,6
 17744 836e 9C01      		movw r18,r24
 17745 8370 CA01      		movw r24,r20
 17746 8372 B901      		movw r22,r18
 17747 8374 4FEF      		ldi r20,lo8(-1)
 17748 8376 0E94 0000 		call lcd_graphics_plot_pixel
 17749               	.LM2344:
 17750 837a 8981      		ldd r24,Y+1
 17751 837c 882F      		mov r24,r24
 17752 837e 90E0      		ldi r25,lo8(0)
 17753 8380 4496      		adiw r24,20
 17754 8382 AC01      		movw r20,r24
 17755 8384 8A81      		ldd r24,Y+2
 17756 8386 882F      		mov r24,r24
 17757 8388 90E0      		ldi r25,lo8(0)
 17758 838a 0496      		adiw r24,4
 17759 838c 9C01      		movw r18,r24
 17760 838e CA01      		movw r24,r20
 17761 8390 B901      		movw r22,r18
 17762 8392 4FEF      		ldi r20,lo8(-1)
 17763 8394 0E94 0000 		call lcd_graphics_plot_pixel
 17764               	.LM2345:
 17765 8398 8981      		ldd r24,Y+1
 17766 839a 882F      		mov r24,r24
 17767 839c 90E0      		ldi r25,lo8(0)
 17768 839e 4496      		adiw r24,20
 17769 83a0 AC01      		movw r20,r24
 17770 83a2 8A81      		ldd r24,Y+2
 17771 83a4 882F      		mov r24,r24
 17772 83a6 90E0      		ldi r25,lo8(0)
 17773 83a8 0596      		adiw r24,5
 17774 83aa 9C01      		movw r18,r24
 17775 83ac CA01      		movw r24,r20
 17776 83ae B901      		movw r22,r18
 17777 83b0 4FEF      		ldi r20,lo8(-1)
 17778 83b2 0E94 0000 		call lcd_graphics_plot_pixel
 17779               	.LM2346:
 17780 83b6 8981      		ldd r24,Y+1
 17781 83b8 882F      		mov r24,r24
 17782 83ba 90E0      		ldi r25,lo8(0)
 17783 83bc 4496      		adiw r24,20
 17784 83be AC01      		movw r20,r24
 17785 83c0 8A81      		ldd r24,Y+2
 17786 83c2 882F      		mov r24,r24
 17787 83c4 90E0      		ldi r25,lo8(0)
 17788 83c6 0696      		adiw r24,6
 17789 83c8 9C01      		movw r18,r24
 17790 83ca CA01      		movw r24,r20
 17791 83cc B901      		movw r22,r18
 17792 83ce 4FEF      		ldi r20,lo8(-1)
 17793 83d0 0E94 0000 		call lcd_graphics_plot_pixel
 17794               	.LM2347:
 17795 83d4 8981      		ldd r24,Y+1
 17796 83d6 882F      		mov r24,r24
 17797 83d8 90E0      		ldi r25,lo8(0)
 17798 83da 4596      		adiw r24,21
 17799 83dc AC01      		movw r20,r24
 17800 83de 8A81      		ldd r24,Y+2
 17801 83e0 882F      		mov r24,r24
 17802 83e2 90E0      		ldi r25,lo8(0)
 17803 83e4 0496      		adiw r24,4
 17804 83e6 9C01      		movw r18,r24
 17805 83e8 CA01      		movw r24,r20
 17806 83ea B901      		movw r22,r18
 17807 83ec 4FEF      		ldi r20,lo8(-1)
 17808 83ee 0E94 0000 		call lcd_graphics_plot_pixel
 17809               	.LM2348:
 17810 83f2 8981      		ldd r24,Y+1
 17811 83f4 882F      		mov r24,r24
 17812 83f6 90E0      		ldi r25,lo8(0)
 17813 83f8 4596      		adiw r24,21
 17814 83fa AC01      		movw r20,r24
 17815 83fc 8A81      		ldd r24,Y+2
 17816 83fe 882F      		mov r24,r24
 17817 8400 90E0      		ldi r25,lo8(0)
 17818 8402 0596      		adiw r24,5
 17819 8404 9C01      		movw r18,r24
 17820 8406 CA01      		movw r24,r20
 17821 8408 B901      		movw r22,r18
 17822 840a 4FEF      		ldi r20,lo8(-1)
 17823 840c 0E94 0000 		call lcd_graphics_plot_pixel
 17824               	.LM2349:
 17825 8410 8981      		ldd r24,Y+1
 17826 8412 882F      		mov r24,r24
 17827 8414 90E0      		ldi r25,lo8(0)
 17828 8416 4696      		adiw r24,22
 17829 8418 AC01      		movw r20,r24
 17830 841a 8A81      		ldd r24,Y+2
 17831 841c 882F      		mov r24,r24
 17832 841e 90E0      		ldi r25,lo8(0)
 17833 8420 0396      		adiw r24,3
 17834 8422 9C01      		movw r18,r24
 17835 8424 CA01      		movw r24,r20
 17836 8426 B901      		movw r22,r18
 17837 8428 4FEF      		ldi r20,lo8(-1)
 17838 842a 0E94 0000 		call lcd_graphics_plot_pixel
 17839               	.LM2350:
 17840 842e 8981      		ldd r24,Y+1
 17841 8430 882F      		mov r24,r24
 17842 8432 90E0      		ldi r25,lo8(0)
 17843 8434 4696      		adiw r24,22
 17844 8436 AC01      		movw r20,r24
 17845 8438 8A81      		ldd r24,Y+2
 17846 843a 882F      		mov r24,r24
 17847 843c 90E0      		ldi r25,lo8(0)
 17848 843e 0496      		adiw r24,4
 17849 8440 9C01      		movw r18,r24
 17850 8442 CA01      		movw r24,r20
 17851 8444 B901      		movw r22,r18
 17852 8446 4FEF      		ldi r20,lo8(-1)
 17853 8448 0E94 0000 		call lcd_graphics_plot_pixel
 17854               	.LM2351:
 17855 844c 8981      		ldd r24,Y+1
 17856 844e 882F      		mov r24,r24
 17857 8450 90E0      		ldi r25,lo8(0)
 17858 8452 4696      		adiw r24,22
 17859 8454 AC01      		movw r20,r24
 17860 8456 8A81      		ldd r24,Y+2
 17861 8458 882F      		mov r24,r24
 17862 845a 90E0      		ldi r25,lo8(0)
 17863 845c 0596      		adiw r24,5
 17864 845e 9C01      		movw r18,r24
 17865 8460 CA01      		movw r24,r20
 17866 8462 B901      		movw r22,r18
 17867 8464 4FEF      		ldi r20,lo8(-1)
 17868 8466 0E94 0000 		call lcd_graphics_plot_pixel
 17869               	.LM2352:
 17870 846a 8981      		ldd r24,Y+1
 17871 846c 882F      		mov r24,r24
 17872 846e 90E0      		ldi r25,lo8(0)
 17873 8470 4796      		adiw r24,23
 17874 8472 AC01      		movw r20,r24
 17875 8474 8A81      		ldd r24,Y+2
 17876 8476 882F      		mov r24,r24
 17877 8478 90E0      		ldi r25,lo8(0)
 17878 847a 0396      		adiw r24,3
 17879 847c 9C01      		movw r18,r24
 17880 847e CA01      		movw r24,r20
 17881 8480 B901      		movw r22,r18
 17882 8482 4FEF      		ldi r20,lo8(-1)
 17883 8484 0E94 0000 		call lcd_graphics_plot_pixel
 17884               	.LM2353:
 17885 8488 8981      		ldd r24,Y+1
 17886 848a 882F      		mov r24,r24
 17887 848c 90E0      		ldi r25,lo8(0)
 17888 848e 4796      		adiw r24,23
 17889 8490 AC01      		movw r20,r24
 17890 8492 8A81      		ldd r24,Y+2
 17891 8494 882F      		mov r24,r24
 17892 8496 90E0      		ldi r25,lo8(0)
 17893 8498 0496      		adiw r24,4
 17894 849a 9C01      		movw r18,r24
 17895 849c CA01      		movw r24,r20
 17896 849e B901      		movw r22,r18
 17897 84a0 4FEF      		ldi r20,lo8(-1)
 17898 84a2 0E94 0000 		call lcd_graphics_plot_pixel
 17899               	.LM2354:
 17900 84a6 8981      		ldd r24,Y+1
 17901 84a8 882F      		mov r24,r24
 17902 84aa 90E0      		ldi r25,lo8(0)
 17903 84ac 4896      		adiw r24,24
 17904 84ae AC01      		movw r20,r24
 17905 84b0 8A81      		ldd r24,Y+2
 17906 84b2 882F      		mov r24,r24
 17907 84b4 90E0      		ldi r25,lo8(0)
 17908 84b6 0396      		adiw r24,3
 17909 84b8 9C01      		movw r18,r24
 17910 84ba CA01      		movw r24,r20
 17911 84bc B901      		movw r22,r18
 17912 84be 4FEF      		ldi r20,lo8(-1)
 17913 84c0 0E94 0000 		call lcd_graphics_plot_pixel
 17914               	.LM2355:
 17915 84c4 8981      		ldd r24,Y+1
 17916 84c6 882F      		mov r24,r24
 17917 84c8 90E0      		ldi r25,lo8(0)
 17918 84ca 4896      		adiw r24,24
 17919 84cc AC01      		movw r20,r24
 17920 84ce 8A81      		ldd r24,Y+2
 17921 84d0 882F      		mov r24,r24
 17922 84d2 90E0      		ldi r25,lo8(0)
 17923 84d4 0496      		adiw r24,4
 17924 84d6 9C01      		movw r18,r24
 17925 84d8 CA01      		movw r24,r20
 17926 84da B901      		movw r22,r18
 17927 84dc 4FEF      		ldi r20,lo8(-1)
 17928 84de 0E94 0000 		call lcd_graphics_plot_pixel
 17929               	.LM2356:
 17930 84e2 8981      		ldd r24,Y+1
 17931 84e4 882F      		mov r24,r24
 17932 84e6 90E0      		ldi r25,lo8(0)
 17933 84e8 4996      		adiw r24,25
 17934 84ea AC01      		movw r20,r24
 17935 84ec 8A81      		ldd r24,Y+2
 17936 84ee 882F      		mov r24,r24
 17937 84f0 90E0      		ldi r25,lo8(0)
 17938 84f2 0296      		adiw r24,2
 17939 84f4 9C01      		movw r18,r24
 17940 84f6 CA01      		movw r24,r20
 17941 84f8 B901      		movw r22,r18
 17942 84fa 4FEF      		ldi r20,lo8(-1)
 17943 84fc 0E94 0000 		call lcd_graphics_plot_pixel
 17944               	.LM2357:
 17945 8500 8981      		ldd r24,Y+1
 17946 8502 882F      		mov r24,r24
 17947 8504 90E0      		ldi r25,lo8(0)
 17948 8506 4996      		adiw r24,25
 17949 8508 AC01      		movw r20,r24
 17950 850a 8A81      		ldd r24,Y+2
 17951 850c 882F      		mov r24,r24
 17952 850e 90E0      		ldi r25,lo8(0)
 17953 8510 0396      		adiw r24,3
 17954 8512 9C01      		movw r18,r24
 17955 8514 CA01      		movw r24,r20
 17956 8516 B901      		movw r22,r18
 17957 8518 4FEF      		ldi r20,lo8(-1)
 17958 851a 0E94 0000 		call lcd_graphics_plot_pixel
 17959               	.LM2358:
 17960 851e 8981      		ldd r24,Y+1
 17961 8520 882F      		mov r24,r24
 17962 8522 90E0      		ldi r25,lo8(0)
 17963 8524 4A96      		adiw r24,26
 17964 8526 AC01      		movw r20,r24
 17965 8528 8A81      		ldd r24,Y+2
 17966 852a 882F      		mov r24,r24
 17967 852c 90E0      		ldi r25,lo8(0)
 17968 852e 0196      		adiw r24,1
 17969 8530 9C01      		movw r18,r24
 17970 8532 CA01      		movw r24,r20
 17971 8534 B901      		movw r22,r18
 17972 8536 4FEF      		ldi r20,lo8(-1)
 17973 8538 0E94 0000 		call lcd_graphics_plot_pixel
 17974               	.LM2359:
 17975 853c 8981      		ldd r24,Y+1
 17976 853e 882F      		mov r24,r24
 17977 8540 90E0      		ldi r25,lo8(0)
 17978 8542 4A96      		adiw r24,26
 17979 8544 AC01      		movw r20,r24
 17980 8546 8A81      		ldd r24,Y+2
 17981 8548 882F      		mov r24,r24
 17982 854a 90E0      		ldi r25,lo8(0)
 17983 854c 0296      		adiw r24,2
 17984 854e 9C01      		movw r18,r24
 17985 8550 CA01      		movw r24,r20
 17986 8552 B901      		movw r22,r18
 17987 8554 4FEF      		ldi r20,lo8(-1)
 17988 8556 0E94 0000 		call lcd_graphics_plot_pixel
 17989               	/* epilogue start */
 17990               	.LM2360:
 17991 855a 0F90      		pop __tmp_reg__
 17992 855c 0F90      		pop __tmp_reg__
 17993 855e CF91      		pop r28
 17994 8560 DF91      		pop r29
 17995 8562 0895      		ret
 17996               	.LFE22:
 17998               	.global	delete_bar
 18000               	delete_bar:
 18001               	.LFB23:
 18002               	.LM2361:
 18003 8564 DF93      		push r29
 18004 8566 CF93      		push r28
 18005 8568 00D0      		rcall .
 18006 856a CDB7      		in r28,__SP_L__
 18007 856c DEB7      		in r29,__SP_H__
 18008               	/* prologue: function */
 18009               	/* frame size = 2 */
 18010 856e 8983      		std Y+1,r24
 18011 8570 6A83      		std Y+2,r22
 18012               	.LM2362:
 18013 8572 8981      		ldd r24,Y+1
 18014 8574 882F      		mov r24,r24
 18015 8576 90E0      		ldi r25,lo8(0)
 18016 8578 0196      		adiw r24,1
 18017 857a AC01      		movw r20,r24
 18018 857c 8A81      		ldd r24,Y+2
 18019 857e 882F      		mov r24,r24
 18020 8580 90E0      		ldi r25,lo8(0)
 18021 8582 0196      		adiw r24,1
 18022 8584 9C01      		movw r18,r24
 18023 8586 CA01      		movw r24,r20
 18024 8588 B901      		movw r22,r18
 18025 858a 40E0      		ldi r20,lo8(0)
 18026 858c 0E94 0000 		call lcd_graphics_plot_pixel
 18027               	.LM2363:
 18028 8590 8981      		ldd r24,Y+1
 18029 8592 882F      		mov r24,r24
 18030 8594 90E0      		ldi r25,lo8(0)
 18031 8596 0196      		adiw r24,1
 18032 8598 AC01      		movw r20,r24
 18033 859a 8A81      		ldd r24,Y+2
 18034 859c 882F      		mov r24,r24
 18035 859e 90E0      		ldi r25,lo8(0)
 18036 85a0 0296      		adiw r24,2
 18037 85a2 9C01      		movw r18,r24
 18038 85a4 CA01      		movw r24,r20
 18039 85a6 B901      		movw r22,r18
 18040 85a8 40E0      		ldi r20,lo8(0)
 18041 85aa 0E94 0000 		call lcd_graphics_plot_pixel
 18042               	.LM2364:
 18043 85ae 8981      		ldd r24,Y+1
 18044 85b0 882F      		mov r24,r24
 18045 85b2 90E0      		ldi r25,lo8(0)
 18046 85b4 0296      		adiw r24,2
 18047 85b6 AC01      		movw r20,r24
 18048 85b8 8A81      		ldd r24,Y+2
 18049 85ba 882F      		mov r24,r24
 18050 85bc 90E0      		ldi r25,lo8(0)
 18051 85be 0296      		adiw r24,2
 18052 85c0 9C01      		movw r18,r24
 18053 85c2 CA01      		movw r24,r20
 18054 85c4 B901      		movw r22,r18
 18055 85c6 40E0      		ldi r20,lo8(0)
 18056 85c8 0E94 0000 		call lcd_graphics_plot_pixel
 18057               	.LM2365:
 18058 85cc 8981      		ldd r24,Y+1
 18059 85ce 882F      		mov r24,r24
 18060 85d0 90E0      		ldi r25,lo8(0)
 18061 85d2 0296      		adiw r24,2
 18062 85d4 AC01      		movw r20,r24
 18063 85d6 8A81      		ldd r24,Y+2
 18064 85d8 882F      		mov r24,r24
 18065 85da 90E0      		ldi r25,lo8(0)
 18066 85dc 0396      		adiw r24,3
 18067 85de 9C01      		movw r18,r24
 18068 85e0 CA01      		movw r24,r20
 18069 85e2 B901      		movw r22,r18
 18070 85e4 40E0      		ldi r20,lo8(0)
 18071 85e6 0E94 0000 		call lcd_graphics_plot_pixel
 18072               	.LM2366:
 18073 85ea 8981      		ldd r24,Y+1
 18074 85ec 882F      		mov r24,r24
 18075 85ee 90E0      		ldi r25,lo8(0)
 18076 85f0 0396      		adiw r24,3
 18077 85f2 AC01      		movw r20,r24
 18078 85f4 8A81      		ldd r24,Y+2
 18079 85f6 882F      		mov r24,r24
 18080 85f8 90E0      		ldi r25,lo8(0)
 18081 85fa 0396      		adiw r24,3
 18082 85fc 9C01      		movw r18,r24
 18083 85fe CA01      		movw r24,r20
 18084 8600 B901      		movw r22,r18
 18085 8602 40E0      		ldi r20,lo8(0)
 18086 8604 0E94 0000 		call lcd_graphics_plot_pixel
 18087               	.LM2367:
 18088 8608 8981      		ldd r24,Y+1
 18089 860a 882F      		mov r24,r24
 18090 860c 90E0      		ldi r25,lo8(0)
 18091 860e 0396      		adiw r24,3
 18092 8610 AC01      		movw r20,r24
 18093 8612 8A81      		ldd r24,Y+2
 18094 8614 882F      		mov r24,r24
 18095 8616 90E0      		ldi r25,lo8(0)
 18096 8618 0496      		adiw r24,4
 18097 861a 9C01      		movw r18,r24
 18098 861c CA01      		movw r24,r20
 18099 861e B901      		movw r22,r18
 18100 8620 40E0      		ldi r20,lo8(0)
 18101 8622 0E94 0000 		call lcd_graphics_plot_pixel
 18102               	.LM2368:
 18103 8626 8981      		ldd r24,Y+1
 18104 8628 882F      		mov r24,r24
 18105 862a 90E0      		ldi r25,lo8(0)
 18106 862c 0496      		adiw r24,4
 18107 862e AC01      		movw r20,r24
 18108 8630 8A81      		ldd r24,Y+2
 18109 8632 882F      		mov r24,r24
 18110 8634 90E0      		ldi r25,lo8(0)
 18111 8636 0396      		adiw r24,3
 18112 8638 9C01      		movw r18,r24
 18113 863a CA01      		movw r24,r20
 18114 863c B901      		movw r22,r18
 18115 863e 40E0      		ldi r20,lo8(0)
 18116 8640 0E94 0000 		call lcd_graphics_plot_pixel
 18117               	.LM2369:
 18118 8644 8981      		ldd r24,Y+1
 18119 8646 882F      		mov r24,r24
 18120 8648 90E0      		ldi r25,lo8(0)
 18121 864a 0496      		adiw r24,4
 18122 864c AC01      		movw r20,r24
 18123 864e 8A81      		ldd r24,Y+2
 18124 8650 882F      		mov r24,r24
 18125 8652 90E0      		ldi r25,lo8(0)
 18126 8654 0496      		adiw r24,4
 18127 8656 9C01      		movw r18,r24
 18128 8658 CA01      		movw r24,r20
 18129 865a B901      		movw r22,r18
 18130 865c 40E0      		ldi r20,lo8(0)
 18131 865e 0E94 0000 		call lcd_graphics_plot_pixel
 18132               	.LM2370:
 18133 8662 8981      		ldd r24,Y+1
 18134 8664 882F      		mov r24,r24
 18135 8666 90E0      		ldi r25,lo8(0)
 18136 8668 0596      		adiw r24,5
 18137 866a AC01      		movw r20,r24
 18138 866c 8A81      		ldd r24,Y+2
 18139 866e 882F      		mov r24,r24
 18140 8670 90E0      		ldi r25,lo8(0)
 18141 8672 0396      		adiw r24,3
 18142 8674 9C01      		movw r18,r24
 18143 8676 CA01      		movw r24,r20
 18144 8678 B901      		movw r22,r18
 18145 867a 40E0      		ldi r20,lo8(0)
 18146 867c 0E94 0000 		call lcd_graphics_plot_pixel
 18147               	.LM2371:
 18148 8680 8981      		ldd r24,Y+1
 18149 8682 882F      		mov r24,r24
 18150 8684 90E0      		ldi r25,lo8(0)
 18151 8686 0596      		adiw r24,5
 18152 8688 AC01      		movw r20,r24
 18153 868a 8A81      		ldd r24,Y+2
 18154 868c 882F      		mov r24,r24
 18155 868e 90E0      		ldi r25,lo8(0)
 18156 8690 0496      		adiw r24,4
 18157 8692 9C01      		movw r18,r24
 18158 8694 CA01      		movw r24,r20
 18159 8696 B901      		movw r22,r18
 18160 8698 40E0      		ldi r20,lo8(0)
 18161 869a 0E94 0000 		call lcd_graphics_plot_pixel
 18162               	.LM2372:
 18163 869e 8981      		ldd r24,Y+1
 18164 86a0 882F      		mov r24,r24
 18165 86a2 90E0      		ldi r25,lo8(0)
 18166 86a4 0596      		adiw r24,5
 18167 86a6 AC01      		movw r20,r24
 18168 86a8 8A81      		ldd r24,Y+2
 18169 86aa 882F      		mov r24,r24
 18170 86ac 90E0      		ldi r25,lo8(0)
 18171 86ae 0596      		adiw r24,5
 18172 86b0 9C01      		movw r18,r24
 18173 86b2 CA01      		movw r24,r20
 18174 86b4 B901      		movw r22,r18
 18175 86b6 40E0      		ldi r20,lo8(0)
 18176 86b8 0E94 0000 		call lcd_graphics_plot_pixel
 18177               	.LM2373:
 18178 86bc 8981      		ldd r24,Y+1
 18179 86be 882F      		mov r24,r24
 18180 86c0 90E0      		ldi r25,lo8(0)
 18181 86c2 0696      		adiw r24,6
 18182 86c4 AC01      		movw r20,r24
 18183 86c6 8A81      		ldd r24,Y+2
 18184 86c8 882F      		mov r24,r24
 18185 86ca 90E0      		ldi r25,lo8(0)
 18186 86cc 0496      		adiw r24,4
 18187 86ce 9C01      		movw r18,r24
 18188 86d0 CA01      		movw r24,r20
 18189 86d2 B901      		movw r22,r18
 18190 86d4 40E0      		ldi r20,lo8(0)
 18191 86d6 0E94 0000 		call lcd_graphics_plot_pixel
 18192               	.LM2374:
 18193 86da 8981      		ldd r24,Y+1
 18194 86dc 882F      		mov r24,r24
 18195 86de 90E0      		ldi r25,lo8(0)
 18196 86e0 0696      		adiw r24,6
 18197 86e2 AC01      		movw r20,r24
 18198 86e4 8A81      		ldd r24,Y+2
 18199 86e6 882F      		mov r24,r24
 18200 86e8 90E0      		ldi r25,lo8(0)
 18201 86ea 0596      		adiw r24,5
 18202 86ec 9C01      		movw r18,r24
 18203 86ee CA01      		movw r24,r20
 18204 86f0 B901      		movw r22,r18
 18205 86f2 40E0      		ldi r20,lo8(0)
 18206 86f4 0E94 0000 		call lcd_graphics_plot_pixel
 18207               	.LM2375:
 18208 86f8 8981      		ldd r24,Y+1
 18209 86fa 882F      		mov r24,r24
 18210 86fc 90E0      		ldi r25,lo8(0)
 18211 86fe 0796      		adiw r24,7
 18212 8700 AC01      		movw r20,r24
 18213 8702 8A81      		ldd r24,Y+2
 18214 8704 882F      		mov r24,r24
 18215 8706 90E0      		ldi r25,lo8(0)
 18216 8708 0496      		adiw r24,4
 18217 870a 9C01      		movw r18,r24
 18218 870c CA01      		movw r24,r20
 18219 870e B901      		movw r22,r18
 18220 8710 40E0      		ldi r20,lo8(0)
 18221 8712 0E94 0000 		call lcd_graphics_plot_pixel
 18222               	.LM2376:
 18223 8716 8981      		ldd r24,Y+1
 18224 8718 882F      		mov r24,r24
 18225 871a 90E0      		ldi r25,lo8(0)
 18226 871c 0796      		adiw r24,7
 18227 871e AC01      		movw r20,r24
 18228 8720 8A81      		ldd r24,Y+2
 18229 8722 882F      		mov r24,r24
 18230 8724 90E0      		ldi r25,lo8(0)
 18231 8726 0596      		adiw r24,5
 18232 8728 9C01      		movw r18,r24
 18233 872a CA01      		movw r24,r20
 18234 872c B901      		movw r22,r18
 18235 872e 40E0      		ldi r20,lo8(0)
 18236 8730 0E94 0000 		call lcd_graphics_plot_pixel
 18237               	.LM2377:
 18238 8734 8981      		ldd r24,Y+1
 18239 8736 882F      		mov r24,r24
 18240 8738 90E0      		ldi r25,lo8(0)
 18241 873a 0796      		adiw r24,7
 18242 873c AC01      		movw r20,r24
 18243 873e 8A81      		ldd r24,Y+2
 18244 8740 882F      		mov r24,r24
 18245 8742 90E0      		ldi r25,lo8(0)
 18246 8744 0696      		adiw r24,6
 18247 8746 9C01      		movw r18,r24
 18248 8748 CA01      		movw r24,r20
 18249 874a B901      		movw r22,r18
 18250 874c 40E0      		ldi r20,lo8(0)
 18251 874e 0E94 0000 		call lcd_graphics_plot_pixel
 18252               	.LM2378:
 18253 8752 8981      		ldd r24,Y+1
 18254 8754 882F      		mov r24,r24
 18255 8756 90E0      		ldi r25,lo8(0)
 18256 8758 0896      		adiw r24,8
 18257 875a AC01      		movw r20,r24
 18258 875c 8A81      		ldd r24,Y+2
 18259 875e 882F      		mov r24,r24
 18260 8760 90E0      		ldi r25,lo8(0)
 18261 8762 0496      		adiw r24,4
 18262 8764 9C01      		movw r18,r24
 18263 8766 CA01      		movw r24,r20
 18264 8768 B901      		movw r22,r18
 18265 876a 40E0      		ldi r20,lo8(0)
 18266 876c 0E94 0000 		call lcd_graphics_plot_pixel
 18267               	.LM2379:
 18268 8770 8981      		ldd r24,Y+1
 18269 8772 882F      		mov r24,r24
 18270 8774 90E0      		ldi r25,lo8(0)
 18271 8776 0896      		adiw r24,8
 18272 8778 AC01      		movw r20,r24
 18273 877a 8A81      		ldd r24,Y+2
 18274 877c 882F      		mov r24,r24
 18275 877e 90E0      		ldi r25,lo8(0)
 18276 8780 0596      		adiw r24,5
 18277 8782 9C01      		movw r18,r24
 18278 8784 CA01      		movw r24,r20
 18279 8786 B901      		movw r22,r18
 18280 8788 40E0      		ldi r20,lo8(0)
 18281 878a 0E94 0000 		call lcd_graphics_plot_pixel
 18282               	.LM2380:
 18283 878e 8981      		ldd r24,Y+1
 18284 8790 882F      		mov r24,r24
 18285 8792 90E0      		ldi r25,lo8(0)
 18286 8794 0896      		adiw r24,8
 18287 8796 AC01      		movw r20,r24
 18288 8798 8A81      		ldd r24,Y+2
 18289 879a 882F      		mov r24,r24
 18290 879c 90E0      		ldi r25,lo8(0)
 18291 879e 0696      		adiw r24,6
 18292 87a0 9C01      		movw r18,r24
 18293 87a2 CA01      		movw r24,r20
 18294 87a4 B901      		movw r22,r18
 18295 87a6 40E0      		ldi r20,lo8(0)
 18296 87a8 0E94 0000 		call lcd_graphics_plot_pixel
 18297               	.LM2381:
 18298 87ac 8981      		ldd r24,Y+1
 18299 87ae 882F      		mov r24,r24
 18300 87b0 90E0      		ldi r25,lo8(0)
 18301 87b2 0996      		adiw r24,9
 18302 87b4 AC01      		movw r20,r24
 18303 87b6 8A81      		ldd r24,Y+2
 18304 87b8 882F      		mov r24,r24
 18305 87ba 90E0      		ldi r25,lo8(0)
 18306 87bc 0496      		adiw r24,4
 18307 87be 9C01      		movw r18,r24
 18308 87c0 CA01      		movw r24,r20
 18309 87c2 B901      		movw r22,r18
 18310 87c4 40E0      		ldi r20,lo8(0)
 18311 87c6 0E94 0000 		call lcd_graphics_plot_pixel
 18312               	.LM2382:
 18313 87ca 8981      		ldd r24,Y+1
 18314 87cc 882F      		mov r24,r24
 18315 87ce 90E0      		ldi r25,lo8(0)
 18316 87d0 0996      		adiw r24,9
 18317 87d2 AC01      		movw r20,r24
 18318 87d4 8A81      		ldd r24,Y+2
 18319 87d6 882F      		mov r24,r24
 18320 87d8 90E0      		ldi r25,lo8(0)
 18321 87da 0596      		adiw r24,5
 18322 87dc 9C01      		movw r18,r24
 18323 87de CA01      		movw r24,r20
 18324 87e0 B901      		movw r22,r18
 18325 87e2 40E0      		ldi r20,lo8(0)
 18326 87e4 0E94 0000 		call lcd_graphics_plot_pixel
 18327               	.LM2383:
 18328 87e8 8981      		ldd r24,Y+1
 18329 87ea 882F      		mov r24,r24
 18330 87ec 90E0      		ldi r25,lo8(0)
 18331 87ee 0996      		adiw r24,9
 18332 87f0 AC01      		movw r20,r24
 18333 87f2 8A81      		ldd r24,Y+2
 18334 87f4 882F      		mov r24,r24
 18335 87f6 90E0      		ldi r25,lo8(0)
 18336 87f8 0696      		adiw r24,6
 18337 87fa 9C01      		movw r18,r24
 18338 87fc CA01      		movw r24,r20
 18339 87fe B901      		movw r22,r18
 18340 8800 40E0      		ldi r20,lo8(0)
 18341 8802 0E94 0000 		call lcd_graphics_plot_pixel
 18342               	.LM2384:
 18343 8806 8981      		ldd r24,Y+1
 18344 8808 882F      		mov r24,r24
 18345 880a 90E0      		ldi r25,lo8(0)
 18346 880c 0A96      		adiw r24,10
 18347 880e AC01      		movw r20,r24
 18348 8810 8A81      		ldd r24,Y+2
 18349 8812 882F      		mov r24,r24
 18350 8814 90E0      		ldi r25,lo8(0)
 18351 8816 0596      		adiw r24,5
 18352 8818 9C01      		movw r18,r24
 18353 881a CA01      		movw r24,r20
 18354 881c B901      		movw r22,r18
 18355 881e 40E0      		ldi r20,lo8(0)
 18356 8820 0E94 0000 		call lcd_graphics_plot_pixel
 18357               	.LM2385:
 18358 8824 8981      		ldd r24,Y+1
 18359 8826 882F      		mov r24,r24
 18360 8828 90E0      		ldi r25,lo8(0)
 18361 882a 0A96      		adiw r24,10
 18362 882c AC01      		movw r20,r24
 18363 882e 8A81      		ldd r24,Y+2
 18364 8830 882F      		mov r24,r24
 18365 8832 90E0      		ldi r25,lo8(0)
 18366 8834 0696      		adiw r24,6
 18367 8836 9C01      		movw r18,r24
 18368 8838 CA01      		movw r24,r20
 18369 883a B901      		movw r22,r18
 18370 883c 40E0      		ldi r20,lo8(0)
 18371 883e 0E94 0000 		call lcd_graphics_plot_pixel
 18372               	.LM2386:
 18373 8842 8981      		ldd r24,Y+1
 18374 8844 882F      		mov r24,r24
 18375 8846 90E0      		ldi r25,lo8(0)
 18376 8848 0B96      		adiw r24,11
 18377 884a AC01      		movw r20,r24
 18378 884c 8A81      		ldd r24,Y+2
 18379 884e 882F      		mov r24,r24
 18380 8850 90E0      		ldi r25,lo8(0)
 18381 8852 0596      		adiw r24,5
 18382 8854 9C01      		movw r18,r24
 18383 8856 CA01      		movw r24,r20
 18384 8858 B901      		movw r22,r18
 18385 885a 40E0      		ldi r20,lo8(0)
 18386 885c 0E94 0000 		call lcd_graphics_plot_pixel
 18387               	.LM2387:
 18388 8860 8981      		ldd r24,Y+1
 18389 8862 882F      		mov r24,r24
 18390 8864 90E0      		ldi r25,lo8(0)
 18391 8866 0B96      		adiw r24,11
 18392 8868 AC01      		movw r20,r24
 18393 886a 8A81      		ldd r24,Y+2
 18394 886c 882F      		mov r24,r24
 18395 886e 90E0      		ldi r25,lo8(0)
 18396 8870 0696      		adiw r24,6
 18397 8872 9C01      		movw r18,r24
 18398 8874 CA01      		movw r24,r20
 18399 8876 B901      		movw r22,r18
 18400 8878 40E0      		ldi r20,lo8(0)
 18401 887a 0E94 0000 		call lcd_graphics_plot_pixel
 18402               	.LM2388:
 18403 887e 8981      		ldd r24,Y+1
 18404 8880 882F      		mov r24,r24
 18405 8882 90E0      		ldi r25,lo8(0)
 18406 8884 0C96      		adiw r24,12
 18407 8886 AC01      		movw r20,r24
 18408 8888 8A81      		ldd r24,Y+2
 18409 888a 882F      		mov r24,r24
 18410 888c 90E0      		ldi r25,lo8(0)
 18411 888e 0596      		adiw r24,5
 18412 8890 9C01      		movw r18,r24
 18413 8892 CA01      		movw r24,r20
 18414 8894 B901      		movw r22,r18
 18415 8896 40E0      		ldi r20,lo8(0)
 18416 8898 0E94 0000 		call lcd_graphics_plot_pixel
 18417               	.LM2389:
 18418 889c 8981      		ldd r24,Y+1
 18419 889e 882F      		mov r24,r24
 18420 88a0 90E0      		ldi r25,lo8(0)
 18421 88a2 0C96      		adiw r24,12
 18422 88a4 AC01      		movw r20,r24
 18423 88a6 8A81      		ldd r24,Y+2
 18424 88a8 882F      		mov r24,r24
 18425 88aa 90E0      		ldi r25,lo8(0)
 18426 88ac 0696      		adiw r24,6
 18427 88ae 9C01      		movw r18,r24
 18428 88b0 CA01      		movw r24,r20
 18429 88b2 B901      		movw r22,r18
 18430 88b4 40E0      		ldi r20,lo8(0)
 18431 88b6 0E94 0000 		call lcd_graphics_plot_pixel
 18432               	.LM2390:
 18433 88ba 8981      		ldd r24,Y+1
 18434 88bc 882F      		mov r24,r24
 18435 88be 90E0      		ldi r25,lo8(0)
 18436 88c0 0D96      		adiw r24,13
 18437 88c2 AC01      		movw r20,r24
 18438 88c4 8A81      		ldd r24,Y+2
 18439 88c6 882F      		mov r24,r24
 18440 88c8 90E0      		ldi r25,lo8(0)
 18441 88ca 0596      		adiw r24,5
 18442 88cc 9C01      		movw r18,r24
 18443 88ce CA01      		movw r24,r20
 18444 88d0 B901      		movw r22,r18
 18445 88d2 40E0      		ldi r20,lo8(0)
 18446 88d4 0E94 0000 		call lcd_graphics_plot_pixel
 18447               	.LM2391:
 18448 88d8 8981      		ldd r24,Y+1
 18449 88da 882F      		mov r24,r24
 18450 88dc 90E0      		ldi r25,lo8(0)
 18451 88de 0D96      		adiw r24,13
 18452 88e0 AC01      		movw r20,r24
 18453 88e2 8A81      		ldd r24,Y+2
 18454 88e4 882F      		mov r24,r24
 18455 88e6 90E0      		ldi r25,lo8(0)
 18456 88e8 0696      		adiw r24,6
 18457 88ea 9C01      		movw r18,r24
 18458 88ec CA01      		movw r24,r20
 18459 88ee B901      		movw r22,r18
 18460 88f0 40E0      		ldi r20,lo8(0)
 18461 88f2 0E94 0000 		call lcd_graphics_plot_pixel
 18462               	.LM2392:
 18463 88f6 8981      		ldd r24,Y+1
 18464 88f8 882F      		mov r24,r24
 18465 88fa 90E0      		ldi r25,lo8(0)
 18466 88fc 0E96      		adiw r24,14
 18467 88fe AC01      		movw r20,r24
 18468 8900 8A81      		ldd r24,Y+2
 18469 8902 882F      		mov r24,r24
 18470 8904 90E0      		ldi r25,lo8(0)
 18471 8906 0596      		adiw r24,5
 18472 8908 9C01      		movw r18,r24
 18473 890a CA01      		movw r24,r20
 18474 890c B901      		movw r22,r18
 18475 890e 40E0      		ldi r20,lo8(0)
 18476 8910 0E94 0000 		call lcd_graphics_plot_pixel
 18477               	.LM2393:
 18478 8914 8981      		ldd r24,Y+1
 18479 8916 882F      		mov r24,r24
 18480 8918 90E0      		ldi r25,lo8(0)
 18481 891a 0E96      		adiw r24,14
 18482 891c AC01      		movw r20,r24
 18483 891e 8A81      		ldd r24,Y+2
 18484 8920 882F      		mov r24,r24
 18485 8922 90E0      		ldi r25,lo8(0)
 18486 8924 0696      		adiw r24,6
 18487 8926 9C01      		movw r18,r24
 18488 8928 CA01      		movw r24,r20
 18489 892a B901      		movw r22,r18
 18490 892c 40E0      		ldi r20,lo8(0)
 18491 892e 0E94 0000 		call lcd_graphics_plot_pixel
 18492               	.LM2394:
 18493 8932 8981      		ldd r24,Y+1
 18494 8934 882F      		mov r24,r24
 18495 8936 90E0      		ldi r25,lo8(0)
 18496 8938 0F96      		adiw r24,15
 18497 893a AC01      		movw r20,r24
 18498 893c 8A81      		ldd r24,Y+2
 18499 893e 882F      		mov r24,r24
 18500 8940 90E0      		ldi r25,lo8(0)
 18501 8942 0596      		adiw r24,5
 18502 8944 9C01      		movw r18,r24
 18503 8946 CA01      		movw r24,r20
 18504 8948 B901      		movw r22,r18
 18505 894a 40E0      		ldi r20,lo8(0)
 18506 894c 0E94 0000 		call lcd_graphics_plot_pixel
 18507               	.LM2395:
 18508 8950 8981      		ldd r24,Y+1
 18509 8952 882F      		mov r24,r24
 18510 8954 90E0      		ldi r25,lo8(0)
 18511 8956 0F96      		adiw r24,15
 18512 8958 AC01      		movw r20,r24
 18513 895a 8A81      		ldd r24,Y+2
 18514 895c 882F      		mov r24,r24
 18515 895e 90E0      		ldi r25,lo8(0)
 18516 8960 0696      		adiw r24,6
 18517 8962 9C01      		movw r18,r24
 18518 8964 CA01      		movw r24,r20
 18519 8966 B901      		movw r22,r18
 18520 8968 40E0      		ldi r20,lo8(0)
 18521 896a 0E94 0000 		call lcd_graphics_plot_pixel
 18522               	.LM2396:
 18523 896e 8981      		ldd r24,Y+1
 18524 8970 882F      		mov r24,r24
 18525 8972 90E0      		ldi r25,lo8(0)
 18526 8974 4096      		adiw r24,16
 18527 8976 AC01      		movw r20,r24
 18528 8978 8A81      		ldd r24,Y+2
 18529 897a 882F      		mov r24,r24
 18530 897c 90E0      		ldi r25,lo8(0)
 18531 897e 0596      		adiw r24,5
 18532 8980 9C01      		movw r18,r24
 18533 8982 CA01      		movw r24,r20
 18534 8984 B901      		movw r22,r18
 18535 8986 40E0      		ldi r20,lo8(0)
 18536 8988 0E94 0000 		call lcd_graphics_plot_pixel
 18537               	.LM2397:
 18538 898c 8981      		ldd r24,Y+1
 18539 898e 882F      		mov r24,r24
 18540 8990 90E0      		ldi r25,lo8(0)
 18541 8992 4096      		adiw r24,16
 18542 8994 AC01      		movw r20,r24
 18543 8996 8A81      		ldd r24,Y+2
 18544 8998 882F      		mov r24,r24
 18545 899a 90E0      		ldi r25,lo8(0)
 18546 899c 0696      		adiw r24,6
 18547 899e 9C01      		movw r18,r24
 18548 89a0 CA01      		movw r24,r20
 18549 89a2 B901      		movw r22,r18
 18550 89a4 40E0      		ldi r20,lo8(0)
 18551 89a6 0E94 0000 		call lcd_graphics_plot_pixel
 18552               	.LM2398:
 18553 89aa 8981      		ldd r24,Y+1
 18554 89ac 882F      		mov r24,r24
 18555 89ae 90E0      		ldi r25,lo8(0)
 18556 89b0 4196      		adiw r24,17
 18557 89b2 AC01      		movw r20,r24
 18558 89b4 8A81      		ldd r24,Y+2
 18559 89b6 882F      		mov r24,r24
 18560 89b8 90E0      		ldi r25,lo8(0)
 18561 89ba 0596      		adiw r24,5
 18562 89bc 9C01      		movw r18,r24
 18563 89be CA01      		movw r24,r20
 18564 89c0 B901      		movw r22,r18
 18565 89c2 40E0      		ldi r20,lo8(0)
 18566 89c4 0E94 0000 		call lcd_graphics_plot_pixel
 18567               	.LM2399:
 18568 89c8 8981      		ldd r24,Y+1
 18569 89ca 882F      		mov r24,r24
 18570 89cc 90E0      		ldi r25,lo8(0)
 18571 89ce 4196      		adiw r24,17
 18572 89d0 AC01      		movw r20,r24
 18573 89d2 8A81      		ldd r24,Y+2
 18574 89d4 882F      		mov r24,r24
 18575 89d6 90E0      		ldi r25,lo8(0)
 18576 89d8 0696      		adiw r24,6
 18577 89da 9C01      		movw r18,r24
 18578 89dc CA01      		movw r24,r20
 18579 89de B901      		movw r22,r18
 18580 89e0 40E0      		ldi r20,lo8(0)
 18581 89e2 0E94 0000 		call lcd_graphics_plot_pixel
 18582               	.LM2400:
 18583 89e6 8981      		ldd r24,Y+1
 18584 89e8 882F      		mov r24,r24
 18585 89ea 90E0      		ldi r25,lo8(0)
 18586 89ec 4296      		adiw r24,18
 18587 89ee AC01      		movw r20,r24
 18588 89f0 8A81      		ldd r24,Y+2
 18589 89f2 882F      		mov r24,r24
 18590 89f4 90E0      		ldi r25,lo8(0)
 18591 89f6 0496      		adiw r24,4
 18592 89f8 9C01      		movw r18,r24
 18593 89fa CA01      		movw r24,r20
 18594 89fc B901      		movw r22,r18
 18595 89fe 40E0      		ldi r20,lo8(0)
 18596 8a00 0E94 0000 		call lcd_graphics_plot_pixel
 18597               	.LM2401:
 18598 8a04 8981      		ldd r24,Y+1
 18599 8a06 882F      		mov r24,r24
 18600 8a08 90E0      		ldi r25,lo8(0)
 18601 8a0a 4296      		adiw r24,18
 18602 8a0c AC01      		movw r20,r24
 18603 8a0e 8A81      		ldd r24,Y+2
 18604 8a10 882F      		mov r24,r24
 18605 8a12 90E0      		ldi r25,lo8(0)
 18606 8a14 0596      		adiw r24,5
 18607 8a16 9C01      		movw r18,r24
 18608 8a18 CA01      		movw r24,r20
 18609 8a1a B901      		movw r22,r18
 18610 8a1c 40E0      		ldi r20,lo8(0)
 18611 8a1e 0E94 0000 		call lcd_graphics_plot_pixel
 18612               	.LM2402:
 18613 8a22 8981      		ldd r24,Y+1
 18614 8a24 882F      		mov r24,r24
 18615 8a26 90E0      		ldi r25,lo8(0)
 18616 8a28 4296      		adiw r24,18
 18617 8a2a AC01      		movw r20,r24
 18618 8a2c 8A81      		ldd r24,Y+2
 18619 8a2e 882F      		mov r24,r24
 18620 8a30 90E0      		ldi r25,lo8(0)
 18621 8a32 0696      		adiw r24,6
 18622 8a34 9C01      		movw r18,r24
 18623 8a36 CA01      		movw r24,r20
 18624 8a38 B901      		movw r22,r18
 18625 8a3a 40E0      		ldi r20,lo8(0)
 18626 8a3c 0E94 0000 		call lcd_graphics_plot_pixel
 18627               	.LM2403:
 18628 8a40 8981      		ldd r24,Y+1
 18629 8a42 882F      		mov r24,r24
 18630 8a44 90E0      		ldi r25,lo8(0)
 18631 8a46 4396      		adiw r24,19
 18632 8a48 AC01      		movw r20,r24
 18633 8a4a 8A81      		ldd r24,Y+2
 18634 8a4c 882F      		mov r24,r24
 18635 8a4e 90E0      		ldi r25,lo8(0)
 18636 8a50 0496      		adiw r24,4
 18637 8a52 9C01      		movw r18,r24
 18638 8a54 CA01      		movw r24,r20
 18639 8a56 B901      		movw r22,r18
 18640 8a58 40E0      		ldi r20,lo8(0)
 18641 8a5a 0E94 0000 		call lcd_graphics_plot_pixel
 18642               	.LM2404:
 18643 8a5e 8981      		ldd r24,Y+1
 18644 8a60 882F      		mov r24,r24
 18645 8a62 90E0      		ldi r25,lo8(0)
 18646 8a64 4396      		adiw r24,19
 18647 8a66 AC01      		movw r20,r24
 18648 8a68 8A81      		ldd r24,Y+2
 18649 8a6a 882F      		mov r24,r24
 18650 8a6c 90E0      		ldi r25,lo8(0)
 18651 8a6e 0596      		adiw r24,5
 18652 8a70 9C01      		movw r18,r24
 18653 8a72 CA01      		movw r24,r20
 18654 8a74 B901      		movw r22,r18
 18655 8a76 40E0      		ldi r20,lo8(0)
 18656 8a78 0E94 0000 		call lcd_graphics_plot_pixel
 18657               	.LM2405:
 18658 8a7c 8981      		ldd r24,Y+1
 18659 8a7e 882F      		mov r24,r24
 18660 8a80 90E0      		ldi r25,lo8(0)
 18661 8a82 4396      		adiw r24,19
 18662 8a84 AC01      		movw r20,r24
 18663 8a86 8A81      		ldd r24,Y+2
 18664 8a88 882F      		mov r24,r24
 18665 8a8a 90E0      		ldi r25,lo8(0)
 18666 8a8c 0696      		adiw r24,6
 18667 8a8e 9C01      		movw r18,r24
 18668 8a90 CA01      		movw r24,r20
 18669 8a92 B901      		movw r22,r18
 18670 8a94 40E0      		ldi r20,lo8(0)
 18671 8a96 0E94 0000 		call lcd_graphics_plot_pixel
 18672               	.LM2406:
 18673 8a9a 8981      		ldd r24,Y+1
 18674 8a9c 882F      		mov r24,r24
 18675 8a9e 90E0      		ldi r25,lo8(0)
 18676 8aa0 4496      		adiw r24,20
 18677 8aa2 AC01      		movw r20,r24
 18678 8aa4 8A81      		ldd r24,Y+2
 18679 8aa6 882F      		mov r24,r24
 18680 8aa8 90E0      		ldi r25,lo8(0)
 18681 8aaa 0496      		adiw r24,4
 18682 8aac 9C01      		movw r18,r24
 18683 8aae CA01      		movw r24,r20
 18684 8ab0 B901      		movw r22,r18
 18685 8ab2 40E0      		ldi r20,lo8(0)
 18686 8ab4 0E94 0000 		call lcd_graphics_plot_pixel
 18687               	.LM2407:
 18688 8ab8 8981      		ldd r24,Y+1
 18689 8aba 882F      		mov r24,r24
 18690 8abc 90E0      		ldi r25,lo8(0)
 18691 8abe 4496      		adiw r24,20
 18692 8ac0 AC01      		movw r20,r24
 18693 8ac2 8A81      		ldd r24,Y+2
 18694 8ac4 882F      		mov r24,r24
 18695 8ac6 90E0      		ldi r25,lo8(0)
 18696 8ac8 0596      		adiw r24,5
 18697 8aca 9C01      		movw r18,r24
 18698 8acc CA01      		movw r24,r20
 18699 8ace B901      		movw r22,r18
 18700 8ad0 40E0      		ldi r20,lo8(0)
 18701 8ad2 0E94 0000 		call lcd_graphics_plot_pixel
 18702               	.LM2408:
 18703 8ad6 8981      		ldd r24,Y+1
 18704 8ad8 882F      		mov r24,r24
 18705 8ada 90E0      		ldi r25,lo8(0)
 18706 8adc 4496      		adiw r24,20
 18707 8ade AC01      		movw r20,r24
 18708 8ae0 8A81      		ldd r24,Y+2
 18709 8ae2 882F      		mov r24,r24
 18710 8ae4 90E0      		ldi r25,lo8(0)
 18711 8ae6 0696      		adiw r24,6
 18712 8ae8 9C01      		movw r18,r24
 18713 8aea CA01      		movw r24,r20
 18714 8aec B901      		movw r22,r18
 18715 8aee 40E0      		ldi r20,lo8(0)
 18716 8af0 0E94 0000 		call lcd_graphics_plot_pixel
 18717               	.LM2409:
 18718 8af4 8981      		ldd r24,Y+1
 18719 8af6 882F      		mov r24,r24
 18720 8af8 90E0      		ldi r25,lo8(0)
 18721 8afa 4596      		adiw r24,21
 18722 8afc AC01      		movw r20,r24
 18723 8afe 8A81      		ldd r24,Y+2
 18724 8b00 882F      		mov r24,r24
 18725 8b02 90E0      		ldi r25,lo8(0)
 18726 8b04 0496      		adiw r24,4
 18727 8b06 9C01      		movw r18,r24
 18728 8b08 CA01      		movw r24,r20
 18729 8b0a B901      		movw r22,r18
 18730 8b0c 40E0      		ldi r20,lo8(0)
 18731 8b0e 0E94 0000 		call lcd_graphics_plot_pixel
 18732               	.LM2410:
 18733 8b12 8981      		ldd r24,Y+1
 18734 8b14 882F      		mov r24,r24
 18735 8b16 90E0      		ldi r25,lo8(0)
 18736 8b18 4596      		adiw r24,21
 18737 8b1a AC01      		movw r20,r24
 18738 8b1c 8A81      		ldd r24,Y+2
 18739 8b1e 882F      		mov r24,r24
 18740 8b20 90E0      		ldi r25,lo8(0)
 18741 8b22 0596      		adiw r24,5
 18742 8b24 9C01      		movw r18,r24
 18743 8b26 CA01      		movw r24,r20
 18744 8b28 B901      		movw r22,r18
 18745 8b2a 40E0      		ldi r20,lo8(0)
 18746 8b2c 0E94 0000 		call lcd_graphics_plot_pixel
 18747               	.LM2411:
 18748 8b30 8981      		ldd r24,Y+1
 18749 8b32 882F      		mov r24,r24
 18750 8b34 90E0      		ldi r25,lo8(0)
 18751 8b36 4696      		adiw r24,22
 18752 8b38 AC01      		movw r20,r24
 18753 8b3a 8A81      		ldd r24,Y+2
 18754 8b3c 882F      		mov r24,r24
 18755 8b3e 90E0      		ldi r25,lo8(0)
 18756 8b40 0396      		adiw r24,3
 18757 8b42 9C01      		movw r18,r24
 18758 8b44 CA01      		movw r24,r20
 18759 8b46 B901      		movw r22,r18
 18760 8b48 40E0      		ldi r20,lo8(0)
 18761 8b4a 0E94 0000 		call lcd_graphics_plot_pixel
 18762               	.LM2412:
 18763 8b4e 8981      		ldd r24,Y+1
 18764 8b50 882F      		mov r24,r24
 18765 8b52 90E0      		ldi r25,lo8(0)
 18766 8b54 4696      		adiw r24,22
 18767 8b56 AC01      		movw r20,r24
 18768 8b58 8A81      		ldd r24,Y+2
 18769 8b5a 882F      		mov r24,r24
 18770 8b5c 90E0      		ldi r25,lo8(0)
 18771 8b5e 0496      		adiw r24,4
 18772 8b60 9C01      		movw r18,r24
 18773 8b62 CA01      		movw r24,r20
 18774 8b64 B901      		movw r22,r18
 18775 8b66 40E0      		ldi r20,lo8(0)
 18776 8b68 0E94 0000 		call lcd_graphics_plot_pixel
 18777               	.LM2413:
 18778 8b6c 8981      		ldd r24,Y+1
 18779 8b6e 882F      		mov r24,r24
 18780 8b70 90E0      		ldi r25,lo8(0)
 18781 8b72 4696      		adiw r24,22
 18782 8b74 AC01      		movw r20,r24
 18783 8b76 8A81      		ldd r24,Y+2
 18784 8b78 882F      		mov r24,r24
 18785 8b7a 90E0      		ldi r25,lo8(0)
 18786 8b7c 0596      		adiw r24,5
 18787 8b7e 9C01      		movw r18,r24
 18788 8b80 CA01      		movw r24,r20
 18789 8b82 B901      		movw r22,r18
 18790 8b84 40E0      		ldi r20,lo8(0)
 18791 8b86 0E94 0000 		call lcd_graphics_plot_pixel
 18792               	.LM2414:
 18793 8b8a 8981      		ldd r24,Y+1
 18794 8b8c 882F      		mov r24,r24
 18795 8b8e 90E0      		ldi r25,lo8(0)
 18796 8b90 4796      		adiw r24,23
 18797 8b92 AC01      		movw r20,r24
 18798 8b94 8A81      		ldd r24,Y+2
 18799 8b96 882F      		mov r24,r24
 18800 8b98 90E0      		ldi r25,lo8(0)
 18801 8b9a 0396      		adiw r24,3
 18802 8b9c 9C01      		movw r18,r24
 18803 8b9e CA01      		movw r24,r20
 18804 8ba0 B901      		movw r22,r18
 18805 8ba2 40E0      		ldi r20,lo8(0)
 18806 8ba4 0E94 0000 		call lcd_graphics_plot_pixel
 18807               	.LM2415:
 18808 8ba8 8981      		ldd r24,Y+1
 18809 8baa 882F      		mov r24,r24
 18810 8bac 90E0      		ldi r25,lo8(0)
 18811 8bae 4796      		adiw r24,23
 18812 8bb0 AC01      		movw r20,r24
 18813 8bb2 8A81      		ldd r24,Y+2
 18814 8bb4 882F      		mov r24,r24
 18815 8bb6 90E0      		ldi r25,lo8(0)
 18816 8bb8 0496      		adiw r24,4
 18817 8bba 9C01      		movw r18,r24
 18818 8bbc CA01      		movw r24,r20
 18819 8bbe B901      		movw r22,r18
 18820 8bc0 40E0      		ldi r20,lo8(0)
 18821 8bc2 0E94 0000 		call lcd_graphics_plot_pixel
 18822               	.LM2416:
 18823 8bc6 8981      		ldd r24,Y+1
 18824 8bc8 882F      		mov r24,r24
 18825 8bca 90E0      		ldi r25,lo8(0)
 18826 8bcc 4896      		adiw r24,24
 18827 8bce AC01      		movw r20,r24
 18828 8bd0 8A81      		ldd r24,Y+2
 18829 8bd2 882F      		mov r24,r24
 18830 8bd4 90E0      		ldi r25,lo8(0)
 18831 8bd6 0396      		adiw r24,3
 18832 8bd8 9C01      		movw r18,r24
 18833 8bda CA01      		movw r24,r20
 18834 8bdc B901      		movw r22,r18
 18835 8bde 40E0      		ldi r20,lo8(0)
 18836 8be0 0E94 0000 		call lcd_graphics_plot_pixel
 18837               	.LM2417:
 18838 8be4 8981      		ldd r24,Y+1
 18839 8be6 882F      		mov r24,r24
 18840 8be8 90E0      		ldi r25,lo8(0)
 18841 8bea 4896      		adiw r24,24
 18842 8bec AC01      		movw r20,r24
 18843 8bee 8A81      		ldd r24,Y+2
 18844 8bf0 882F      		mov r24,r24
 18845 8bf2 90E0      		ldi r25,lo8(0)
 18846 8bf4 0496      		adiw r24,4
 18847 8bf6 9C01      		movw r18,r24
 18848 8bf8 CA01      		movw r24,r20
 18849 8bfa B901      		movw r22,r18
 18850 8bfc 40E0      		ldi r20,lo8(0)
 18851 8bfe 0E94 0000 		call lcd_graphics_plot_pixel
 18852               	.LM2418:
 18853 8c02 8981      		ldd r24,Y+1
 18854 8c04 882F      		mov r24,r24
 18855 8c06 90E0      		ldi r25,lo8(0)
 18856 8c08 4996      		adiw r24,25
 18857 8c0a AC01      		movw r20,r24
 18858 8c0c 8A81      		ldd r24,Y+2
 18859 8c0e 882F      		mov r24,r24
 18860 8c10 90E0      		ldi r25,lo8(0)
 18861 8c12 0296      		adiw r24,2
 18862 8c14 9C01      		movw r18,r24
 18863 8c16 CA01      		movw r24,r20
 18864 8c18 B901      		movw r22,r18
 18865 8c1a 40E0      		ldi r20,lo8(0)
 18866 8c1c 0E94 0000 		call lcd_graphics_plot_pixel
 18867               	.LM2419:
 18868 8c20 8981      		ldd r24,Y+1
 18869 8c22 882F      		mov r24,r24
 18870 8c24 90E0      		ldi r25,lo8(0)
 18871 8c26 4996      		adiw r24,25
 18872 8c28 AC01      		movw r20,r24
 18873 8c2a 8A81      		ldd r24,Y+2
 18874 8c2c 882F      		mov r24,r24
 18875 8c2e 90E0      		ldi r25,lo8(0)
 18876 8c30 0396      		adiw r24,3
 18877 8c32 9C01      		movw r18,r24
 18878 8c34 CA01      		movw r24,r20
 18879 8c36 B901      		movw r22,r18
 18880 8c38 40E0      		ldi r20,lo8(0)
 18881 8c3a 0E94 0000 		call lcd_graphics_plot_pixel
 18882               	.LM2420:
 18883 8c3e 8981      		ldd r24,Y+1
 18884 8c40 882F      		mov r24,r24
 18885 8c42 90E0      		ldi r25,lo8(0)
 18886 8c44 4A96      		adiw r24,26
 18887 8c46 AC01      		movw r20,r24
 18888 8c48 8A81      		ldd r24,Y+2
 18889 8c4a 882F      		mov r24,r24
 18890 8c4c 90E0      		ldi r25,lo8(0)
 18891 8c4e 0196      		adiw r24,1
 18892 8c50 9C01      		movw r18,r24
 18893 8c52 CA01      		movw r24,r20
 18894 8c54 B901      		movw r22,r18
 18895 8c56 40E0      		ldi r20,lo8(0)
 18896 8c58 0E94 0000 		call lcd_graphics_plot_pixel
 18897               	.LM2421:
 18898 8c5c 8981      		ldd r24,Y+1
 18899 8c5e 882F      		mov r24,r24
 18900 8c60 90E0      		ldi r25,lo8(0)
 18901 8c62 4A96      		adiw r24,26
 18902 8c64 AC01      		movw r20,r24
 18903 8c66 8A81      		ldd r24,Y+2
 18904 8c68 882F      		mov r24,r24
 18905 8c6a 90E0      		ldi r25,lo8(0)
 18906 8c6c 0296      		adiw r24,2
 18907 8c6e 9C01      		movw r18,r24
 18908 8c70 CA01      		movw r24,r20
 18909 8c72 B901      		movw r22,r18
 18910 8c74 40E0      		ldi r20,lo8(0)
 18911 8c76 0E94 0000 		call lcd_graphics_plot_pixel
 18912               	/* epilogue start */
 18913               	.LM2422:
 18914 8c7a 0F90      		pop __tmp_reg__
 18915 8c7c 0F90      		pop __tmp_reg__
 18916 8c7e CF91      		pop r28
 18917 8c80 DF91      		pop r29
 18918 8c82 0895      		ret
 18919               	.LFE23:
 18921               	.global	ad_channel_select
 18922               	.global	ad_channel_select
 18923               		.section .bss
 18926               	ad_channel_select:
 18927 0000 00        		.skip 1,0
 18928               	.global	val_ad_01_bcd
 18929               		.data
 18932               	val_ad_01_bcd:
 18933 01e0 352E 3030 		.string	"5.00V"
 18933      5600 
 18934               	.global	val_ad_02_bcd
 18937               	val_ad_02_bcd:
 18938 01e6 352E 3030 		.string	"5.00A"
 18938      4100 
 18939               	.global	val_ad_01
 18940               	.global	val_ad_01
 18941               		.section .bss
 18944               	val_ad_01:
 18945 0001 0000 0000 		.skip 4,0
 18946               	.global	val_ad_02
 18947               	.global	val_ad_02
 18950               	val_ad_02:
 18951 0005 0000 0000 		.skip 4,0
 18952               	.global	timer0_cnt
 18953               	.global	timer0_cnt
 18956               	timer0_cnt:
 18957 0009 00        		.skip 1,0
 18958               	.global	send_data
 18959               	.global	send_data
 18962               	send_data:
 18963 000a 00        		.skip 1,0
 18964               	.global	send_data_position
 18965               	.global	send_data_position
 18968               	send_data_position:
 18969 000b 00        		.skip 1,0
 18970               		.text
 18971               	.global	__vector_17
 18973               	__vector_17:
 18974               	.LFB24:
 18975               	.LM2423:
 18976 8c84 1F92      		push __zero_reg__
 18977 8c86 0F92      		push r0
 18978 8c88 0FB6      		in r0,__SREG__
 18979 8c8a 0F92      		push r0
 18980 8c8c 0090 5B00 		lds r0,91
 18981 8c90 0F92      		push r0
 18982 8c92 1124      		clr __zero_reg__
 18983 8c94 8F93      		push r24
 18984 8c96 9F93      		push r25
 18985 8c98 AF93      		push r26
 18986 8c9a BF93      		push r27
 18987 8c9c EF93      		push r30
 18988 8c9e FF93      		push r31
 18989 8ca0 DF93      		push r29
 18990 8ca2 CF93      		push r28
 18991 8ca4 CDB7      		in r28,__SP_L__
 18992 8ca6 DEB7      		in r29,__SP_H__
 18993               	/* prologue: Signal */
 18994               	/* frame size = 0 */
 18995               	.LM2424:
 18996 8ca8 E6E4      		ldi r30,lo8(70)
 18997 8caa F0E0      		ldi r31,hi8(70)
 18998 8cac 86E0      		ldi r24,lo8(6)
 18999 8cae 8083      		st Z,r24
 19000               	.LM2425:
 19001 8cb0 8091 0000 		lds r24,timer0_cnt
 19002 8cb4 8F5F      		subi r24,lo8(-(1))
 19003 8cb6 8093 0000 		sts timer0_cnt,r24
 19004               	.LM2426:
 19005 8cba 8091 0000 		lds r24,timer0_cnt
 19006 8cbe 8A3F      		cpi r24,lo8(-6)
 19007 8cc0 01F4      		brne .L93
 19008               	.LM2427:
 19009 8cc2 1092 0000 		sts timer0_cnt,__zero_reg__
 19010               	.LM2428:
 19011 8cc6 81E0      		ldi r24,lo8(1)
 19012 8cc8 8093 0000 		sts send_data,r24
 19013               	.LM2429:
 19014 8ccc AEEC      		ldi r26,lo8(206)
 19015 8cce B0E0      		ldi r27,hi8(206)
 19016 8cd0 8091 0000 		lds r24,send_data_position
 19017 8cd4 882F      		mov r24,r24
 19018 8cd6 90E0      		ldi r25,lo8(0)
 19019 8cd8 FC01      		movw r30,r24
 19020 8cda E050      		subi r30,lo8(-(val_ad_01_bcd))
 19021 8cdc F040      		sbci r31,hi8(-(val_ad_01_bcd))
 19022 8cde 8081      		ld r24,Z
 19023 8ce0 8C93      		st X,r24
 19024               	.LM2430:
 19025 8ce2 8091 0000 		lds r24,send_data_position
 19026 8ce6 8F5F      		subi r24,lo8(-(1))
 19027 8ce8 8093 0000 		sts send_data_position,r24
 19028               	.L93:
 19029               	/* epilogue start */
 19030               	.LM2431:
 19031 8cec CF91      		pop r28
 19032 8cee DF91      		pop r29
 19033 8cf0 FF91      		pop r31
 19034 8cf2 EF91      		pop r30
 19035 8cf4 BF91      		pop r27
 19036 8cf6 AF91      		pop r26
 19037 8cf8 9F91      		pop r25
 19038 8cfa 8F91      		pop r24
 19039 8cfc 0F90      		pop r0
 19040 8cfe 0092 5B00 		sts 91,r0
 19041 8d02 0F90      		pop r0
 19042 8d04 0FBE      		out __SREG__,r0
 19043 8d06 0F90      		pop r0
 19044 8d08 1F90      		pop __zero_reg__
 19045 8d0a 1895      		reti
 19046               	.LFE24:
 19048               	.global	__vector_25
 19050               	__vector_25:
 19051               	.LFB25:
 19052               	.LM2432:
 19053 8d0c 1F92      		push __zero_reg__
 19054 8d0e 0F92      		push r0
 19055 8d10 0FB6      		in r0,__SREG__
 19056 8d12 0F92      		push r0
 19057 8d14 0090 5B00 		lds r0,91
 19058 8d18 0F92      		push r0
 19059 8d1a 1124      		clr __zero_reg__
 19060 8d1c 2F93      		push r18
 19061 8d1e 3F93      		push r19
 19062 8d20 4F93      		push r20
 19063 8d22 5F93      		push r21
 19064 8d24 8F93      		push r24
 19065 8d26 9F93      		push r25
 19066 8d28 AF93      		push r26
 19067 8d2a BF93      		push r27
 19068 8d2c EF93      		push r30
 19069 8d2e FF93      		push r31
 19070 8d30 DF93      		push r29
 19071 8d32 CF93      		push r28
 19072 8d34 CDB7      		in r28,__SP_L__
 19073 8d36 DEB7      		in r29,__SP_H__
 19074               	/* prologue: Signal */
 19075               	/* frame size = 0 */
 19076               	.LM2433:
 19077 8d38 8091 0000 		lds r24,ad_channel_select
 19078 8d3c 8823      		tst r24
 19079 8d3e 01F4      		brne .L95
 19080               	.LM2434:
 19081 8d40 E8E7      		ldi r30,lo8(120)
 19082 8d42 F0E0      		ldi r31,hi8(120)
 19083 8d44 8081      		ld r24,Z
 19084 8d46 882F      		mov r24,r24
 19085 8d48 90E0      		ldi r25,lo8(0)
 19086 8d4a A0E0      		ldi r26,lo8(0)
 19087 8d4c B0E0      		ldi r27,hi8(0)
 19088 8d4e 8093 0000 		sts val_ad_01,r24
 19089 8d52 9093 0000 		sts (val_ad_01)+1,r25
 19090 8d56 A093 0000 		sts (val_ad_01)+2,r26
 19091 8d5a B093 0000 		sts (val_ad_01)+3,r27
 19092               	.LM2435:
 19093 8d5e E9E7      		ldi r30,lo8(121)
 19094 8d60 F0E0      		ldi r31,hi8(121)
 19095 8d62 8081      		ld r24,Z
 19096 8d64 882F      		mov r24,r24
 19097 8d66 90E0      		ldi r25,lo8(0)
 19098 8d68 982F      		mov r25,r24
 19099 8d6a 8827      		clr r24
 19100 8d6c 9C01      		movw r18,r24
 19101 8d6e 4427      		clr r20
 19102 8d70 37FD      		sbrc r19,7
 19103 8d72 4095      		com r20
 19104 8d74 542F      		mov r21,r20
 19105 8d76 8091 0000 		lds r24,val_ad_01
 19106 8d7a 9091 0000 		lds r25,(val_ad_01)+1
 19107 8d7e A091 0000 		lds r26,(val_ad_01)+2
 19108 8d82 B091 0000 		lds r27,(val_ad_01)+3
 19109 8d86 822B      		or r24,r18
 19110 8d88 932B      		or r25,r19
 19111 8d8a A42B      		or r26,r20
 19112 8d8c B52B      		or r27,r21
 19113 8d8e 8093 0000 		sts val_ad_01,r24
 19114 8d92 9093 0000 		sts (val_ad_01)+1,r25
 19115 8d96 A093 0000 		sts (val_ad_01)+2,r26
 19116 8d9a B093 0000 		sts (val_ad_01)+3,r27
 19117               	.LM2436:
 19118 8d9e 81E0      		ldi r24,lo8(1)
 19119 8da0 8093 0000 		sts ad_channel_select,r24
 19120               	.LM2437:
 19121 8da4 ECE7      		ldi r30,lo8(124)
 19122 8da6 F0E0      		ldi r31,hi8(124)
 19123 8da8 80E4      		ldi r24,lo8(64)
 19124 8daa 8083      		st Z,r24
 19125 8dac 00C0      		rjmp .L97
 19126               	.L95:
 19127               	.LM2438:
 19128 8dae 8091 0000 		lds r24,ad_channel_select
 19129 8db2 8130      		cpi r24,lo8(1)
 19130 8db4 01F4      		brne .L97
 19131               	.LM2439:
 19132 8db6 E8E7      		ldi r30,lo8(120)
 19133 8db8 F0E0      		ldi r31,hi8(120)
 19134 8dba 8081      		ld r24,Z
 19135 8dbc 882F      		mov r24,r24
 19136 8dbe 90E0      		ldi r25,lo8(0)
 19137 8dc0 A0E0      		ldi r26,lo8(0)
 19138 8dc2 B0E0      		ldi r27,hi8(0)
 19139 8dc4 8093 0000 		sts val_ad_02,r24
 19140 8dc8 9093 0000 		sts (val_ad_02)+1,r25
 19141 8dcc A093 0000 		sts (val_ad_02)+2,r26
 19142 8dd0 B093 0000 		sts (val_ad_02)+3,r27
 19143               	.LM2440:
 19144 8dd4 E9E7      		ldi r30,lo8(121)
 19145 8dd6 F0E0      		ldi r31,hi8(121)
 19146 8dd8 8081      		ld r24,Z
 19147 8dda 882F      		mov r24,r24
 19148 8ddc 90E0      		ldi r25,lo8(0)
 19149 8dde 982F      		mov r25,r24
 19150 8de0 8827      		clr r24
 19151 8de2 9C01      		movw r18,r24
 19152 8de4 4427      		clr r20
 19153 8de6 37FD      		sbrc r19,7
 19154 8de8 4095      		com r20
 19155 8dea 542F      		mov r21,r20
 19156 8dec 8091 0000 		lds r24,val_ad_02
 19157 8df0 9091 0000 		lds r25,(val_ad_02)+1
 19158 8df4 A091 0000 		lds r26,(val_ad_02)+2
 19159 8df8 B091 0000 		lds r27,(val_ad_02)+3
 19160 8dfc 822B      		or r24,r18
 19161 8dfe 932B      		or r25,r19
 19162 8e00 A42B      		or r26,r20
 19163 8e02 B52B      		or r27,r21
 19164 8e04 8093 0000 		sts val_ad_02,r24
 19165 8e08 9093 0000 		sts (val_ad_02)+1,r25
 19166 8e0c A093 0000 		sts (val_ad_02)+2,r26
 19167 8e10 B093 0000 		sts (val_ad_02)+3,r27
 19168               	.LM2441:
 19169 8e14 1092 0000 		sts ad_channel_select,__zero_reg__
 19170               	.LM2442:
 19171 8e18 ECE7      		ldi r30,lo8(124)
 19172 8e1a F0E0      		ldi r31,hi8(124)
 19173 8e1c 81E4      		ldi r24,lo8(65)
 19174 8e1e 8083      		st Z,r24
 19175               	.L97:
 19176               	/* epilogue start */
 19177               	.LM2443:
 19178 8e20 CF91      		pop r28
 19179 8e22 DF91      		pop r29
 19180 8e24 FF91      		pop r31
 19181 8e26 EF91      		pop r30
 19182 8e28 BF91      		pop r27
 19183 8e2a AF91      		pop r26
 19184 8e2c 9F91      		pop r25
 19185 8e2e 8F91      		pop r24
 19186 8e30 5F91      		pop r21
 19187 8e32 4F91      		pop r20
 19188 8e34 3F91      		pop r19
 19189 8e36 2F91      		pop r18
 19190 8e38 0F90      		pop r0
 19191 8e3a 0092 5B00 		sts 91,r0
 19192 8e3e 0F90      		pop r0
 19193 8e40 0FBE      		out __SREG__,r0
 19194 8e42 0F90      		pop r0
 19195 8e44 1F90      		pop __zero_reg__
 19196 8e46 1895      		reti
 19197               	.LFE25:
 19199               	.global	__vector_34
 19201               	__vector_34:
 19202               	.LFB26:
 19203               	.LM2444:
 19204 8e48 1F92      		push __zero_reg__
 19205 8e4a 0F92      		push r0
 19206 8e4c 0FB6      		in r0,__SREG__
 19207 8e4e 0F92      		push r0
 19208 8e50 0090 5B00 		lds r0,91
 19209 8e54 0F92      		push r0
 19210 8e56 1124      		clr __zero_reg__
 19211 8e58 8F93      		push r24
 19212 8e5a 9F93      		push r25
 19213 8e5c AF93      		push r26
 19214 8e5e BF93      		push r27
 19215 8e60 EF93      		push r30
 19216 8e62 FF93      		push r31
 19217 8e64 DF93      		push r29
 19218 8e66 CF93      		push r28
 19219 8e68 CDB7      		in r28,__SP_L__
 19220 8e6a DEB7      		in r29,__SP_H__
 19221               	/* prologue: Signal */
 19222               	/* frame size = 0 */
 19223               	.LM2445:
 19224 8e6c 8091 0000 		lds r24,send_data
 19225 8e70 8130      		cpi r24,lo8(1)
 19226 8e72 01F0      		breq .+2
 19227 8e74 00C0      		rjmp .L103
 19228               	.LM2446:
 19229 8e76 8091 0000 		lds r24,send_data_position
 19230 8e7a 8530      		cpi r24,lo8(5)
 19231 8e7c 00F4      		brsh .L100
 19232               	.LM2447:
 19233 8e7e AEEC      		ldi r26,lo8(206)
 19234 8e80 B0E0      		ldi r27,hi8(206)
 19235 8e82 8091 0000 		lds r24,send_data_position
 19236 8e86 882F      		mov r24,r24
 19237 8e88 90E0      		ldi r25,lo8(0)
 19238 8e8a FC01      		movw r30,r24
 19239 8e8c E050      		subi r30,lo8(-(val_ad_01_bcd))
 19240 8e8e F040      		sbci r31,hi8(-(val_ad_01_bcd))
 19241 8e90 8081      		ld r24,Z
 19242 8e92 8C93      		st X,r24
 19243               	.LM2448:
 19244 8e94 8091 0000 		lds r24,send_data_position
 19245 8e98 8F5F      		subi r24,lo8(-(1))
 19246 8e9a 8093 0000 		sts send_data_position,r24
 19247 8e9e 00C0      		rjmp .L103
 19248               	.L100:
 19249               	.LM2449:
 19250 8ea0 8091 0000 		lds r24,send_data_position
 19251 8ea4 8530      		cpi r24,lo8(5)
 19252 8ea6 01F4      		brne .L101
 19253               	.LM2450:
 19254 8ea8 EEEC      		ldi r30,lo8(206)
 19255 8eaa F0E0      		ldi r31,hi8(206)
 19256 8eac 8BE3      		ldi r24,lo8(59)
 19257 8eae 8083      		st Z,r24
 19258               	.LM2451:
 19259 8eb0 8091 0000 		lds r24,send_data_position
 19260 8eb4 8F5F      		subi r24,lo8(-(1))
 19261 8eb6 8093 0000 		sts send_data_position,r24
 19262 8eba 00C0      		rjmp .L103
 19263               	.L101:
 19264               	.LM2452:
 19265 8ebc 8091 0000 		lds r24,send_data_position
 19266 8ec0 8B30      		cpi r24,lo8(11)
 19267 8ec2 00F4      		brsh .L102
 19268               	.LM2453:
 19269 8ec4 AEEC      		ldi r26,lo8(206)
 19270 8ec6 B0E0      		ldi r27,hi8(206)
 19271 8ec8 8091 0000 		lds r24,send_data_position
 19272 8ecc 882F      		mov r24,r24
 19273 8ece 90E0      		ldi r25,lo8(0)
 19274 8ed0 0697      		sbiw r24,6
 19275 8ed2 FC01      		movw r30,r24
 19276 8ed4 E050      		subi r30,lo8(-(val_ad_02_bcd))
 19277 8ed6 F040      		sbci r31,hi8(-(val_ad_02_bcd))
 19278 8ed8 8081      		ld r24,Z
 19279 8eda 8C93      		st X,r24
 19280               	.LM2454:
 19281 8edc 8091 0000 		lds r24,send_data_position
 19282 8ee0 8F5F      		subi r24,lo8(-(1))
 19283 8ee2 8093 0000 		sts send_data_position,r24
 19284 8ee6 00C0      		rjmp .L103
 19285               	.L102:
 19286               	.LM2455:
 19287 8ee8 EEEC      		ldi r30,lo8(206)
 19288 8eea F0E0      		ldi r31,hi8(206)
 19289 8eec 8DE0      		ldi r24,lo8(13)
 19290 8eee 8083      		st Z,r24
 19291               	.LM2456:
 19292 8ef0 1092 0000 		sts send_data_position,__zero_reg__
 19293               	.LM2457:
 19294 8ef4 1092 0000 		sts send_data,__zero_reg__
 19295               	.L103:
 19296               	/* epilogue start */
 19297               	.LM2458:
 19298 8ef8 CF91      		pop r28
 19299 8efa DF91      		pop r29
 19300 8efc FF91      		pop r31
 19301 8efe EF91      		pop r30
 19302 8f00 BF91      		pop r27
 19303 8f02 AF91      		pop r26
 19304 8f04 9F91      		pop r25
 19305 8f06 8F91      		pop r24
 19306 8f08 0F90      		pop r0
 19307 8f0a 0092 5B00 		sts 91,r0
 19308 8f0e 0F90      		pop r0
 19309 8f10 0FBE      		out __SREG__,r0
 19310 8f12 0F90      		pop r0
 19311 8f14 1F90      		pop __zero_reg__
 19312 8f16 1895      		reti
 19313               	.LFE26:
 19315               		.data
 19316               	.LC2:
 19317 01ec 566F 6C74 		.string	"Voltage:"
 19317      6167 653A 
 19317      00
 19318               	.LC3:
 19319 01f5 4375 7272 		.string	"Current:"
 19319      656E 743A 
 19319      00
 19320               	.LC4:
 19321 01fe 506F 7765 		.string	"Power:"
 19321      723A 00
 19322               	.LC0:
 19323 0205 3130 3025 		.string	"100%"
 19323      00
 19324               	.LC1:
 19325 020a 3130 2E30 		.string	"10.000W"
 19325      3030 5700 
 19326               		.text
 19327               	.global	main
 19329               	main:
 19330               	.LFB27:
 19331               	.LM2459:
 19332 8f18 DF93      		push r29
 19333 8f1a CF93      		push r28
 19334 8f1c CDB7      		in r28,__SP_L__
 19335 8f1e DEB7      		in r29,__SP_H__
 19336 8f20 A297      		sbiw r28,34
 19337 8f22 0FB6      		in __tmp_reg__,__SREG__
 19338 8f24 F894      		cli
 19339 8f26 DEBF      		out __SP_H__,r29
 19340 8f28 0FBE      		out __SREG__,__tmp_reg__
 19341 8f2a CDBF      		out __SP_L__,r28
 19342               	/* prologue: function */
 19343               	/* frame size = 34 */
 19344               	.LM2460:
 19345 8f2c 1B86      		std Y+11,__zero_reg__
 19346 8f2e 1A86      		std Y+10,__zero_reg__
 19347               	.LM2461:
 19348 8f30 1986      		std Y+9,__zero_reg__
 19349 8f32 1886      		std Y+8,__zero_reg__
 19350               	.LM2462:
 19351 8f34 1C82      		std Y+4,__zero_reg__
 19352 8f36 1D82      		std Y+5,__zero_reg__
 19353 8f38 1E82      		std Y+6,__zero_reg__
 19354 8f3a 1F82      		std Y+7,__zero_reg__
 19355               	.LM2463:
 19356 8f3c 1B82      		std Y+3,__zero_reg__
 19357               	.LM2464:
 19358 8f3e CE01      		movw r24,r28
 19359 8f40 0C96      		adiw r24,12
 19360 8f42 9A8F      		std Y+26,r25
 19361 8f44 898F      		std Y+25,r24
 19362 8f46 E0E0      		ldi r30,lo8(.LC0)
 19363 8f48 F0E0      		ldi r31,hi8(.LC0)
 19364 8f4a FC8F      		std Y+28,r31
 19365 8f4c EB8F      		std Y+27,r30
 19366 8f4e F5E0      		ldi r31,lo8(5)
 19367 8f50 FD8F      		std Y+29,r31
 19368               	.L105:
 19369 8f52 EB8D      		ldd r30,Y+27
 19370 8f54 FC8D      		ldd r31,Y+28
 19371 8f56 0080      		ld r0,Z
 19372 8f58 8B8D      		ldd r24,Y+27
 19373 8f5a 9C8D      		ldd r25,Y+28
 19374 8f5c 0196      		adiw r24,1
 19375 8f5e 9C8F      		std Y+28,r25
 19376 8f60 8B8F      		std Y+27,r24
 19377 8f62 E98D      		ldd r30,Y+25
 19378 8f64 FA8D      		ldd r31,Y+26
 19379 8f66 0082      		st Z,r0
 19380 8f68 898D      		ldd r24,Y+25
 19381 8f6a 9A8D      		ldd r25,Y+26
 19382 8f6c 0196      		adiw r24,1
 19383 8f6e 9A8F      		std Y+26,r25
 19384 8f70 898F      		std Y+25,r24
 19385 8f72 9D8D      		ldd r25,Y+29
 19386 8f74 9150      		subi r25,lo8(-(-1))
 19387 8f76 9D8F      		std Y+29,r25
 19388 8f78 ED8D      		ldd r30,Y+29
 19389 8f7a EE23      		tst r30
 19390 8f7c 01F4      		brne .L105
 19391               	.LM2465:
 19392 8f7e CE01      		movw r24,r28
 19393 8f80 4196      		adiw r24,17
 19394 8f82 9F8F      		std Y+31,r25
 19395 8f84 8E8F      		std Y+30,r24
 19396 8f86 E0E0      		ldi r30,lo8(.LC1)
 19397 8f88 F0E0      		ldi r31,hi8(.LC1)
 19398 8f8a F9A3      		std Y+33,r31
 19399 8f8c E8A3      		std Y+32,r30
 19400 8f8e F8E0      		ldi r31,lo8(8)
 19401 8f90 FAA3      		std Y+34,r31
 19402               	.L106:
 19403 8f92 E8A1      		ldd r30,Y+32
 19404 8f94 F9A1      		ldd r31,Y+33
 19405 8f96 0080      		ld r0,Z
 19406 8f98 88A1      		ldd r24,Y+32
 19407 8f9a 99A1      		ldd r25,Y+33
 19408 8f9c 0196      		adiw r24,1
 19409 8f9e 99A3      		std Y+33,r25
 19410 8fa0 88A3      		std Y+32,r24
 19411 8fa2 EE8D      		ldd r30,Y+30
 19412 8fa4 FF8D      		ldd r31,Y+31
 19413 8fa6 0082      		st Z,r0
 19414 8fa8 8E8D      		ldd r24,Y+30
 19415 8faa 9F8D      		ldd r25,Y+31
 19416 8fac 0196      		adiw r24,1
 19417 8fae 9F8F      		std Y+31,r25
 19418 8fb0 8E8F      		std Y+30,r24
 19419 8fb2 9AA1      		ldd r25,Y+34
 19420 8fb4 9150      		subi r25,lo8(-(-1))
 19421 8fb6 9AA3      		std Y+34,r25
 19422 8fb8 EAA1      		ldd r30,Y+34
 19423 8fba EE23      		tst r30
 19424 8fbc 01F4      		brne .L106
 19425               	.LM2466:
 19426 8fbe ADE2      		ldi r26,lo8(45)
 19427 8fc0 B0E0      		ldi r27,hi8(45)
 19428 8fc2 EDE2      		ldi r30,lo8(45)
 19429 8fc4 F0E0      		ldi r31,hi8(45)
 19430 8fc6 8081      		ld r24,Z
 19431 8fc8 8064      		ori r24,lo8(64)
 19432 8fca 8C93      		st X,r24
 19433               	.LM2467:
 19434 8fcc AEE2      		ldi r26,lo8(46)
 19435 8fce B0E0      		ldi r27,hi8(46)
 19436 8fd0 EEE2      		ldi r30,lo8(46)
 19437 8fd2 F0E0      		ldi r31,hi8(46)
 19438 8fd4 8081      		ld r24,Z
 19439 8fd6 8064      		ori r24,lo8(64)
 19440 8fd8 8C93      		st X,r24
 19441               	.LM2468:
 19442 8fda AEE2      		ldi r26,lo8(46)
 19443 8fdc B0E0      		ldi r27,hi8(46)
 19444 8fde EEE2      		ldi r30,lo8(46)
 19445 8fe0 F0E0      		ldi r31,hi8(46)
 19446 8fe2 8081      		ld r24,Z
 19447 8fe4 8F7B      		andi r24,lo8(-65)
 19448 8fe6 8C93      		st X,r24
 19449               	.LM2469:
 19450 8fe8 AEE2      		ldi r26,lo8(46)
 19451 8fea B0E0      		ldi r27,hi8(46)
 19452 8fec EEE2      		ldi r30,lo8(46)
 19453 8fee F0E0      		ldi r31,hi8(46)
 19454 8ff0 8081      		ld r24,Z
 19455 8ff2 8064      		ori r24,lo8(64)
 19456 8ff4 8C93      		st X,r24
 19457               	.LM2470:
 19458 8ff6 0E94 0000 		call lcd_graphics_init
 19459               	.LM2471:
 19460 8ffa 0E94 0000 		call lcd_graphics_clear
 19461               	.LM2472:
 19462 8ffe 0E94 0000 		call draw_frame
 19463               	.LM2473:
 19464               	/* #APP */
 19465               	 ;  231 "main.c" 1
 19466 9002 7894      		sei
 19467               	 ;  0 "" 2
 19468               	.LM2474:
 19469               	/* #NOAPP */
 19470 9004 ECE7      		ldi r30,lo8(124)
 19471 9006 F0E0      		ldi r31,hi8(124)
 19472 9008 80E4      		ldi r24,lo8(64)
 19473 900a 8083      		st Z,r24
 19474               	.LM2475:
 19475 900c EAE7      		ldi r30,lo8(122)
 19476 900e F0E0      		ldi r31,hi8(122)
 19477 9010 8EE9      		ldi r24,lo8(-98)
 19478 9012 8083      		st Z,r24
 19479               	.LM2476:
 19480 9014 AAE7      		ldi r26,lo8(122)
 19481 9016 B0E0      		ldi r27,hi8(122)
 19482 9018 EAE7      		ldi r30,lo8(122)
 19483 901a F0E0      		ldi r31,hi8(122)
 19484 901c 8081      		ld r24,Z
 19485 901e 8066      		ori r24,lo8(96)
 19486 9020 8C93      		st X,r24
 19487               	.LM2477:
 19488 9022 0E94 0000 		call USART1_ini
 19489               	.LM2478:
 19490 9026 0E94 0000 		call TIMER0_ini
 19491               	.LM2479:
 19492 902a 20E0      		ldi r18,lo8(.LC2)
 19493 902c 30E0      		ldi r19,hi8(.LC2)
 19494 902e 8EE6      		ldi r24,lo8(110)
 19495 9030 90E0      		ldi r25,hi8(110)
 19496 9032 62E0      		ldi r22,lo8(2)
 19497 9034 70E0      		ldi r23,hi8(2)
 19498 9036 A901      		movw r20,r18
 19499 9038 0E94 0000 		call g_draw_string
 19500               	.LM2480:
 19501 903c 20E0      		ldi r18,lo8(.LC3)
 19502 903e 30E0      		ldi r19,hi8(.LC3)
 19503 9040 8EE6      		ldi r24,lo8(110)
 19504 9042 90E0      		ldi r25,hi8(110)
 19505 9044 63E2      		ldi r22,lo8(35)
 19506 9046 70E0      		ldi r23,hi8(35)
 19507 9048 A901      		movw r20,r18
 19508 904a 0E94 0000 		call g_draw_string
 19509               	.LM2481:
 19510 904e 20E0      		ldi r18,lo8(.LC4)
 19511 9050 30E0      		ldi r19,hi8(.LC4)
 19512 9052 8EE6      		ldi r24,lo8(110)
 19513 9054 90E0      		ldi r25,hi8(110)
 19514 9056 69E3      		ldi r22,lo8(57)
 19515 9058 70E0      		ldi r23,hi8(57)
 19516 905a A901      		movw r20,r18
 19517 905c 0E94 0000 		call g_draw_string
 19518               	.L111:
 19519               	.LM2482:
 19520 9060 8091 0000 		lds r24,val_ad_01
 19521 9064 9091 0000 		lds r25,(val_ad_01)+1
 19522 9068 A091 0000 		lds r26,(val_ad_01)+2
 19523 906c B091 0000 		lds r27,(val_ad_01)+3
 19524 9070 2CEB      		ldi r18,lo8(48828)
 19525 9072 3EEB      		ldi r19,hi8(48828)
 19526 9074 40E0      		ldi r20,hlo8(48828)
 19527 9076 50E0      		ldi r21,hhi8(48828)
 19528 9078 BC01      		movw r22,r24
 19529 907a CD01      		movw r24,r26
 19530 907c 0E94 0000 		call __mulsi3
 19531 9080 DC01      		movw r26,r24
 19532 9082 CB01      		movw r24,r22
 19533 9084 20EA      		ldi r18,lo8(100000)
 19534 9086 36E8      		ldi r19,hi8(100000)
 19535 9088 41E0      		ldi r20,hlo8(100000)
 19536 908a 50E0      		ldi r21,hhi8(100000)
 19537 908c BC01      		movw r22,r24
 19538 908e CD01      		movw r24,r26
 19539 9090 0E94 0000 		call __udivmodsi4
 19540 9094 DA01      		movw r26,r20
 19541 9096 C901      		movw r24,r18
 19542 9098 9B87      		std Y+11,r25
 19543 909a 8A87      		std Y+10,r24
 19544               	.LM2483:
 19545 909c 8A85      		ldd r24,Y+10
 19546 909e 9B85      		ldd r25,Y+11
 19547 90a0 CC01      		movw r24,r24
 19548 90a2 A0E0      		ldi r26,lo8(0)
 19549 90a4 B0E0      		ldi r27,hi8(0)
 19550 90a6 8C83      		std Y+4,r24
 19551 90a8 9D83      		std Y+5,r25
 19552 90aa AE83      		std Y+6,r26
 19553 90ac BF83      		std Y+7,r27
 19554               	.LM2484:
 19555 90ae 8A85      		ldd r24,Y+10
 19556 90b0 9B85      		ldd r25,Y+11
 19557 90b2 25E0      		ldi r18,lo8(5)
 19558 90b4 30E0      		ldi r19,hi8(5)
 19559 90b6 B901      		movw r22,r18
 19560 90b8 0E94 0000 		call __udivmodhi4
 19561 90bc CB01      		movw r24,r22
 19562 90be 8A83      		std Y+2,r24
 19563               	.LM2485:
 19564 90c0 8A85      		ldd r24,Y+10
 19565 90c2 9B85      		ldd r25,Y+11
 19566 90c4 24E6      		ldi r18,lo8(100)
 19567 90c6 30E0      		ldi r19,hi8(100)
 19568 90c8 B901      		movw r22,r18
 19569 90ca 0E94 0000 		call __udivmodhi4
 19570 90ce CB01      		movw r24,r22
 19571 90d0 805D      		subi r24,lo8(-(48))
 19572 90d2 8093 0000 		sts val_ad_01_bcd,r24
 19573               	.LM2486:
 19574 90d6 8A85      		ldd r24,Y+10
 19575 90d8 9B85      		ldd r25,Y+11
 19576 90da 24E6      		ldi r18,lo8(100)
 19577 90dc 30E0      		ldi r19,hi8(100)
 19578 90de B901      		movw r22,r18
 19579 90e0 0E94 0000 		call __udivmodhi4
 19580 90e4 9B87      		std Y+11,r25
 19581 90e6 8A87      		std Y+10,r24
 19582               	.LM2487:
 19583 90e8 8A85      		ldd r24,Y+10
 19584 90ea 9B85      		ldd r25,Y+11
 19585 90ec 2AE0      		ldi r18,lo8(10)
 19586 90ee 30E0      		ldi r19,hi8(10)
 19587 90f0 B901      		movw r22,r18
 19588 90f2 0E94 0000 		call __udivmodhi4
 19589 90f6 CB01      		movw r24,r22
 19590 90f8 805D      		subi r24,lo8(-(48))
 19591 90fa 8093 0000 		sts val_ad_01_bcd+2,r24
 19592               	.LM2488:
 19593 90fe 8A85      		ldd r24,Y+10
 19594 9100 9B85      		ldd r25,Y+11
 19595 9102 2AE0      		ldi r18,lo8(10)
 19596 9104 30E0      		ldi r19,hi8(10)
 19597 9106 B901      		movw r22,r18
 19598 9108 0E94 0000 		call __udivmodhi4
 19599 910c 9B87      		std Y+11,r25
 19600 910e 8A87      		std Y+10,r24
 19601               	.LM2489:
 19602 9110 8A85      		ldd r24,Y+10
 19603 9112 805D      		subi r24,lo8(-(48))
 19604 9114 8093 0000 		sts val_ad_01_bcd+3,r24
 19605               	.LM2490:
 19606 9118 20E0      		ldi r18,lo8(val_ad_01_bcd)
 19607 911a 30E0      		ldi r19,hi8(val_ad_01_bcd)
 19608 911c 8EE6      		ldi r24,lo8(110)
 19609 911e 90E0      		ldi r25,hi8(110)
 19610 9120 6CE0      		ldi r22,lo8(12)
 19611 9122 70E0      		ldi r23,hi8(12)
 19612 9124 A901      		movw r20,r18
 19613 9126 0E94 0000 		call g_draw_string
 19614               	.LM2491:
 19615 912a 8A81      		ldd r24,Y+2
 19616 912c 8983      		std Y+1,r24
 19617               	.LM2492:
 19618 912e 8981      		ldd r24,Y+1
 19619 9130 94E6      		ldi r25,lo8(100)
 19620 9132 692F      		mov r22,r25
 19621 9134 0E94 0000 		call __udivmodqi4
 19622 9138 805D      		subi r24,lo8(-(48))
 19623 913a 8C87      		std Y+12,r24
 19624               	.LM2493:
 19625 913c 8981      		ldd r24,Y+1
 19626 913e 94E6      		ldi r25,lo8(100)
 19627 9140 692F      		mov r22,r25
 19628 9142 0E94 0000 		call __udivmodqi4
 19629 9146 892F      		mov r24,r25
 19630 9148 8983      		std Y+1,r24
 19631               	.LM2494:
 19632 914a 8981      		ldd r24,Y+1
 19633 914c 9AE0      		ldi r25,lo8(10)
 19634 914e 692F      		mov r22,r25
 19635 9150 0E94 0000 		call __udivmodqi4
 19636 9154 805D      		subi r24,lo8(-(48))
 19637 9156 8D87      		std Y+13,r24
 19638               	.LM2495:
 19639 9158 8981      		ldd r24,Y+1
 19640 915a 9AE0      		ldi r25,lo8(10)
 19641 915c 692F      		mov r22,r25
 19642 915e 0E94 0000 		call __udivmodqi4
 19643 9162 892F      		mov r24,r25
 19644 9164 8983      		std Y+1,r24
 19645               	.LM2496:
 19646 9166 8981      		ldd r24,Y+1
 19647 9168 805D      		subi r24,lo8(-(48))
 19648 916a 8E87      		std Y+14,r24
 19649               	.LM2497:
 19650 916c 9E01      		movw r18,r28
 19651 916e 245F      		subi r18,lo8(-(12))
 19652 9170 3F4F      		sbci r19,hi8(-(12))
 19653 9172 8EE6      		ldi r24,lo8(110)
 19654 9174 90E0      		ldi r25,hi8(110)
 19655 9176 66E1      		ldi r22,lo8(22)
 19656 9178 70E0      		ldi r23,hi8(22)
 19657 917a A901      		movw r20,r18
 19658 917c 0E94 0000 		call g_draw_string
 19659               	.LM2498:
 19660 9180 8091 0000 		lds r24,val_ad_02
 19661 9184 9091 0000 		lds r25,(val_ad_02)+1
 19662 9188 A091 0000 		lds r26,(val_ad_02)+2
 19663 918c B091 0000 		lds r27,(val_ad_02)+3
 19664 9190 2CEB      		ldi r18,lo8(48828)
 19665 9192 3EEB      		ldi r19,hi8(48828)
 19666 9194 40E0      		ldi r20,hlo8(48828)
 19667 9196 50E0      		ldi r21,hhi8(48828)
 19668 9198 BC01      		movw r22,r24
 19669 919a CD01      		movw r24,r26
 19670 919c 0E94 0000 		call __mulsi3
 19671 91a0 DC01      		movw r26,r24
 19672 91a2 CB01      		movw r24,r22
 19673 91a4 20EA      		ldi r18,lo8(100000)
 19674 91a6 36E8      		ldi r19,hi8(100000)
 19675 91a8 41E0      		ldi r20,hlo8(100000)
 19676 91aa 50E0      		ldi r21,hhi8(100000)
 19677 91ac BC01      		movw r22,r24
 19678 91ae CD01      		movw r24,r26
 19679 91b0 0E94 0000 		call __udivmodsi4
 19680 91b4 DA01      		movw r26,r20
 19681 91b6 C901      		movw r24,r18
 19682 91b8 9987      		std Y+9,r25
 19683 91ba 8887      		std Y+8,r24
 19684               	.LM2499:
 19685 91bc 8885      		ldd r24,Y+8
 19686 91be 9985      		ldd r25,Y+9
 19687 91c0 9C01      		movw r18,r24
 19688 91c2 40E0      		ldi r20,lo8(0)
 19689 91c4 50E0      		ldi r21,hi8(0)
 19690 91c6 8C81      		ldd r24,Y+4
 19691 91c8 9D81      		ldd r25,Y+5
 19692 91ca AE81      		ldd r26,Y+6
 19693 91cc BF81      		ldd r27,Y+7
 19694 91ce BC01      		movw r22,r24
 19695 91d0 CD01      		movw r24,r26
 19696 91d2 0E94 0000 		call __mulsi3
 19697 91d6 DC01      		movw r26,r24
 19698 91d8 CB01      		movw r24,r22
 19699 91da 8C83      		std Y+4,r24
 19700 91dc 9D83      		std Y+5,r25
 19701 91de AE83      		std Y+6,r26
 19702 91e0 BF83      		std Y+7,r27
 19703               	.LM2500:
 19704 91e2 8885      		ldd r24,Y+8
 19705 91e4 9985      		ldd r25,Y+9
 19706 91e6 24E6      		ldi r18,lo8(100)
 19707 91e8 30E0      		ldi r19,hi8(100)
 19708 91ea B901      		movw r22,r18
 19709 91ec 0E94 0000 		call __udivmodhi4
 19710 91f0 CB01      		movw r24,r22
 19711 91f2 805D      		subi r24,lo8(-(48))
 19712 91f4 8093 0000 		sts val_ad_02_bcd,r24
 19713               	.LM2501:
 19714 91f8 8885      		ldd r24,Y+8
 19715 91fa 9985      		ldd r25,Y+9
 19716 91fc 24E6      		ldi r18,lo8(100)
 19717 91fe 30E0      		ldi r19,hi8(100)
 19718 9200 B901      		movw r22,r18
 19719 9202 0E94 0000 		call __udivmodhi4
 19720 9206 9987      		std Y+9,r25
 19721 9208 8887      		std Y+8,r24
 19722               	.LM2502:
 19723 920a 8885      		ldd r24,Y+8
 19724 920c 9985      		ldd r25,Y+9
 19725 920e 2AE0      		ldi r18,lo8(10)
 19726 9210 30E0      		ldi r19,hi8(10)
 19727 9212 B901      		movw r22,r18
 19728 9214 0E94 0000 		call __udivmodhi4
 19729 9218 CB01      		movw r24,r22
 19730 921a 805D      		subi r24,lo8(-(48))
 19731 921c 8093 0000 		sts val_ad_02_bcd+2,r24
 19732               	.LM2503:
 19733 9220 8885      		ldd r24,Y+8
 19734 9222 9985      		ldd r25,Y+9
 19735 9224 2AE0      		ldi r18,lo8(10)
 19736 9226 30E0      		ldi r19,hi8(10)
 19737 9228 B901      		movw r22,r18
 19738 922a 0E94 0000 		call __udivmodhi4
 19739 922e 9987      		std Y+9,r25
 19740 9230 8887      		std Y+8,r24
 19741               	.LM2504:
 19742 9232 8885      		ldd r24,Y+8
 19743 9234 805D      		subi r24,lo8(-(48))
 19744 9236 8093 0000 		sts val_ad_02_bcd+3,r24
 19745               	.LM2505:
 19746 923a 20E0      		ldi r18,lo8(val_ad_02_bcd)
 19747 923c 30E0      		ldi r19,hi8(val_ad_02_bcd)
 19748 923e 8EE6      		ldi r24,lo8(110)
 19749 9240 90E0      		ldi r25,hi8(110)
 19750 9242 6DE2      		ldi r22,lo8(45)
 19751 9244 70E0      		ldi r23,hi8(45)
 19752 9246 A901      		movw r20,r18
 19753 9248 0E94 0000 		call g_draw_string
 19754               	.LM2506:
 19755 924c 8C81      		ldd r24,Y+4
 19756 924e 9D81      		ldd r25,Y+5
 19757 9250 AE81      		ldd r26,Y+6
 19758 9252 BF81      		ldd r27,Y+7
 19759 9254 2AE0      		ldi r18,lo8(10)
 19760 9256 30E0      		ldi r19,hi8(10)
 19761 9258 40E0      		ldi r20,hlo8(10)
 19762 925a 50E0      		ldi r21,hhi8(10)
 19763 925c BC01      		movw r22,r24
 19764 925e CD01      		movw r24,r26
 19765 9260 0E94 0000 		call __udivmodsi4
 19766 9264 DA01      		movw r26,r20
 19767 9266 C901      		movw r24,r18
 19768 9268 8C83      		std Y+4,r24
 19769 926a 9D83      		std Y+5,r25
 19770 926c AE83      		std Y+6,r26
 19771 926e BF83      		std Y+7,r27
 19772               	.LM2507:
 19773 9270 8C81      		ldd r24,Y+4
 19774 9272 9D81      		ldd r25,Y+5
 19775 9274 AE81      		ldd r26,Y+6
 19776 9276 BF81      		ldd r27,Y+7
 19777 9278 20E1      		ldi r18,lo8(10000)
 19778 927a 37E2      		ldi r19,hi8(10000)
 19779 927c 40E0      		ldi r20,hlo8(10000)
 19780 927e 50E0      		ldi r21,hhi8(10000)
 19781 9280 BC01      		movw r22,r24
 19782 9282 CD01      		movw r24,r26
 19783 9284 0E94 0000 		call __udivmodsi4
 19784 9288 DA01      		movw r26,r20
 19785 928a C901      		movw r24,r18
 19786 928c 805D      		subi r24,lo8(-(48))
 19787 928e 898B      		std Y+17,r24
 19788               	.LM2508:
 19789 9290 8C81      		ldd r24,Y+4
 19790 9292 9D81      		ldd r25,Y+5
 19791 9294 AE81      		ldd r26,Y+6
 19792 9296 BF81      		ldd r27,Y+7
 19793 9298 20E1      		ldi r18,lo8(10000)
 19794 929a 37E2      		ldi r19,hi8(10000)
 19795 929c 40E0      		ldi r20,hlo8(10000)
 19796 929e 50E0      		ldi r21,hhi8(10000)
 19797 92a0 BC01      		movw r22,r24
 19798 92a2 CD01      		movw r24,r26
 19799 92a4 0E94 0000 		call __udivmodsi4
 19800 92a8 DC01      		movw r26,r24
 19801 92aa CB01      		movw r24,r22
 19802 92ac 8C83      		std Y+4,r24
 19803 92ae 9D83      		std Y+5,r25
 19804 92b0 AE83      		std Y+6,r26
 19805 92b2 BF83      		std Y+7,r27
 19806               	.LM2509:
 19807 92b4 8C81      		ldd r24,Y+4
 19808 92b6 9D81      		ldd r25,Y+5
 19809 92b8 AE81      		ldd r26,Y+6
 19810 92ba BF81      		ldd r27,Y+7
 19811 92bc 28EE      		ldi r18,lo8(1000)
 19812 92be 33E0      		ldi r19,hi8(1000)
 19813 92c0 40E0      		ldi r20,hlo8(1000)
 19814 92c2 50E0      		ldi r21,hhi8(1000)
 19815 92c4 BC01      		movw r22,r24
 19816 92c6 CD01      		movw r24,r26
 19817 92c8 0E94 0000 		call __udivmodsi4
 19818 92cc DA01      		movw r26,r20
 19819 92ce C901      		movw r24,r18
 19820 92d0 805D      		subi r24,lo8(-(48))
 19821 92d2 8A8B      		std Y+18,r24
 19822               	.LM2510:
 19823 92d4 8C81      		ldd r24,Y+4
 19824 92d6 9D81      		ldd r25,Y+5
 19825 92d8 AE81      		ldd r26,Y+6
 19826 92da BF81      		ldd r27,Y+7
 19827 92dc 28EE      		ldi r18,lo8(1000)
 19828 92de 33E0      		ldi r19,hi8(1000)
 19829 92e0 40E0      		ldi r20,hlo8(1000)
 19830 92e2 50E0      		ldi r21,hhi8(1000)
 19831 92e4 BC01      		movw r22,r24
 19832 92e6 CD01      		movw r24,r26
 19833 92e8 0E94 0000 		call __udivmodsi4
 19834 92ec DC01      		movw r26,r24
 19835 92ee CB01      		movw r24,r22
 19836 92f0 8C83      		std Y+4,r24
 19837 92f2 9D83      		std Y+5,r25
 19838 92f4 AE83      		std Y+6,r26
 19839 92f6 BF83      		std Y+7,r27
 19840               	.LM2511:
 19841 92f8 8C81      		ldd r24,Y+4
 19842 92fa 9D81      		ldd r25,Y+5
 19843 92fc AE81      		ldd r26,Y+6
 19844 92fe BF81      		ldd r27,Y+7
 19845 9300 24E6      		ldi r18,lo8(100)
 19846 9302 30E0      		ldi r19,hi8(100)
 19847 9304 40E0      		ldi r20,hlo8(100)
 19848 9306 50E0      		ldi r21,hhi8(100)
 19849 9308 BC01      		movw r22,r24
 19850 930a CD01      		movw r24,r26
 19851 930c 0E94 0000 		call __udivmodsi4
 19852 9310 DA01      		movw r26,r20
 19853 9312 C901      		movw r24,r18
 19854 9314 805D      		subi r24,lo8(-(48))
 19855 9316 8C8B      		std Y+20,r24
 19856               	.LM2512:
 19857 9318 8C81      		ldd r24,Y+4
 19858 931a 9D81      		ldd r25,Y+5
 19859 931c AE81      		ldd r26,Y+6
 19860 931e BF81      		ldd r27,Y+7
 19861 9320 24E6      		ldi r18,lo8(100)
 19862 9322 30E0      		ldi r19,hi8(100)
 19863 9324 40E0      		ldi r20,hlo8(100)
 19864 9326 50E0      		ldi r21,hhi8(100)
 19865 9328 BC01      		movw r22,r24
 19866 932a CD01      		movw r24,r26
 19867 932c 0E94 0000 		call __udivmodsi4
 19868 9330 DC01      		movw r26,r24
 19869 9332 CB01      		movw r24,r22
 19870 9334 8C83      		std Y+4,r24
 19871 9336 9D83      		std Y+5,r25
 19872 9338 AE83      		std Y+6,r26
 19873 933a BF83      		std Y+7,r27
 19874               	.LM2513:
 19875 933c 8C81      		ldd r24,Y+4
 19876 933e 9D81      		ldd r25,Y+5
 19877 9340 AE81      		ldd r26,Y+6
 19878 9342 BF81      		ldd r27,Y+7
 19879 9344 2AE0      		ldi r18,lo8(10)
 19880 9346 30E0      		ldi r19,hi8(10)
 19881 9348 40E0      		ldi r20,hlo8(10)
 19882 934a 50E0      		ldi r21,hhi8(10)
 19883 934c BC01      		movw r22,r24
 19884 934e CD01      		movw r24,r26
 19885 9350 0E94 0000 		call __udivmodsi4
 19886 9354 DA01      		movw r26,r20
 19887 9356 C901      		movw r24,r18
 19888 9358 805D      		subi r24,lo8(-(48))
 19889 935a 8D8B      		std Y+21,r24
 19890               	.LM2514:
 19891 935c 8C81      		ldd r24,Y+4
 19892 935e 9D81      		ldd r25,Y+5
 19893 9360 AE81      		ldd r26,Y+6
 19894 9362 BF81      		ldd r27,Y+7
 19895 9364 2AE0      		ldi r18,lo8(10)
 19896 9366 30E0      		ldi r19,hi8(10)
 19897 9368 40E0      		ldi r20,hlo8(10)
 19898 936a 50E0      		ldi r21,hhi8(10)
 19899 936c BC01      		movw r22,r24
 19900 936e CD01      		movw r24,r26
 19901 9370 0E94 0000 		call __udivmodsi4
 19902 9374 DC01      		movw r26,r24
 19903 9376 CB01      		movw r24,r22
 19904 9378 8C83      		std Y+4,r24
 19905 937a 9D83      		std Y+5,r25
 19906 937c AE83      		std Y+6,r26
 19907 937e BF83      		std Y+7,r27
 19908               	.LM2515:
 19909 9380 8C81      		ldd r24,Y+4
 19910 9382 805D      		subi r24,lo8(-(48))
 19911 9384 8E8B      		std Y+22,r24
 19912               	.LM2516:
 19913 9386 9E01      		movw r18,r28
 19914 9388 2F5E      		subi r18,lo8(-(17))
 19915 938a 3F4F      		sbci r19,hi8(-(17))
 19916 938c 8EE6      		ldi r24,lo8(110)
 19917 938e 90E0      		ldi r25,hi8(110)
 19918 9390 63E4      		ldi r22,lo8(67)
 19919 9392 70E0      		ldi r23,hi8(67)
 19920 9394 A901      		movw r20,r18
 19921 9396 0E94 0000 		call g_draw_string
 19922               	.LM2517:
 19923 939a 81E0      		ldi r24,lo8(1)
 19924 939c 8B83      		std Y+3,r24
 19925 939e 00C0      		rjmp .L107
 19926               	.L108:
 19927               	.LM2518:
 19928 93a0 8B81      		ldd r24,Y+3
 19929 93a2 282F      		mov r18,r24
 19930 93a4 30E0      		ldi r19,lo8(0)
 19931 93a6 C901      		movw r24,r18
 19932 93a8 880F      		lsl r24
 19933 93aa 991F      		rol r25
 19934 93ac 880F      		lsl r24
 19935 93ae 991F      		rol r25
 19936 93b0 820F      		add r24,r18
 19937 93b2 931F      		adc r25,r19
 19938 93b4 9095      		com r25
 19939 93b6 8195      		neg r24
 19940 93b8 9F4F      		sbci r25,lo8(-1)
 19941 93ba 982F      		mov r25,r24
 19942 93bc 985B      		subi r25,lo8(-(72))
 19943 93be 83E4      		ldi r24,lo8(67)
 19944 93c0 692F      		mov r22,r25
 19945 93c2 0E94 0000 		call draw_bar
 19946               	.LM2519:
 19947 93c6 8B81      		ldd r24,Y+3
 19948 93c8 8F5F      		subi r24,lo8(-(1))
 19949 93ca 8B83      		std Y+3,r24
 19950               	.L107:
 19951 93cc 8A81      		ldd r24,Y+2
 19952 93ce 9AE0      		ldi r25,lo8(10)
 19953 93d0 692F      		mov r22,r25
 19954 93d2 0E94 0000 		call __udivmodqi4
 19955 93d6 982F      		mov r25,r24
 19956 93d8 8B81      		ldd r24,Y+3
 19957 93da 9817      		cp r25,r24
 19958 93dc 00F4      		brsh .L108
 19959               	.LM2520:
 19960 93de 81E0      		ldi r24,lo8(1)
 19961 93e0 8B83      		std Y+3,r24
 19962 93e2 00C0      		rjmp .L109
 19963               	.L110:
 19964               	.LM2521:
 19965 93e4 8B81      		ldd r24,Y+3
 19966 93e6 282F      		mov r18,r24
 19967 93e8 30E0      		ldi r19,lo8(0)
 19968 93ea C901      		movw r24,r18
 19969 93ec 880F      		lsl r24
 19970 93ee 991F      		rol r25
 19971 93f0 880F      		lsl r24
 19972 93f2 991F      		rol r25
 19973 93f4 820F      		add r24,r18
 19974 93f6 931F      		adc r25,r19
 19975 93f8 982F      		mov r25,r24
 19976 93fa 9F5E      		subi r25,lo8(-(17))
 19977 93fc 83E4      		ldi r24,lo8(67)
 19978 93fe 692F      		mov r22,r25
 19979 9400 0E94 0000 		call delete_bar
 19980               	.LM2522:
 19981 9404 8B81      		ldd r24,Y+3
 19982 9406 8F5F      		subi r24,lo8(-(1))
 19983 9408 8B83      		std Y+3,r24
 19984               	.L109:
 19985 940a 8B81      		ldd r24,Y+3
 19986 940c 482F      		mov r20,r24
 19987 940e 50E0      		ldi r21,lo8(0)
 19988 9410 8A81      		ldd r24,Y+2
 19989 9412 9AE0      		ldi r25,lo8(10)
 19990 9414 692F      		mov r22,r25
 19991 9416 0E94 0000 		call __udivmodqi4
 19992 941a 282F      		mov r18,r24
 19993 941c 30E0      		ldi r19,lo8(0)
 19994 941e 8AE0      		ldi r24,lo8(10)
 19995 9420 90E0      		ldi r25,hi8(10)
 19996 9422 821B      		sub r24,r18
 19997 9424 930B      		sbc r25,r19
 19998 9426 8417      		cp r24,r20
 19999 9428 9507      		cpc r25,r21
 20000 942a 04F4      		brge .L110
 20001 942c 00C0      		rjmp .L111
 20002               	.LFE27:
 20004               	.global	USART1_ini
 20006               	USART1_ini:
 20007               	.LFB28:
 20008               	.LM2523:
 20009 942e DF93      		push r29
 20010 9430 CF93      		push r28
 20011 9432 CDB7      		in r28,__SP_L__
 20012 9434 DEB7      		in r29,__SP_H__
 20013               	/* prologue: function */
 20014               	/* frame size = 0 */
 20015               	.LM2524:
 20016 9436 EDEC      		ldi r30,lo8(205)
 20017 9438 F0E0      		ldi r31,hi8(205)
 20018 943a 1082      		st Z,__zero_reg__
 20019               	.LM2525:
 20020 943c ECEC      		ldi r30,lo8(204)
 20021 943e F0E0      		ldi r31,hi8(204)
 20022 9440 87E6      		ldi r24,lo8(103)
 20023 9442 8083      		st Z,r24
 20024               	.LM2526:
 20025 9444 EAEC      		ldi r30,lo8(202)
 20026 9446 F0E0      		ldi r31,hi8(202)
 20027 9448 86E0      		ldi r24,lo8(6)
 20028 944a 8083      		st Z,r24
 20029               	.LM2527:
 20030 944c E9EC      		ldi r30,lo8(201)
 20031 944e F0E0      		ldi r31,hi8(201)
 20032 9450 88E4      		ldi r24,lo8(72)
 20033 9452 8083      		st Z,r24
 20034               	.LM2528:
 20035 9454 E8EC      		ldi r30,lo8(200)
 20036 9456 F0E0      		ldi r31,hi8(200)
 20037 9458 1082      		st Z,__zero_reg__
 20038               	/* epilogue start */
 20039               	.LM2529:
 20040 945a CF91      		pop r28
 20041 945c DF91      		pop r29
 20042 945e 0895      		ret
 20043               	.LFE28:
 20045               	.global	TIMER0_ini
 20047               	TIMER0_ini:
 20048               	.LFB29:
 20049               	.LM2530:
 20050 9460 DF93      		push r29
 20051 9462 CF93      		push r28
 20052 9464 CDB7      		in r28,__SP_L__
 20053 9466 DEB7      		in r29,__SP_H__
 20054               	/* prologue: function */
 20055               	/* frame size = 0 */
 20056               	.LM2531:
 20057 9468 E4E4      		ldi r30,lo8(68)
 20058 946a F0E0      		ldi r31,hi8(68)
 20059 946c 84E0      		ldi r24,lo8(4)
 20060 946e 8083      		st Z,r24
 20061               	.LM2532:
 20062 9470 EEE6      		ldi r30,lo8(110)
 20063 9472 F0E0      		ldi r31,hi8(110)
 20064 9474 81E0      		ldi r24,lo8(1)
 20065 9476 8083      		st Z,r24
 20066               	.LM2533:
 20067 9478 E6E4      		ldi r30,lo8(70)
 20068 947a F0E0      		ldi r31,hi8(70)
 20069 947c 86E0      		ldi r24,lo8(6)
 20070 947e 8083      		st Z,r24
 20071               	/* epilogue start */
 20072               	.LM2534:
 20073 9480 CF91      		pop r28
 20074 9482 DF91      		pop r29
 20075 9484 0895      		ret
 20076               	.LFE29:
 20078               		.comm msg,14,1
 20079               		.comm msg_rec,14,1
 20288               	.Letext0:
DEFINED SYMBOLS
                            *ABS*:00000000 main.c
C:\DOCUME~1\SMARTG~1\LOCALS~1\Temp/ccv34kem.s:2      *ABS*:0000003f __SREG__
C:\DOCUME~1\SMARTG~1\LOCALS~1\Temp/ccv34kem.s:3      *ABS*:0000003e __SP_H__
C:\DOCUME~1\SMARTG~1\LOCALS~1\Temp/ccv34kem.s:4      *ABS*:0000003d __SP_L__
C:\DOCUME~1\SMARTG~1\LOCALS~1\Temp/ccv34kem.s:5      *ABS*:00000034 __CCP__
C:\DOCUME~1\SMARTG~1\LOCALS~1\Temp/ccv34kem.s:6      *ABS*:00000000 __tmp_reg__
C:\DOCUME~1\SMARTG~1\LOCALS~1\Temp/ccv34kem.s:7      *ABS*:00000001 __zero_reg__
C:\DOCUME~1\SMARTG~1\LOCALS~1\Temp/ccv34kem.s:19     .data:00000000 Font5x7
C:\DOCUME~1\SMARTG~1\LOCALS~1\Temp/ccv34kem.s:503    .text:00000000 g_draw_horizontal_line
C:\DOCUME~1\SMARTG~1\LOCALS~1\Temp/ccv34kem.s:1724   .text:00000702 lcd_graphics_plot_pixel
C:\DOCUME~1\SMARTG~1\LOCALS~1\Temp/ccv34kem.s:572    .text:0000006c g_draw_vertical_line
C:\DOCUME~1\SMARTG~1\LOCALS~1\Temp/ccv34kem.s:641    .text:000000d8 g_draw_rectangle
C:\DOCUME~1\SMARTG~1\LOCALS~1\Temp/ccv34kem.s:737    .text:0000017e g_draw_char
C:\DOCUME~1\SMARTG~1\LOCALS~1\Temp/ccv34kem.s:879    .text:00000266 g_draw_string
C:\DOCUME~1\SMARTG~1\LOCALS~1\Temp/ccv34kem.s:993    .text:0000031a lcd_strobe_enable
C:\DOCUME~1\SMARTG~1\LOCALS~1\Temp/ccv34kem.s:1051   .text:00000350 lcd_wait_busy
C:\DOCUME~1\SMARTG~1\LOCALS~1\Temp/ccv34kem.s:1323   .text:000004f2 lcd_write_command
C:\DOCUME~1\SMARTG~1\LOCALS~1\Temp/ccv34kem.s:1483   .text:00000590 lcd_graphics_init
C:\DOCUME~1\SMARTG~1\LOCALS~1\Temp/ccv34kem.s:1588   .text:00000636 lcd_graphics_move
C:\DOCUME~1\SMARTG~1\LOCALS~1\Temp/ccv34kem.s:1658   .text:000006aa lcd_graphics_draw_byte
C:\DOCUME~1\SMARTG~1\LOCALS~1\Temp/ccv34kem.s:1683   .text:000006c6 lcd_graphics_plot_byte
C:\DOCUME~1\SMARTG~1\LOCALS~1\Temp/ccv34kem.s:1782   .text:00000758 lcd_graphics_clear
C:\DOCUME~1\SMARTG~1\LOCALS~1\Temp/ccv34kem.s:1830   .text:0000079a delay_ms_long
C:\DOCUME~1\SMARTG~1\LOCALS~1\Temp/ccv34kem.s:2023   .text:000008be draw_frame
C:\DOCUME~1\SMARTG~1\LOCALS~1\Temp/ccv34kem.s:17077  .text:00007e44 draw_bar
C:\DOCUME~1\SMARTG~1\LOCALS~1\Temp/ccv34kem.s:18000  .text:00008564 delete_bar
C:\DOCUME~1\SMARTG~1\LOCALS~1\Temp/ccv34kem.s:18926  .bss:00000000 ad_channel_select
C:\DOCUME~1\SMARTG~1\LOCALS~1\Temp/ccv34kem.s:18932  .data:000001e0 val_ad_01_bcd
C:\DOCUME~1\SMARTG~1\LOCALS~1\Temp/ccv34kem.s:18937  .data:000001e6 val_ad_02_bcd
C:\DOCUME~1\SMARTG~1\LOCALS~1\Temp/ccv34kem.s:18944  .bss:00000001 val_ad_01
C:\DOCUME~1\SMARTG~1\LOCALS~1\Temp/ccv34kem.s:18950  .bss:00000005 val_ad_02
C:\DOCUME~1\SMARTG~1\LOCALS~1\Temp/ccv34kem.s:18956  .bss:00000009 timer0_cnt
C:\DOCUME~1\SMARTG~1\LOCALS~1\Temp/ccv34kem.s:18962  .bss:0000000a send_data
C:\DOCUME~1\SMARTG~1\LOCALS~1\Temp/ccv34kem.s:18968  .bss:0000000b send_data_position
C:\DOCUME~1\SMARTG~1\LOCALS~1\Temp/ccv34kem.s:18973  .text:00008c84 __vector_17
C:\DOCUME~1\SMARTG~1\LOCALS~1\Temp/ccv34kem.s:19050  .text:00008d0c __vector_25
C:\DOCUME~1\SMARTG~1\LOCALS~1\Temp/ccv34kem.s:19201  .text:00008e48 __vector_34
C:\DOCUME~1\SMARTG~1\LOCALS~1\Temp/ccv34kem.s:19329  .text:00008f18 main
C:\DOCUME~1\SMARTG~1\LOCALS~1\Temp/ccv34kem.s:20006  .text:0000942e USART1_ini
C:\DOCUME~1\SMARTG~1\LOCALS~1\Temp/ccv34kem.s:20047  .text:00009460 TIMER0_ini
                            *COM*:0000000e msg
                            *COM*:0000000e msg_rec

UNDEFINED SYMBOLS
__mulsf3
__ltsf2
__gtsf2
__divsf3
__fixunssfsi
__mulsi3
__udivmodsi4
__udivmodhi4
__udivmodqi4
__do_copy_data
__do_clear_bss
