Archive member included because of file (symbol)

d:/work/_programming/uc_dev/winavr/bin/../lib/gcc/avr/4.3.3/../../../../avr/lib/avr51\libm.a(cmpsf2.o)
                              main.o (__ltsf2)
d:/work/_programming/uc_dev/winavr/bin/../lib/gcc/avr/4.3.3/../../../../avr/lib/avr51\libm.a(divsf3.o)
                              main.o (__divsf3)
d:/work/_programming/uc_dev/winavr/bin/../lib/gcc/avr/4.3.3/../../../../avr/lib/avr51\libm.a(divsf3x.o)
                              d:/work/_programming/uc_dev/winavr/bin/../lib/gcc/avr/4.3.3/../../../../avr/lib/avr51\libm.a(divsf3.o) (__divsf3x)
d:/work/_programming/uc_dev/winavr/bin/../lib/gcc/avr/4.3.3/../../../../avr/lib/avr51\libm.a(fixunssfsi.o)
                              main.o (__fixunssfsi)
d:/work/_programming/uc_dev/winavr/bin/../lib/gcc/avr/4.3.3/../../../../avr/lib/avr51\libm.a(floatsisf.o)
                              main.o (__floatsisf)
d:/work/_programming/uc_dev/winavr/bin/../lib/gcc/avr/4.3.3/../../../../avr/lib/avr51\libm.a(fp_cmp.o)
                              d:/work/_programming/uc_dev/winavr/bin/../lib/gcc/avr/4.3.3/../../../../avr/lib/avr51\libm.a(cmpsf2.o) (__fp_cmp)
d:/work/_programming/uc_dev/winavr/bin/../lib/gcc/avr/4.3.3/../../../../avr/lib/avr51\libm.a(fp_inf.o)
                              d:/work/_programming/uc_dev/winavr/bin/../lib/gcc/avr/4.3.3/../../../../avr/lib/avr51\libm.a(divsf3x.o) (__fp_inf)
d:/work/_programming/uc_dev/winavr/bin/../lib/gcc/avr/4.3.3/../../../../avr/lib/avr51\libm.a(fp_nan.o)
                              d:/work/_programming/uc_dev/winavr/bin/../lib/gcc/avr/4.3.3/../../../../avr/lib/avr51\libm.a(divsf3x.o) (__fp_nan)
d:/work/_programming/uc_dev/winavr/bin/../lib/gcc/avr/4.3.3/../../../../avr/lib/avr51\libm.a(fp_pscA.o)
                              d:/work/_programming/uc_dev/winavr/bin/../lib/gcc/avr/4.3.3/../../../../avr/lib/avr51\libm.a(divsf3x.o) (__fp_pscA)
d:/work/_programming/uc_dev/winavr/bin/../lib/gcc/avr/4.3.3/../../../../avr/lib/avr51\libm.a(fp_pscB.o)
                              d:/work/_programming/uc_dev/winavr/bin/../lib/gcc/avr/4.3.3/../../../../avr/lib/avr51\libm.a(divsf3x.o) (__fp_pscB)
d:/work/_programming/uc_dev/winavr/bin/../lib/gcc/avr/4.3.3/../../../../avr/lib/avr51\libm.a(fp_round.o)
                              d:/work/_programming/uc_dev/winavr/bin/../lib/gcc/avr/4.3.3/../../../../avr/lib/avr51\libm.a(divsf3.o) (__fp_round)
d:/work/_programming/uc_dev/winavr/bin/../lib/gcc/avr/4.3.3/../../../../avr/lib/avr51\libm.a(fp_split3.o)
                              d:/work/_programming/uc_dev/winavr/bin/../lib/gcc/avr/4.3.3/../../../../avr/lib/avr51\libm.a(divsf3x.o) (__fp_split3)
d:/work/_programming/uc_dev/winavr/bin/../lib/gcc/avr/4.3.3/../../../../avr/lib/avr51\libm.a(fp_zero.o)
                              d:/work/_programming/uc_dev/winavr/bin/../lib/gcc/avr/4.3.3/../../../../avr/lib/avr51\libm.a(fixunssfsi.o) (__fp_zero)
d:/work/_programming/uc_dev/winavr/bin/../lib/gcc/avr/4.3.3/../../../../avr/lib/avr51\libm.a(gesf2.o)
                              main.o (__gtsf2)
d:/work/_programming/uc_dev/winavr/bin/../lib/gcc/avr/4.3.3/../../../../avr/lib/avr51\libm.a(mulsf3.o)
                              main.o (__mulsf3)
d:/work/_programming/uc_dev/winavr/bin/../lib/gcc/avr/4.3.3/../../../../avr/lib/avr51\libm.a(mulsf3x.o)
                              d:/work/_programming/uc_dev/winavr/bin/../lib/gcc/avr/4.3.3/../../../../avr/lib/avr51\libm.a(mulsf3.o) (__mulsf3x)
d:/work/_programming/uc_dev/winavr/bin/../lib/gcc/avr/4.3.3/avr51\libgcc.a(_udivmodqi4.o)
                              main.o (__udivmodqi4)
d:/work/_programming/uc_dev/winavr/bin/../lib/gcc/avr/4.3.3/avr51\libgcc.a(_udivmodhi4.o)
                              main.o (__udivmodhi4)
d:/work/_programming/uc_dev/winavr/bin/../lib/gcc/avr/4.3.3/avr51\libgcc.a(_udivmodsi4.o)
                              main.o (__udivmodsi4)
d:/work/_programming/uc_dev/winavr/bin/../lib/gcc/avr/4.3.3/avr51\libgcc.a(_exit.o)
                              d:/work/_programming/uc_dev/winavr/bin/../lib/gcc/avr/4.3.3/../../../../avr/lib/avr51/crtcan128.o (exit)
d:/work/_programming/uc_dev/winavr/bin/../lib/gcc/avr/4.3.3/avr51\libgcc.a(_clear_bss.o)
                              main.o (__do_clear_bss)
d:/work/_programming/uc_dev/winavr/bin/../lib/gcc/avr/4.3.3/../../../../avr/lib/avr51\libc.a(eerd_byte_at90can128.o)
                              main.o (__eerd_byte_can128)
d:/work/_programming/uc_dev/winavr/bin/../lib/gcc/avr/4.3.3/../../../../avr/lib/avr51\libc.a(eewr_byte_at90can128.o)
                              main.o (__eewr_byte_can128)

Allocating common symbols
Common symbol       size              file

msg_CellVolt_BMC1_58
                    0x12              main.o
msg_CellVolt_BMC2_14
                    0x12              main.o
cell_voltage        0x1e              main.o
msg_CellVolt_BMC1_14
                    0x12              main.o
msg_CellVolt_BMC3_14
                    0x12              main.o
msg_BMC1_status     0x12              main.o
msg_CurrentLEM      0x12              main.o
cell_voltage_buffer
                    0x1e              main.o
msg_BMC_Commands    0x12              main.o
msg_CellVolt_BMC3_58
                    0x12              main.o
msg_BMC2_status     0x12              main.o
msg_CellVolt_BMC2_58
                    0x12              main.o
msg_BMC3_status     0x12              main.o

Memory Configuration

Name             Origin             Length             Attributes
text             0x00000000         0x00020000         xr
data             0x00800060         0x0000ffa0         rw !x
eeprom           0x00810000         0x00010000         rw !x
fuse             0x00820000         0x00000400         rw !x
lock             0x00830000         0x00000400         rw !x
signature        0x00840000         0x00000400         rw !x
*default*        0x00000000         0xffffffff

Linker script and memory map

Address of section .data set to 0x800100
LOAD d:/work/_programming/uc_dev/winavr/bin/../lib/gcc/avr/4.3.3/../../../../avr/lib/avr51/crtcan128.o
LOAD main.o
LOAD d:/work/_programming/uc_dev/winavr/bin/../lib/gcc/avr/4.3.3/../../../../avr/lib/avr51\libm.a
LOAD d:/work/_programming/uc_dev/winavr/bin/../lib/gcc/avr/4.3.3/avr51\libgcc.a
LOAD d:/work/_programming/uc_dev/winavr/bin/../lib/gcc/avr/4.3.3/../../../../avr/lib/avr51\libc.a
LOAD d:/work/_programming/uc_dev/winavr/bin/../lib/gcc/avr/4.3.3/avr51\libgcc.a

.hash
 *(.hash)

.dynsym
 *(.dynsym)

.dynstr
 *(.dynstr)

.gnu.version
 *(.gnu.version)

.gnu.version_d
 *(.gnu.version_d)

.gnu.version_r
 *(.gnu.version_r)

.rel.init
 *(.rel.init)

.rela.init
 *(.rela.init)

.rel.text
 *(.rel.text)
 *(.rel.text.*)
 *(.rel.gnu.linkonce.t*)

.rela.text
 *(.rela.text)
 *(.rela.text.*)
 *(.rela.gnu.linkonce.t*)

.rel.fini
 *(.rel.fini)

.rela.fini
 *(.rela.fini)

.rel.rodata
 *(.rel.rodata)
 *(.rel.rodata.*)
 *(.rel.gnu.linkonce.r*)

.rela.rodata
 *(.rela.rodata)
 *(.rela.rodata.*)
 *(.rela.gnu.linkonce.r*)

.rel.data
 *(.rel.data)
 *(.rel.data.*)
 *(.rel.gnu.linkonce.d*)

.rela.data
 *(.rela.data)
 *(.rela.data.*)
 *(.rela.gnu.linkonce.d*)

.rel.ctors
 *(.rel.ctors)

.rela.ctors
 *(.rela.ctors)

.rel.dtors
 *(.rel.dtors)

.rela.dtors
 *(.rela.dtors)

.rel.got
 *(.rel.got)

.rela.got
 *(.rela.got)

.rel.bss
 *(.rel.bss)

.rela.bss
 *(.rela.bss)

.rel.plt
 *(.rel.plt)

.rela.plt
 *(.rela.plt)

.text           0x00000000    0x16f8c
 *(.vectors)
 .vectors       0x00000000       0x94 d:/work/_programming/uc_dev/winavr/bin/../lib/gcc/avr/4.3.3/../../../../avr/lib/avr51/crtcan128.o
                0x00000000                __vectors
                0x00000000                __vector_default
 *(.vectors)
 *(.progmem.gcc*)
 *(.progmem*)
                0x00000094                . = ALIGN (0x2)
                0x00000094                __trampolines_start = .
 *(.trampolines)
 .trampolines   0x00000094        0x0 linker stubs
 *(.trampolines*)
                0x00000094                __trampolines_end = .
 *(.jumptables)
 *(.jumptables*)
 *(.lowtext)
 *(.lowtext*)
                0x00000094                __ctors_start = .
 *(.ctors)
                0x00000094                __ctors_end = .
                0x00000094                __dtors_start = .
 *(.dtors)
                0x00000094                __dtors_end = .
 SORT(*)(.ctors)
 SORT(*)(.dtors)
 *(.init0)
 .init0         0x00000094        0x0 d:/work/_programming/uc_dev/winavr/bin/../lib/gcc/avr/4.3.3/../../../../avr/lib/avr51/crtcan128.o
                0x00000094                __init
 *(.init0)
 *(.init1)
 *(.init1)
 *(.init2)
 .init2         0x00000094        0xc d:/work/_programming/uc_dev/winavr/bin/../lib/gcc/avr/4.3.3/../../../../avr/lib/avr51/crtcan128.o
 *(.init2)
 *(.init3)
 *(.init3)
 *(.init4)
 .init4         0x000000a0       0x1a d:/work/_programming/uc_dev/winavr/bin/../lib/gcc/avr/4.3.3/../../../../avr/lib/avr51/crtcan128.o
                0x000000a0                __do_copy_data
 .init4         0x000000ba       0x10 d:/work/_programming/uc_dev/winavr/bin/../lib/gcc/avr/4.3.3/avr51\libgcc.a(_clear_bss.o)
                0x000000ba                __do_clear_bss
 *(.init4)
 *(.init5)
 *(.init5)
 *(.init6)
 *(.init6)
 *(.init7)
 *(.init7)
 *(.init8)
 *(.init8)
 *(.init9)
 .init9         0x000000ca        0x8 d:/work/_programming/uc_dev/winavr/bin/../lib/gcc/avr/4.3.3/../../../../avr/lib/avr51/crtcan128.o
 *(.init9)
 *(.text)
 .text          0x000000d2        0x4 d:/work/_programming/uc_dev/winavr/bin/../lib/gcc/avr/4.3.3/../../../../avr/lib/avr51/crtcan128.o
                0x000000d2                __vector_22
                0x000000d2                __vector_28
                0x000000d2                __vector_1
                0x000000d2                __vector_32
                0x000000d2                __vector_34
                0x000000d2                __vector_24
                0x000000d2                __vector_12
                0x000000d2                __bad_interrupt
                0x000000d2                __vector_6
                0x000000d2                __vector_31
                0x000000d2                __vector_35
                0x000000d2                __vector_3
                0x000000d2                __vector_30
                0x000000d2                __vector_25
                0x000000d2                __vector_11
                0x000000d2                __vector_13
                0x000000d2                __vector_19
                0x000000d2                __vector_7
                0x000000d2                __vector_27
                0x000000d2                __vector_5
                0x000000d2                __vector_33
                0x000000d2                __vector_4
                0x000000d2                __vector_9
                0x000000d2                __vector_2
                0x000000d2                __vector_15
                0x000000d2                __vector_36
                0x000000d2                __vector_29
                0x000000d2                __vector_8
                0x000000d2                __vector_26
                0x000000d2                __vector_14
                0x000000d2                __vector_10
                0x000000d2                __vector_16
                0x000000d2                __vector_20
 .text          0x000000d6    0x16aa2 main.o
                0x00000772                lcd_graphics_plot_byte
                0x000000d6                g_draw_horizontal_line
                0x0001383e                can_send_data
                0x00013502                can_get_mob_data
                0x00000846                delay_ms_long
                0x000134a4                can_set_mob_data
                0x00016696                setBMSStaus
                0x00012d82                can_select_mob
                0x000005c8                lcd_write_command
                0x00000254                g_draw_char
                0x00008d7c                draw_status
                0x0000064a                lcd_graphics_init
                0x00016afc                restoreCapacity
                0x000168e0                getTotalCellVoltage
                0x0001370c                can_init
                0x00013612                can_get_mob_interrupt
                0x00014b22                __vector_23
                0x00013002                can_get_mob_id
                0x00010d74                draw_cont_open
                0x00016288                getMaxMinCell
                0x00012c7a                can_set_interrupt
                0x00014388                __vector_17
                0x00016a50                setBMCCommands
                0x00000426                lcd_wait_busy
                0x0000096a                draw_cells
                0x000137e8                can_get_mob_id_type
                0x00000804                lcd_graphics_clear
                0x000006e2                lcd_graphics_move
                0x00000142                g_draw_vertical_line
                0x0001368e                can_clear_mob_interrupt
                0x000150ee                main
                0x0001663e                USART0_ini
                0x00016a8c                storeCapacity
                0x000001ae                g_draw_rectangle
                0x00012da2                can_set_mob_id_mask
                0x00014f98                __vector_21
                0x00012b68                can_set_baudrate
                0x00013816                can_disable_mob
                0x000131d0                can_set_mob_mode
                0x00011c50                draw_cont_closed
                0x00016670                TIMER0_ini
                0x0000033c                g_draw_string
                0x00000756                lcd_graphics_draw_byte
                0x000003f0                lcd_strobe_enable
                0x0001377a                can_enable_mob
                0x0001338e                can_get_mob_mode
                0x00013598                can_set_mob_interrupt
                0x000007ae                lcd_graphics_plot_pixel
                0x000138bc                __vector_18
                0x00012ec0                can_set_mob_id
 .text          0x00016b78        0x0 d:/work/_programming/uc_dev/winavr/bin/../lib/gcc/avr/4.3.3/../../../../avr/lib/avr51\libm.a(cmpsf2.o)
 .text          0x00016b78        0x0 d:/work/_programming/uc_dev/winavr/bin/../lib/gcc/avr/4.3.3/../../../../avr/lib/avr51\libm.a(divsf3.o)
 .text          0x00016b78        0x0 d:/work/_programming/uc_dev/winavr/bin/../lib/gcc/avr/4.3.3/../../../../avr/lib/avr51\libm.a(divsf3x.o)
 .text          0x00016b78        0x0 d:/work/_programming/uc_dev/winavr/bin/../lib/gcc/avr/4.3.3/../../../../avr/lib/avr51\libm.a(fixunssfsi.o)
 .text          0x00016b78        0x0 d:/work/_programming/uc_dev/winavr/bin/../lib/gcc/avr/4.3.3/../../../../avr/lib/avr51\libm.a(floatsisf.o)
 .text          0x00016b78        0x0 d:/work/_programming/uc_dev/winavr/bin/../lib/gcc/avr/4.3.3/../../../../avr/lib/avr51\libm.a(fp_cmp.o)
 .text          0x00016b78        0x0 d:/work/_programming/uc_dev/winavr/bin/../lib/gcc/avr/4.3.3/../../../../avr/lib/avr51\libm.a(fp_inf.o)
 .text          0x00016b78        0x0 d:/work/_programming/uc_dev/winavr/bin/../lib/gcc/avr/4.3.3/../../../../avr/lib/avr51\libm.a(fp_nan.o)
 .text          0x00016b78        0x0 d:/work/_programming/uc_dev/winavr/bin/../lib/gcc/avr/4.3.3/../../../../avr/lib/avr51\libm.a(fp_pscA.o)
 .text          0x00016b78        0x0 d:/work/_programming/uc_dev/winavr/bin/../lib/gcc/avr/4.3.3/../../../../avr/lib/avr51\libm.a(fp_pscB.o)
 .text          0x00016b78        0x0 d:/work/_programming/uc_dev/winavr/bin/../lib/gcc/avr/4.3.3/../../../../avr/lib/avr51\libm.a(fp_round.o)
 .text          0x00016b78        0x0 d:/work/_programming/uc_dev/winavr/bin/../lib/gcc/avr/4.3.3/../../../../avr/lib/avr51\libm.a(fp_split3.o)
 .text          0x00016b78        0x0 d:/work/_programming/uc_dev/winavr/bin/../lib/gcc/avr/4.3.3/../../../../avr/lib/avr51\libm.a(fp_zero.o)
 .text          0x00016b78        0x0 d:/work/_programming/uc_dev/winavr/bin/../lib/gcc/avr/4.3.3/../../../../avr/lib/avr51\libm.a(gesf2.o)
 .text          0x00016b78        0x0 d:/work/_programming/uc_dev/winavr/bin/../lib/gcc/avr/4.3.3/../../../../avr/lib/avr51\libm.a(mulsf3.o)
 .text          0x00016b78        0x0 d:/work/_programming/uc_dev/winavr/bin/../lib/gcc/avr/4.3.3/../../../../avr/lib/avr51\libm.a(mulsf3x.o)
 .text          0x00016b78        0x0 d:/work/_programming/uc_dev/winavr/bin/../lib/gcc/avr/4.3.3/avr51\libgcc.a(_udivmodqi4.o)
 .text          0x00016b78        0x0 d:/work/_programming/uc_dev/winavr/bin/../lib/gcc/avr/4.3.3/avr51\libgcc.a(_udivmodhi4.o)
 .text          0x00016b78        0x0 d:/work/_programming/uc_dev/winavr/bin/../lib/gcc/avr/4.3.3/avr51\libgcc.a(_udivmodsi4.o)
 .text          0x00016b78        0x0 d:/work/_programming/uc_dev/winavr/bin/../lib/gcc/avr/4.3.3/avr51\libgcc.a(_exit.o)
 .text          0x00016b78        0x0 d:/work/_programming/uc_dev/winavr/bin/../lib/gcc/avr/4.3.3/avr51\libgcc.a(_clear_bss.o)
 .text          0x00016b78        0x0 d:/work/_programming/uc_dev/winavr/bin/../lib/gcc/avr/4.3.3/../../../../avr/lib/avr51\libc.a(eerd_byte_at90can128.o)
 .text          0x00016b78        0x0 d:/work/_programming/uc_dev/winavr/bin/../lib/gcc/avr/4.3.3/../../../../avr/lib/avr51\libc.a(eewr_byte_at90can128.o)
                0x00016b78                . = ALIGN (0x2)
 *(.text.*)
 .text.avr-libc.fplib
                0x00016b78        0x8 d:/work/_programming/uc_dev/winavr/bin/../lib/gcc/avr/4.3.3/../../../../avr/lib/avr51\libm.a(cmpsf2.o)
                0x00016b78                __lesf2
                0x00016b78                __nesf2
                0x00016b78                __eqsf2
                0x00016b78                __cmpsf2
                0x00016b78                __ltsf2
 .text.avr-libc.fplib
                0x00016b80        0x4 d:/work/_programming/uc_dev/winavr/bin/../lib/gcc/avr/4.3.3/../../../../avr/lib/avr51\libm.a(divsf3.o)
                0x00016b80                __divsf3
 .text.avr-libc.fplib
                0x00016b84       0xcc d:/work/_programming/uc_dev/winavr/bin/../lib/gcc/avr/4.3.3/../../../../avr/lib/avr51\libm.a(divsf3x.o)
                0x00016b9a                __divsf3x
                0x00016b9e                __divsf3_pse
 .text.avr-libc.fplib
                0x00016c50       0x58 d:/work/_programming/uc_dev/winavr/bin/../lib/gcc/avr/4.3.3/../../../../avr/lib/avr51\libm.a(fixunssfsi.o)
                0x00016c50                __fixunssfsi
 .text.avr-libc.fplib
                0x00016ca8       0x7a d:/work/_programming/uc_dev/winavr/bin/../lib/gcc/avr/4.3.3/../../../../avr/lib/avr51\libm.a(floatsisf.o)
                0x00016cac                __floatsisf
                0x00016ca8                __floatunsisf
 .text.avr-libc.fplib
                0x00016d22       0x48 d:/work/_programming/uc_dev/winavr/bin/../lib/gcc/avr/4.3.3/../../../../avr/lib/avr51\libm.a(fp_cmp.o)
                0x00016d22                __fp_cmp
 .text.avr-libc.fplib
                0x00016d6a        0xc d:/work/_programming/uc_dev/winavr/bin/../lib/gcc/avr/4.3.3/../../../../avr/lib/avr51\libm.a(fp_inf.o)
                0x00016d6a                __fp_inf
 .text.avr-libc.fplib
                0x00016d76        0x6 d:/work/_programming/uc_dev/winavr/bin/../lib/gcc/avr/4.3.3/../../../../avr/lib/avr51\libm.a(fp_nan.o)
                0x00016d76                __fp_nan
 .text.avr-libc.fplib
                0x00016d7c        0xe d:/work/_programming/uc_dev/winavr/bin/../lib/gcc/avr/4.3.3/../../../../avr/lib/avr51\libm.a(fp_pscA.o)
                0x00016d7c                __fp_pscA
 .text.avr-libc.fplib
                0x00016d8a        0xe d:/work/_programming/uc_dev/winavr/bin/../lib/gcc/avr/4.3.3/../../../../avr/lib/avr51\libm.a(fp_pscB.o)
                0x00016d8a                __fp_pscB
 .text.avr-libc.fplib
                0x00016d98       0x22 d:/work/_programming/uc_dev/winavr/bin/../lib/gcc/avr/4.3.3/../../../../avr/lib/avr51\libm.a(fp_round.o)
                0x00016d98                __fp_round
 .text.avr-libc.fplib
                0x00016dba       0x44 d:/work/_programming/uc_dev/winavr/bin/../lib/gcc/avr/4.3.3/../../../../avr/lib/avr51\libm.a(fp_split3.o)
                0x00016dba                __fp_split3
                0x00016dca                __fp_splitA
 .text.avr-libc.fplib
                0x00016dfe        0xe d:/work/_programming/uc_dev/winavr/bin/../lib/gcc/avr/4.3.3/../../../../avr/lib/avr51\libm.a(fp_zero.o)
                0x00016dfe                __fp_zero
                0x00016e00                __fp_szero
 .text.avr-libc.fplib
                0x00016e0c        0x8 d:/work/_programming/uc_dev/winavr/bin/../lib/gcc/avr/4.3.3/../../../../avr/lib/avr51\libm.a(gesf2.o)
                0x00016e0c                __gtsf2
                0x00016e0c                __gesf2
 .text.avr-libc.fplib
                0x00016e14        0x4 d:/work/_programming/uc_dev/winavr/bin/../lib/gcc/avr/4.3.3/../../../../avr/lib/avr51\libm.a(mulsf3.o)
                0x00016e14                __mulsf3
 .text.avr-libc.fplib
                0x00016e18       0xc2 d:/work/_programming/uc_dev/winavr/bin/../lib/gcc/avr/4.3.3/../../../../avr/lib/avr51\libm.a(mulsf3x.o)
                0x00016e30                __mulsf3_pse
                0x00016e2c                __mulsf3x
 .text.libgcc   0x00016eda       0x18 d:/work/_programming/uc_dev/winavr/bin/../lib/gcc/avr/4.3.3/avr51\libgcc.a(_udivmodqi4.o)
                0x00016eda                __udivmodqi4
 .text.libgcc   0x00016ef2       0x28 d:/work/_programming/uc_dev/winavr/bin/../lib/gcc/avr/4.3.3/avr51\libgcc.a(_udivmodhi4.o)
                0x00016ef2                __udivmodhi4
 .text.libgcc   0x00016f1a       0x44 d:/work/_programming/uc_dev/winavr/bin/../lib/gcc/avr/4.3.3/avr51\libgcc.a(_udivmodsi4.o)
                0x00016f1a                __udivmodsi4
 .text.libgcc   0x00016f5e        0x0 d:/work/_programming/uc_dev/winavr/bin/../lib/gcc/avr/4.3.3/avr51\libgcc.a(_exit.o)
 .text.libgcc   0x00016f5e        0x0 d:/work/_programming/uc_dev/winavr/bin/../lib/gcc/avr/4.3.3/avr51\libgcc.a(_clear_bss.o)
 .text.avr-libc
                0x00016f5e       0x10 d:/work/_programming/uc_dev/winavr/bin/../lib/gcc/avr/4.3.3/../../../../avr/lib/avr51\libc.a(eerd_byte_at90can128.o)
                0x00016f5e                __eerd_byte_can128
 .text.avr-libc
                0x00016f6e       0x1a d:/work/_programming/uc_dev/winavr/bin/../lib/gcc/avr/4.3.3/../../../../avr/lib/avr51\libc.a(eewr_byte_at90can128.o)
                0x00016f70                __eewr_r18_can128
                0x00016f6e                __eewr_byte_can128
                0x00016f88                . = ALIGN (0x2)
 *(.fini9)
 .fini9         0x00016f88        0x0 d:/work/_programming/uc_dev/winavr/bin/../lib/gcc/avr/4.3.3/avr51\libgcc.a(_exit.o)
                0x00016f88                exit
                0x00016f88                _exit
 *(.fini9)
 *(.fini8)
 *(.fini8)
 *(.fini7)
 *(.fini7)
 *(.fini6)
 *(.fini6)
 *(.fini5)
 *(.fini5)
 *(.fini4)
 *(.fini4)
 *(.fini3)
 *(.fini3)
 *(.fini2)
 *(.fini2)
 *(.fini1)
 *(.fini1)
 *(.fini0)
 .fini0         0x00016f88        0x4 d:/work/_programming/uc_dev/winavr/bin/../lib/gcc/avr/4.3.3/avr51\libgcc.a(_exit.o)
 *(.fini0)
                0x00016f8c                _etext = .

.data           0x00800100      0x390 load address 0x00016f8c
                0x00800100                PROVIDE (__data_start, .)
 *(.data)
 .data          0x00800100        0x0 d:/work/_programming/uc_dev/winavr/bin/../lib/gcc/avr/4.3.3/../../../../avr/lib/avr51/crtcan128.o
 .data          0x00800100      0x38f main.o
                0x008003f7                uacLowestCell
                0x008003c2                uiMinVoltageAllowed
                0x00800307                UART_MSG_04
                0x00800370                cell_voltage_bcd
                0x00800355                UART_MSG_10
                0x008002ed                UART_MSG_02
                0x008003cc                ucaCAN_offline
                0x0080041f                uacRemainingRange
                0x008003db                ucaConductor_closed
                0x008003e6                uacGlobal_Current
                0x008002fa                UART_MSG_03
                0x008003d4                ucaConductor_open
                0x00800321                UART_MSG_06
                0x008003bb                cell_voltage_na
                0x0080040b                uacMaxCellVoltage
                0x008002e0                UART_MSG_01
                0x00800411                uacMinCellVoltage
                0x00800362                UART_MSG_11
                0x00800401                uacHighestCell
                0x008003c0                uiMaxVoltageAllowed
                0x008003ef                uacGlobal_Voltage
                0x00800417                uacCellCapacity
                0x0080033b                UART_MSG_08
                0x008003c4                ucaCAN_online
                0x008003e2                ulCapacity
                0x0080036f                send_data_num
                0x00800348                UART_MSG_09
                0x0080032e                UART_MSG_07
                0x00800314                UART_MSG_05
 .data          0x0080048f        0x0 d:/work/_programming/uc_dev/winavr/bin/../lib/gcc/avr/4.3.3/../../../../avr/lib/avr51\libm.a(cmpsf2.o)
 .data          0x0080048f        0x0 d:/work/_programming/uc_dev/winavr/bin/../lib/gcc/avr/4.3.3/../../../../avr/lib/avr51\libm.a(divsf3.o)
 .data          0x0080048f        0x0 d:/work/_programming/uc_dev/winavr/bin/../lib/gcc/avr/4.3.3/../../../../avr/lib/avr51\libm.a(divsf3x.o)
 .data          0x0080048f        0x0 d:/work/_programming/uc_dev/winavr/bin/../lib/gcc/avr/4.3.3/../../../../avr/lib/avr51\libm.a(fixunssfsi.o)
 .data          0x0080048f        0x0 d:/work/_programming/uc_dev/winavr/bin/../lib/gcc/avr/4.3.3/../../../../avr/lib/avr51\libm.a(floatsisf.o)
 .data          0x0080048f        0x0 d:/work/_programming/uc_dev/winavr/bin/../lib/gcc/avr/4.3.3/../../../../avr/lib/avr51\libm.a(fp_cmp.o)
 .data          0x0080048f        0x0 d:/work/_programming/uc_dev/winavr/bin/../lib/gcc/avr/4.3.3/../../../../avr/lib/avr51\libm.a(fp_inf.o)
 .data          0x0080048f        0x0 d:/work/_programming/uc_dev/winavr/bin/../lib/gcc/avr/4.3.3/../../../../avr/lib/avr51\libm.a(fp_nan.o)
 .data          0x0080048f        0x0 d:/work/_programming/uc_dev/winavr/bin/../lib/gcc/avr/4.3.3/../../../../avr/lib/avr51\libm.a(fp_pscA.o)
 .data          0x0080048f        0x0 d:/work/_programming/uc_dev/winavr/bin/../lib/gcc/avr/4.3.3/../../../../avr/lib/avr51\libm.a(fp_pscB.o)
 .data          0x0080048f        0x0 d:/work/_programming/uc_dev/winavr/bin/../lib/gcc/avr/4.3.3/../../../../avr/lib/avr51\libm.a(fp_round.o)
 .data          0x0080048f        0x0 d:/work/_programming/uc_dev/winavr/bin/../lib/gcc/avr/4.3.3/../../../../avr/lib/avr51\libm.a(fp_split3.o)
 .data          0x0080048f        0x0 d:/work/_programming/uc_dev/winavr/bin/../lib/gcc/avr/4.3.3/../../../../avr/lib/avr51\libm.a(fp_zero.o)
 .data          0x0080048f        0x0 d:/work/_programming/uc_dev/winavr/bin/../lib/gcc/avr/4.3.3/../../../../avr/lib/avr51\libm.a(gesf2.o)
 .data          0x0080048f        0x0 d:/work/_programming/uc_dev/winavr/bin/../lib/gcc/avr/4.3.3/../../../../avr/lib/avr51\libm.a(mulsf3.o)
 .data          0x0080048f        0x0 d:/work/_programming/uc_dev/winavr/bin/../lib/gcc/avr/4.3.3/../../../../avr/lib/avr51\libm.a(mulsf3x.o)
 .data          0x0080048f        0x0 d:/work/_programming/uc_dev/winavr/bin/../lib/gcc/avr/4.3.3/avr51\libgcc.a(_udivmodqi4.o)
 .data          0x0080048f        0x0 d:/work/_programming/uc_dev/winavr/bin/../lib/gcc/avr/4.3.3/avr51\libgcc.a(_udivmodhi4.o)
 .data          0x0080048f        0x0 d:/work/_programming/uc_dev/winavr/bin/../lib/gcc/avr/4.3.3/avr51\libgcc.a(_udivmodsi4.o)
 .data          0x0080048f        0x0 d:/work/_programming/uc_dev/winavr/bin/../lib/gcc/avr/4.3.3/avr51\libgcc.a(_exit.o)
 .data          0x0080048f        0x0 d:/work/_programming/uc_dev/winavr/bin/../lib/gcc/avr/4.3.3/avr51\libgcc.a(_clear_bss.o)
 .data          0x0080048f        0x0 d:/work/_programming/uc_dev/winavr/bin/../lib/gcc/avr/4.3.3/../../../../avr/lib/avr51\libc.a(eerd_byte_at90can128.o)
 .data          0x0080048f        0x0 d:/work/_programming/uc_dev/winavr/bin/../lib/gcc/avr/4.3.3/../../../../avr/lib/avr51\libc.a(eewr_byte_at90can128.o)
 *(.data*)
 *(.rodata)
 *(.rodata*)
 *(.gnu.linkonce.d*)
                0x00800490                . = ALIGN (0x2)
 *fill*         0x0080048f        0x1 00
                0x00800490                _edata = .
                0x00800490                PROVIDE (__data_end, .)

.bss            0x00800490      0x175
                0x00800490                PROVIDE (__bss_start, .)
 *(.bss)
 .bss           0x00800490        0x0 d:/work/_programming/uc_dev/winavr/bin/../lib/gcc/avr/4.3.3/../../../../avr/lib/avr51/crtcan128.o
 .bss           0x00800490       0x73 main.o
                0x008004c0                ucBMC3_CAN_Timeout
                0x008004a6                rec_data_position
                0x008004c4                uiCurrent
                0x008004eb                ulCapacityBuffer
                0x008004a2                data_id
                0x008004c2                ucCharging_Timeout
                0x008004b8                ucBMC2_CAN_Status
                0x008004b2                ucScreenStatus_0_Ack
                0x008004bd                ucMinCellVoltageViolated
                0x008004b7                ucBMC1_CAN_Status
                0x008004a0                send_data_position
                0x008004b5                ucConductorStatus
                0x008004a7                cell_voltage_total
                0x008004c1                ucLEM_CAN_Timeout
                0x008004ad                ucButtonRed
                0x008004ba                ucLEM_CAN_Status
                0x008004ae                ucButtonBlack
                0x008004ef                uiRemainingTime
                0x008004b0                ucButtonBlackPressed
                0x008004a9                uiMaxVoltage
                0x008004b1                ucScreenStatus
                0x008004af                ucButtonRedPressed
                0x008004bb                ucError
                0x008004dc                ucaBalancingCell
                0x008004b4                ucScreenStatus_2_Ack
                0x008004bf                ucBMC2_CAN_Timeout
                0x008004be                ucBMC1_CAN_Timeout
                0x008004b9                ucBMC3_CAN_Status
                0x008004c6                uiCurrentBuffer
                0x008004bc                ucMaxCellVoltageViolated
                0x0080049f                send_data
                0x008004b6                ucConductorForceOff
                0x008004ab                uiMinVoltage
                0x008004a1                data_income
                0x008004b3                ucScreenStatus_1_Ack
                0x0080049c                timer0_cnt
                0x00800490                UART_MSG
                0x008004c3                ucCurrentDirection
                0x0080049e                ucCurrentCount
                0x008004da                uiCurrentMean
 .bss           0x00800503        0x0 d:/work/_programming/uc_dev/winavr/bin/../lib/gcc/avr/4.3.3/../../../../avr/lib/avr51\libm.a(cmpsf2.o)
 .bss           0x00800503        0x0 d:/work/_programming/uc_dev/winavr/bin/../lib/gcc/avr/4.3.3/../../../../avr/lib/avr51\libm.a(divsf3.o)
 .bss           0x00800503        0x0 d:/work/_programming/uc_dev/winavr/bin/../lib/gcc/avr/4.3.3/../../../../avr/lib/avr51\libm.a(divsf3x.o)
 .bss           0x00800503        0x0 d:/work/_programming/uc_dev/winavr/bin/../lib/gcc/avr/4.3.3/../../../../avr/lib/avr51\libm.a(fixunssfsi.o)
 .bss           0x00800503        0x0 d:/work/_programming/uc_dev/winavr/bin/../lib/gcc/avr/4.3.3/../../../../avr/lib/avr51\libm.a(floatsisf.o)
 .bss           0x00800503        0x0 d:/work/_programming/uc_dev/winavr/bin/../lib/gcc/avr/4.3.3/../../../../avr/lib/avr51\libm.a(fp_cmp.o)
 .bss           0x00800503        0x0 d:/work/_programming/uc_dev/winavr/bin/../lib/gcc/avr/4.3.3/../../../../avr/lib/avr51\libm.a(fp_inf.o)
 .bss           0x00800503        0x0 d:/work/_programming/uc_dev/winavr/bin/../lib/gcc/avr/4.3.3/../../../../avr/lib/avr51\libm.a(fp_nan.o)
 .bss           0x00800503        0x0 d:/work/_programming/uc_dev/winavr/bin/../lib/gcc/avr/4.3.3/../../../../avr/lib/avr51\libm.a(fp_pscA.o)
 .bss           0x00800503        0x0 d:/work/_programming/uc_dev/winavr/bin/../lib/gcc/avr/4.3.3/../../../../avr/lib/avr51\libm.a(fp_pscB.o)
 .bss           0x00800503        0x0 d:/work/_programming/uc_dev/winavr/bin/../lib/gcc/avr/4.3.3/../../../../avr/lib/avr51\libm.a(fp_round.o)
 .bss           0x00800503        0x0 d:/work/_programming/uc_dev/winavr/bin/../lib/gcc/avr/4.3.3/../../../../avr/lib/avr51\libm.a(fp_split3.o)
 .bss           0x00800503        0x0 d:/work/_programming/uc_dev/winavr/bin/../lib/gcc/avr/4.3.3/../../../../avr/lib/avr51\libm.a(fp_zero.o)
 .bss           0x00800503        0x0 d:/work/_programming/uc_dev/winavr/bin/../lib/gcc/avr/4.3.3/../../../../avr/lib/avr51\libm.a(gesf2.o)
 .bss           0x00800503        0x0 d:/work/_programming/uc_dev/winavr/bin/../lib/gcc/avr/4.3.3/../../../../avr/lib/avr51\libm.a(mulsf3.o)
 .bss           0x00800503        0x0 d:/work/_programming/uc_dev/winavr/bin/../lib/gcc/avr/4.3.3/../../../../avr/lib/avr51\libm.a(mulsf3x.o)
 .bss           0x00800503        0x0 d:/work/_programming/uc_dev/winavr/bin/../lib/gcc/avr/4.3.3/avr51\libgcc.a(_udivmodqi4.o)
 .bss           0x00800503        0x0 d:/work/_programming/uc_dev/winavr/bin/../lib/gcc/avr/4.3.3/avr51\libgcc.a(_udivmodhi4.o)
 .bss           0x00800503        0x0 d:/work/_programming/uc_dev/winavr/bin/../lib/gcc/avr/4.3.3/avr51\libgcc.a(_udivmodsi4.o)
 .bss           0x00800503        0x0 d:/work/_programming/uc_dev/winavr/bin/../lib/gcc/avr/4.3.3/avr51\libgcc.a(_exit.o)
 .bss           0x00800503        0x0 d:/work/_programming/uc_dev/winavr/bin/../lib/gcc/avr/4.3.3/avr51\libgcc.a(_clear_bss.o)
 .bss           0x00800503        0x0 d:/work/_programming/uc_dev/winavr/bin/../lib/gcc/avr/4.3.3/../../../../avr/lib/avr51\libc.a(eerd_byte_at90can128.o)
 .bss           0x00800503        0x0 d:/work/_programming/uc_dev/winavr/bin/../lib/gcc/avr/4.3.3/../../../../avr/lib/avr51\libc.a(eewr_byte_at90can128.o)
 *(.bss*)
 *(COMMON)
 COMMON         0x00800503      0x102 main.o
                0x00800503                msg_CellVolt_BMC1_58
                0x00800515                msg_CellVolt_BMC2_14
                0x00800527                cell_voltage
                0x00800545                msg_CellVolt_BMC1_14
                0x00800557                msg_CellVolt_BMC3_14
                0x00800569                msg_BMC1_status
                0x0080057b                msg_CurrentLEM
                0x0080058d                cell_voltage_buffer
                0x008005ab                msg_BMC_Commands
                0x008005bd                msg_CellVolt_BMC3_58
                0x008005cf                msg_BMC2_status
                0x008005e1                msg_CellVolt_BMC2_58
                0x008005f3                msg_BMC3_status
                0x00800605                PROVIDE (__bss_end, .)
                0x00016f8c                __data_load_start = LOADADDR (.data)
                0x0001731c                __data_load_end = (__data_load_start + SIZEOF (.data))

.noinit         0x00800605        0x0
                0x00800605                PROVIDE (__noinit_start, .)
 *(.noinit*)
                0x00800605                PROVIDE (__noinit_end, .)
                0x00800605                _end = .
                0x00800605                PROVIDE (__heap_start, .)

.eeprom         0x00810000        0x0
 *(.eeprom*)
                0x00810000                __eeprom_end = .

.fuse
 *(.fuse)
 *(.lfuse)
 *(.hfuse)
 *(.efuse)

.lock
 *(.lock*)

.signature
 *(.signature*)

.stab           0x00000000    0x12e70
 *(.stab)
 .stab          0x00000000    0x12e70 main.o

.stabstr        0x00000000     0x1a45
 *(.stabstr)
 .stabstr       0x00000000     0x1a45 main.o

.stab.excl
 *(.stab.excl)

.stab.exclstr
 *(.stab.exclstr)

.stab.index
 *(.stab.index)

.stab.indexstr
 *(.stab.indexstr)

.comment
 *(.comment)

.debug
 *(.debug)

.line
 *(.line)

.debug_srcinfo
 *(.debug_srcinfo)

.debug_sfnames
 *(.debug_sfnames)

.debug_aranges
 *(.debug_aranges)

.debug_pubnames
 *(.debug_pubnames)

.debug_info
 *(.debug_info)
 *(.gnu.linkonce.wi.*)

.debug_abbrev
 *(.debug_abbrev)

.debug_line
 *(.debug_line)

.debug_frame
 *(.debug_frame)

.debug_str
 *(.debug_str)

.debug_loc
 *(.debug_loc)

.debug_macinfo
 *(.debug_macinfo)
OUTPUT(main.elf elf32-avr)
LOAD linker stubs

Cross Reference Table

Symbol                                            File
TIMER0_ini                                        main.o
UART_MSG                                          main.o
UART_MSG_01                                       main.o
UART_MSG_02                                       main.o
UART_MSG_03                                       main.o
UART_MSG_04                                       main.o
UART_MSG_05                                       main.o
UART_MSG_06                                       main.o
UART_MSG_07                                       main.o
UART_MSG_08                                       main.o
UART_MSG_09                                       main.o
UART_MSG_10                                       main.o
UART_MSG_11                                       main.o
USART0_ini                                        main.o
__bad_interrupt                                   d:/work/_programming/uc_dev/winavr/bin/../lib/gcc/avr/4.3.3/../../../../avr/lib/avr51/crtcan128.o
__bss_end                                         d:/work/_programming/uc_dev/winavr/bin/../lib/gcc/avr/4.3.3/avr51\libgcc.a(_clear_bss.o)
__bss_start                                       d:/work/_programming/uc_dev/winavr/bin/../lib/gcc/avr/4.3.3/avr51\libgcc.a(_clear_bss.o)
__cmpsf2                                          d:/work/_programming/uc_dev/winavr/bin/../lib/gcc/avr/4.3.3/../../../../avr/lib/avr51\libm.a(cmpsf2.o)
__data_end                                        d:/work/_programming/uc_dev/winavr/bin/../lib/gcc/avr/4.3.3/../../../../avr/lib/avr51/crtcan128.o
__data_load_start                                 d:/work/_programming/uc_dev/winavr/bin/../lib/gcc/avr/4.3.3/../../../../avr/lib/avr51/crtcan128.o
__data_start                                      d:/work/_programming/uc_dev/winavr/bin/../lib/gcc/avr/4.3.3/../../../../avr/lib/avr51/crtcan128.o
__divsf3                                          d:/work/_programming/uc_dev/winavr/bin/../lib/gcc/avr/4.3.3/../../../../avr/lib/avr51\libm.a(divsf3.o)
                                                  main.o
__divsf3_pse                                      d:/work/_programming/uc_dev/winavr/bin/../lib/gcc/avr/4.3.3/../../../../avr/lib/avr51\libm.a(divsf3x.o)
__divsf3x                                         d:/work/_programming/uc_dev/winavr/bin/../lib/gcc/avr/4.3.3/../../../../avr/lib/avr51\libm.a(divsf3x.o)
                                                  d:/work/_programming/uc_dev/winavr/bin/../lib/gcc/avr/4.3.3/../../../../avr/lib/avr51\libm.a(divsf3.o)
__do_clear_bss                                    d:/work/_programming/uc_dev/winavr/bin/../lib/gcc/avr/4.3.3/avr51\libgcc.a(_clear_bss.o)
                                                  main.o
__do_copy_data                                    d:/work/_programming/uc_dev/winavr/bin/../lib/gcc/avr/4.3.3/../../../../avr/lib/avr51/crtcan128.o
                                                  main.o
__eerd_byte_can128                                d:/work/_programming/uc_dev/winavr/bin/../lib/gcc/avr/4.3.3/../../../../avr/lib/avr51\libc.a(eerd_byte_at90can128.o)
                                                  main.o
__eewr_byte_can128                                d:/work/_programming/uc_dev/winavr/bin/../lib/gcc/avr/4.3.3/../../../../avr/lib/avr51\libc.a(eewr_byte_at90can128.o)
                                                  main.o
__eewr_r18_can128                                 d:/work/_programming/uc_dev/winavr/bin/../lib/gcc/avr/4.3.3/../../../../avr/lib/avr51\libc.a(eewr_byte_at90can128.o)
__eqsf2                                           d:/work/_programming/uc_dev/winavr/bin/../lib/gcc/avr/4.3.3/../../../../avr/lib/avr51\libm.a(cmpsf2.o)
__fixunssfsi                                      d:/work/_programming/uc_dev/winavr/bin/../lib/gcc/avr/4.3.3/../../../../avr/lib/avr51\libm.a(fixunssfsi.o)
                                                  main.o
__floatsisf                                       d:/work/_programming/uc_dev/winavr/bin/../lib/gcc/avr/4.3.3/../../../../avr/lib/avr51\libm.a(floatsisf.o)
                                                  main.o
__floatunsisf                                     d:/work/_programming/uc_dev/winavr/bin/../lib/gcc/avr/4.3.3/../../../../avr/lib/avr51\libm.a(floatsisf.o)
__fp_cmp                                          d:/work/_programming/uc_dev/winavr/bin/../lib/gcc/avr/4.3.3/../../../../avr/lib/avr51\libm.a(fp_cmp.o)
                                                  d:/work/_programming/uc_dev/winavr/bin/../lib/gcc/avr/4.3.3/../../../../avr/lib/avr51\libm.a(gesf2.o)
                                                  d:/work/_programming/uc_dev/winavr/bin/../lib/gcc/avr/4.3.3/../../../../avr/lib/avr51\libm.a(cmpsf2.o)
__fp_inf                                          d:/work/_programming/uc_dev/winavr/bin/../lib/gcc/avr/4.3.3/../../../../avr/lib/avr51\libm.a(fp_inf.o)
                                                  d:/work/_programming/uc_dev/winavr/bin/../lib/gcc/avr/4.3.3/../../../../avr/lib/avr51\libm.a(mulsf3x.o)
                                                  d:/work/_programming/uc_dev/winavr/bin/../lib/gcc/avr/4.3.3/../../../../avr/lib/avr51\libm.a(divsf3x.o)
__fp_nan                                          d:/work/_programming/uc_dev/winavr/bin/../lib/gcc/avr/4.3.3/../../../../avr/lib/avr51\libm.a(fp_nan.o)
                                                  d:/work/_programming/uc_dev/winavr/bin/../lib/gcc/avr/4.3.3/../../../../avr/lib/avr51\libm.a(mulsf3x.o)
                                                  d:/work/_programming/uc_dev/winavr/bin/../lib/gcc/avr/4.3.3/../../../../avr/lib/avr51\libm.a(divsf3x.o)
__fp_pscA                                         d:/work/_programming/uc_dev/winavr/bin/../lib/gcc/avr/4.3.3/../../../../avr/lib/avr51\libm.a(fp_pscA.o)
                                                  d:/work/_programming/uc_dev/winavr/bin/../lib/gcc/avr/4.3.3/../../../../avr/lib/avr51\libm.a(mulsf3x.o)
                                                  d:/work/_programming/uc_dev/winavr/bin/../lib/gcc/avr/4.3.3/../../../../avr/lib/avr51\libm.a(divsf3x.o)
__fp_pscB                                         d:/work/_programming/uc_dev/winavr/bin/../lib/gcc/avr/4.3.3/../../../../avr/lib/avr51\libm.a(fp_pscB.o)
                                                  d:/work/_programming/uc_dev/winavr/bin/../lib/gcc/avr/4.3.3/../../../../avr/lib/avr51\libm.a(mulsf3x.o)
                                                  d:/work/_programming/uc_dev/winavr/bin/../lib/gcc/avr/4.3.3/../../../../avr/lib/avr51\libm.a(divsf3x.o)
__fp_round                                        d:/work/_programming/uc_dev/winavr/bin/../lib/gcc/avr/4.3.3/../../../../avr/lib/avr51\libm.a(fp_round.o)
                                                  d:/work/_programming/uc_dev/winavr/bin/../lib/gcc/avr/4.3.3/../../../../avr/lib/avr51\libm.a(mulsf3.o)
                                                  d:/work/_programming/uc_dev/winavr/bin/../lib/gcc/avr/4.3.3/../../../../avr/lib/avr51\libm.a(divsf3.o)
__fp_split3                                       d:/work/_programming/uc_dev/winavr/bin/../lib/gcc/avr/4.3.3/../../../../avr/lib/avr51\libm.a(fp_split3.o)
                                                  d:/work/_programming/uc_dev/winavr/bin/../lib/gcc/avr/4.3.3/../../../../avr/lib/avr51\libm.a(mulsf3x.o)
                                                  d:/work/_programming/uc_dev/winavr/bin/../lib/gcc/avr/4.3.3/../../../../avr/lib/avr51\libm.a(divsf3x.o)
__fp_splitA                                       d:/work/_programming/uc_dev/winavr/bin/../lib/gcc/avr/4.3.3/../../../../avr/lib/avr51\libm.a(fp_split3.o)
                                                  d:/work/_programming/uc_dev/winavr/bin/../lib/gcc/avr/4.3.3/../../../../avr/lib/avr51\libm.a(fixunssfsi.o)
__fp_szero                                        d:/work/_programming/uc_dev/winavr/bin/../lib/gcc/avr/4.3.3/../../../../avr/lib/avr51\libm.a(fp_zero.o)
                                                  d:/work/_programming/uc_dev/winavr/bin/../lib/gcc/avr/4.3.3/../../../../avr/lib/avr51\libm.a(mulsf3x.o)
                                                  d:/work/_programming/uc_dev/winavr/bin/../lib/gcc/avr/4.3.3/../../../../avr/lib/avr51\libm.a(divsf3x.o)
__fp_zero                                         d:/work/_programming/uc_dev/winavr/bin/../lib/gcc/avr/4.3.3/../../../../avr/lib/avr51\libm.a(fp_zero.o)
                                                  d:/work/_programming/uc_dev/winavr/bin/../lib/gcc/avr/4.3.3/../../../../avr/lib/avr51\libm.a(fixunssfsi.o)
__gesf2                                           d:/work/_programming/uc_dev/winavr/bin/../lib/gcc/avr/4.3.3/../../../../avr/lib/avr51\libm.a(gesf2.o)
__gtsf2                                           d:/work/_programming/uc_dev/winavr/bin/../lib/gcc/avr/4.3.3/../../../../avr/lib/avr51\libm.a(gesf2.o)
                                                  main.o
__heap_end                                        d:/work/_programming/uc_dev/winavr/bin/../lib/gcc/avr/4.3.3/../../../../avr/lib/avr51/crtcan128.o
__init                                            d:/work/_programming/uc_dev/winavr/bin/../lib/gcc/avr/4.3.3/../../../../avr/lib/avr51/crtcan128.o
__lesf2                                           d:/work/_programming/uc_dev/winavr/bin/../lib/gcc/avr/4.3.3/../../../../avr/lib/avr51\libm.a(cmpsf2.o)
__ltsf2                                           d:/work/_programming/uc_dev/winavr/bin/../lib/gcc/avr/4.3.3/../../../../avr/lib/avr51\libm.a(cmpsf2.o)
                                                  main.o
__mulsf3                                          d:/work/_programming/uc_dev/winavr/bin/../lib/gcc/avr/4.3.3/../../../../avr/lib/avr51\libm.a(mulsf3.o)
                                                  main.o
__mulsf3_pse                                      d:/work/_programming/uc_dev/winavr/bin/../lib/gcc/avr/4.3.3/../../../../avr/lib/avr51\libm.a(mulsf3x.o)
__mulsf3x                                         d:/work/_programming/uc_dev/winavr/bin/../lib/gcc/avr/4.3.3/../../../../avr/lib/avr51\libm.a(mulsf3x.o)
                                                  d:/work/_programming/uc_dev/winavr/bin/../lib/gcc/avr/4.3.3/../../../../avr/lib/avr51\libm.a(mulsf3.o)
__nesf2                                           d:/work/_programming/uc_dev/winavr/bin/../lib/gcc/avr/4.3.3/../../../../avr/lib/avr51\libm.a(cmpsf2.o)
__stack                                           d:/work/_programming/uc_dev/winavr/bin/../lib/gcc/avr/4.3.3/../../../../avr/lib/avr51/crtcan128.o
__udivmodhi4                                      d:/work/_programming/uc_dev/winavr/bin/../lib/gcc/avr/4.3.3/avr51\libgcc.a(_udivmodhi4.o)
                                                  main.o
__udivmodqi4                                      d:/work/_programming/uc_dev/winavr/bin/../lib/gcc/avr/4.3.3/avr51\libgcc.a(_udivmodqi4.o)
                                                  main.o
__udivmodsi4                                      d:/work/_programming/uc_dev/winavr/bin/../lib/gcc/avr/4.3.3/avr51\libgcc.a(_udivmodsi4.o)
                                                  main.o
__vector_1                                        d:/work/_programming/uc_dev/winavr/bin/../lib/gcc/avr/4.3.3/../../../../avr/lib/avr51/crtcan128.o
__vector_10                                       d:/work/_programming/uc_dev/winavr/bin/../lib/gcc/avr/4.3.3/../../../../avr/lib/avr51/crtcan128.o
__vector_11                                       d:/work/_programming/uc_dev/winavr/bin/../lib/gcc/avr/4.3.3/../../../../avr/lib/avr51/crtcan128.o
__vector_12                                       d:/work/_programming/uc_dev/winavr/bin/../lib/gcc/avr/4.3.3/../../../../avr/lib/avr51/crtcan128.o
__vector_13                                       d:/work/_programming/uc_dev/winavr/bin/../lib/gcc/avr/4.3.3/../../../../avr/lib/avr51/crtcan128.o
__vector_14                                       d:/work/_programming/uc_dev/winavr/bin/../lib/gcc/avr/4.3.3/../../../../avr/lib/avr51/crtcan128.o
__vector_15                                       d:/work/_programming/uc_dev/winavr/bin/../lib/gcc/avr/4.3.3/../../../../avr/lib/avr51/crtcan128.o
__vector_16                                       d:/work/_programming/uc_dev/winavr/bin/../lib/gcc/avr/4.3.3/../../../../avr/lib/avr51/crtcan128.o
__vector_17                                       main.o
                                                  d:/work/_programming/uc_dev/winavr/bin/../lib/gcc/avr/4.3.3/../../../../avr/lib/avr51/crtcan128.o
__vector_18                                       main.o
                                                  d:/work/_programming/uc_dev/winavr/bin/../lib/gcc/avr/4.3.3/../../../../avr/lib/avr51/crtcan128.o
__vector_19                                       d:/work/_programming/uc_dev/winavr/bin/../lib/gcc/avr/4.3.3/../../../../avr/lib/avr51/crtcan128.o
__vector_2                                        d:/work/_programming/uc_dev/winavr/bin/../lib/gcc/avr/4.3.3/../../../../avr/lib/avr51/crtcan128.o
__vector_20                                       d:/work/_programming/uc_dev/winavr/bin/../lib/gcc/avr/4.3.3/../../../../avr/lib/avr51/crtcan128.o
__vector_21                                       main.o
                                                  d:/work/_programming/uc_dev/winavr/bin/../lib/gcc/avr/4.3.3/../../../../avr/lib/avr51/crtcan128.o
__vector_22                                       d:/work/_programming/uc_dev/winavr/bin/../lib/gcc/avr/4.3.3/../../../../avr/lib/avr51/crtcan128.o
__vector_23                                       main.o
                                                  d:/work/_programming/uc_dev/winavr/bin/../lib/gcc/avr/4.3.3/../../../../avr/lib/avr51/crtcan128.o
__vector_24                                       d:/work/_programming/uc_dev/winavr/bin/../lib/gcc/avr/4.3.3/../../../../avr/lib/avr51/crtcan128.o
__vector_25                                       d:/work/_programming/uc_dev/winavr/bin/../lib/gcc/avr/4.3.3/../../../../avr/lib/avr51/crtcan128.o
__vector_26                                       d:/work/_programming/uc_dev/winavr/bin/../lib/gcc/avr/4.3.3/../../../../avr/lib/avr51/crtcan128.o
__vector_27                                       d:/work/_programming/uc_dev/winavr/bin/../lib/gcc/avr/4.3.3/../../../../avr/lib/avr51/crtcan128.o
__vector_28                                       d:/work/_programming/uc_dev/winavr/bin/../lib/gcc/avr/4.3.3/../../../../avr/lib/avr51/crtcan128.o
__vector_29                                       d:/work/_programming/uc_dev/winavr/bin/../lib/gcc/avr/4.3.3/../../../../avr/lib/avr51/crtcan128.o
__vector_3                                        d:/work/_programming/uc_dev/winavr/bin/../lib/gcc/avr/4.3.3/../../../../avr/lib/avr51/crtcan128.o
__vector_30                                       d:/work/_programming/uc_dev/winavr/bin/../lib/gcc/avr/4.3.3/../../../../avr/lib/avr51/crtcan128.o
__vector_31                                       d:/work/_programming/uc_dev/winavr/bin/../lib/gcc/avr/4.3.3/../../../../avr/lib/avr51/crtcan128.o
__vector_32                                       d:/work/_programming/uc_dev/winavr/bin/../lib/gcc/avr/4.3.3/../../../../avr/lib/avr51/crtcan128.o
__vector_33                                       d:/work/_programming/uc_dev/winavr/bin/../lib/gcc/avr/4.3.3/../../../../avr/lib/avr51/crtcan128.o
__vector_34                                       d:/work/_programming/uc_dev/winavr/bin/../lib/gcc/avr/4.3.3/../../../../avr/lib/avr51/crtcan128.o
__vector_35                                       d:/work/_programming/uc_dev/winavr/bin/../lib/gcc/avr/4.3.3/../../../../avr/lib/avr51/crtcan128.o
__vector_36                                       d:/work/_programming/uc_dev/winavr/bin/../lib/gcc/avr/4.3.3/../../../../avr/lib/avr51/crtcan128.o
__vector_4                                        d:/work/_programming/uc_dev/winavr/bin/../lib/gcc/avr/4.3.3/../../../../avr/lib/avr51/crtcan128.o
__vector_5                                        d:/work/_programming/uc_dev/winavr/bin/../lib/gcc/avr/4.3.3/../../../../avr/lib/avr51/crtcan128.o
__vector_6                                        d:/work/_programming/uc_dev/winavr/bin/../lib/gcc/avr/4.3.3/../../../../avr/lib/avr51/crtcan128.o
__vector_7                                        d:/work/_programming/uc_dev/winavr/bin/../lib/gcc/avr/4.3.3/../../../../avr/lib/avr51/crtcan128.o
__vector_8                                        d:/work/_programming/uc_dev/winavr/bin/../lib/gcc/avr/4.3.3/../../../../avr/lib/avr51/crtcan128.o
__vector_9                                        d:/work/_programming/uc_dev/winavr/bin/../lib/gcc/avr/4.3.3/../../../../avr/lib/avr51/crtcan128.o
__vector_default                                  d:/work/_programming/uc_dev/winavr/bin/../lib/gcc/avr/4.3.3/../../../../avr/lib/avr51/crtcan128.o
__vectors                                         d:/work/_programming/uc_dev/winavr/bin/../lib/gcc/avr/4.3.3/../../../../avr/lib/avr51/crtcan128.o
_exit                                             d:/work/_programming/uc_dev/winavr/bin/../lib/gcc/avr/4.3.3/avr51\libgcc.a(_exit.o)
can_clear_mob_interrupt                           main.o
can_disable_mob                                   main.o
can_enable_mob                                    main.o
can_get_mob_data                                  main.o
can_get_mob_id                                    main.o
can_get_mob_id_type                               main.o
can_get_mob_interrupt                             main.o
can_get_mob_mode                                  main.o
can_init                                          main.o
can_select_mob                                    main.o
can_send_data                                     main.o
can_set_baudrate                                  main.o
can_set_interrupt                                 main.o
can_set_mob_data                                  main.o
can_set_mob_id                                    main.o
can_set_mob_id_mask                               main.o
can_set_mob_interrupt                             main.o
can_set_mob_mode                                  main.o
cell_voltage                                      main.o
cell_voltage_bcd                                  main.o
cell_voltage_buffer                               main.o
cell_voltage_na                                   main.o
cell_voltage_total                                main.o
data_id                                           main.o
data_income                                       main.o
delay_ms_long                                     main.o
draw_cells                                        main.o
draw_cont_closed                                  main.o
draw_cont_open                                    main.o
draw_status                                       main.o
exit                                              d:/work/_programming/uc_dev/winavr/bin/../lib/gcc/avr/4.3.3/avr51\libgcc.a(_exit.o)
                                                  d:/work/_programming/uc_dev/winavr/bin/../lib/gcc/avr/4.3.3/../../../../avr/lib/avr51/crtcan128.o
g_draw_char                                       main.o
g_draw_horizontal_line                            main.o
g_draw_rectangle                                  main.o
g_draw_string                                     main.o
g_draw_vertical_line                              main.o
getMaxMinCell                                     main.o
getTotalCellVoltage                               main.o
lcd_graphics_clear                                main.o
lcd_graphics_draw_byte                            main.o
lcd_graphics_init                                 main.o
lcd_graphics_move                                 main.o
lcd_graphics_plot_byte                            main.o
lcd_graphics_plot_pixel                           main.o
lcd_strobe_enable                                 main.o
lcd_wait_busy                                     main.o
lcd_write_command                                 main.o
main                                              main.o
                                                  d:/work/_programming/uc_dev/winavr/bin/../lib/gcc/avr/4.3.3/../../../../avr/lib/avr51/crtcan128.o
msg_BMC1_status                                   main.o
msg_BMC2_status                                   main.o
msg_BMC3_status                                   main.o
msg_BMC_Commands                                  main.o
msg_CellVolt_BMC1_14                              main.o
msg_CellVolt_BMC1_58                              main.o
msg_CellVolt_BMC2_14                              main.o
msg_CellVolt_BMC2_58                              main.o
msg_CellVolt_BMC3_14                              main.o
msg_CellVolt_BMC3_58                              main.o
msg_CurrentLEM                                    main.o
rec_data_position                                 main.o
restoreCapacity                                   main.o
send_data                                         main.o
send_data_num                                     main.o
send_data_position                                main.o
setBMCCommands                                    main.o
setBMSStaus                                       main.o
storeCapacity                                     main.o
timer0_cnt                                        main.o
uacCellCapacity                                   main.o
uacGlobal_Current                                 main.o
uacGlobal_Voltage                                 main.o
uacHighestCell                                    main.o
uacLowestCell                                     main.o
uacMaxCellVoltage                                 main.o
uacMinCellVoltage                                 main.o
uacRemainingRange                                 main.o
ucBMC1_CAN_Status                                 main.o
ucBMC1_CAN_Timeout                                main.o
ucBMC2_CAN_Status                                 main.o
ucBMC2_CAN_Timeout                                main.o
ucBMC3_CAN_Status                                 main.o
ucBMC3_CAN_Timeout                                main.o
ucButtonBlack                                     main.o
ucButtonBlackPressed                              main.o
ucButtonRed                                       main.o
ucButtonRedPressed                                main.o
ucCharging_Timeout                                main.o
ucConductorForceOff                               main.o
ucConductorStatus                                 main.o
ucCurrentCount                                    main.o
ucCurrentDirection                                main.o
ucError                                           main.o
ucLEM_CAN_Status                                  main.o
ucLEM_CAN_Timeout                                 main.o
ucMaxCellVoltageViolated                          main.o
ucMinCellVoltageViolated                          main.o
ucScreenStatus                                    main.o
ucScreenStatus_0_Ack                              main.o
ucScreenStatus_1_Ack                              main.o
ucScreenStatus_2_Ack                              main.o
ucaBalancingCell                                  main.o
ucaCAN_offline                                    main.o
ucaCAN_online                                     main.o
ucaConductor_closed                               main.o
ucaConductor_open                                 main.o
uiCurrent                                         main.o
uiCurrentBuffer                                   main.o
uiCurrentMean                                     main.o
uiMaxVoltage                                      main.o
uiMaxVoltageAllowed                               main.o
uiMinVoltage                                      main.o
uiMinVoltageAllowed                               main.o
uiRemainingTime                                   main.o
ulCapacity                                        main.o
ulCapacityBuffer                                  main.o
